;******************************************************************************
;* TI ARM G3 C/C++ Codegen                                              PC v20.2.7.LTS *
;* Date/Time created: Wed Feb 19 20:53:44 2025                                *
;******************************************************************************
	.compiler_opts --abi=eabi --arm_vmrs_si_workaround=off --code_state=16 --diag_wrap=off --embedded_constants=on --endian=little --float_support=FPv4SPD16 --hll_source=on --object_format=elf --silicon_version=7M4 --symdebug:dwarf --symdebug:dwarf_version=3 --unaligned_access=on 
	.thumb

$C$DW$CU	.dwtag  DW_TAG_compile_unit
	.dwattr $C$DW$CU, DW_AT_name("../MAIN.c")
	.dwattr $C$DW$CU, DW_AT_producer("TI TI ARM G3 C/C++ Codegen PC v20.2.7.LTS Copyright (c) 1996-2018 Texas Instruments Incorporated")
	.dwattr $C$DW$CU, DW_AT_TI_version(0x01)
	.dwattr $C$DW$CU, DW_AT_comp_dir("C:\Users\dimit\workspace_v12\Controle_Digital_Trabalho_Final\Debug")
	.global	comando
	.common	comando,1,1
$C$DW$1	.dwtag  DW_TAG_variable
	.dwattr $C$DW$1, DW_AT_name("comando")
	.dwattr $C$DW$1, DW_AT_TI_symbol_name("comando")
	.dwattr $C$DW$1, DW_AT_location[DW_OP_addr comando]
	.dwattr $C$DW$1, DW_AT_type(*$C$DW$T$6)
	.dwattr $C$DW$1, DW_AT_external
	.dwattr $C$DW$1, DW_AT_decl_file("..\UART.h")
	.dwattr $C$DW$1, DW_AT_decl_line(0x6f)
	.dwattr $C$DW$1, DW_AT_decl_column(0x06)

	.global	confirmacao
	.common	confirmacao,1,1
$C$DW$2	.dwtag  DW_TAG_variable
	.dwattr $C$DW$2, DW_AT_name("confirmacao")
	.dwattr $C$DW$2, DW_AT_TI_symbol_name("confirmacao")
	.dwattr $C$DW$2, DW_AT_location[DW_OP_addr confirmacao]
	.dwattr $C$DW$2, DW_AT_type(*$C$DW$T$6)
	.dwattr $C$DW$2, DW_AT_external
	.dwattr $C$DW$2, DW_AT_decl_file("..\UART.h")
	.dwattr $C$DW$2, DW_AT_decl_line(0x70)
	.dwattr $C$DW$2, DW_AT_decl_column(0x06)

	.global	confirmacao2
	.common	confirmacao2,1,1
$C$DW$3	.dwtag  DW_TAG_variable
	.dwattr $C$DW$3, DW_AT_name("confirmacao2")
	.dwattr $C$DW$3, DW_AT_TI_symbol_name("confirmacao2")
	.dwattr $C$DW$3, DW_AT_location[DW_OP_addr confirmacao2]
	.dwattr $C$DW$3, DW_AT_type(*$C$DW$T$6)
	.dwattr $C$DW$3, DW_AT_external
	.dwattr $C$DW$3, DW_AT_decl_file("..\UART.h")
	.dwattr $C$DW$3, DW_AT_decl_line(0x71)
	.dwattr $C$DW$3, DW_AT_decl_column(0x06)

	.global	CONTROLE_ON
	.data
	.align	4
	.elfsym	CONTROLE_ON,SYM_SIZE(4)
CONTROLE_ON:
	.bits		0,32
			; CONTROLE_ON @ 0

$C$DW$4	.dwtag  DW_TAG_variable
	.dwattr $C$DW$4, DW_AT_name("CONTROLE_ON")
	.dwattr $C$DW$4, DW_AT_TI_symbol_name("CONTROLE_ON")
	.dwattr $C$DW$4, DW_AT_location[DW_OP_addr CONTROLE_ON]
	.dwattr $C$DW$4, DW_AT_type(*$C$DW$T$10)
	.dwattr $C$DW$4, DW_AT_external
	.dwattr $C$DW$4, DW_AT_decl_file("../MAIN.c")
	.dwattr $C$DW$4, DW_AT_decl_line(0x33)
	.dwattr $C$DW$4, DW_AT_decl_column(0x05)

	.global	count_display
	.data
	.align	4
	.elfsym	count_display,SYM_SIZE(4)
count_display:
	.bits		0,32
			; count_display @ 0

$C$DW$5	.dwtag  DW_TAG_variable
	.dwattr $C$DW$5, DW_AT_name("count_display")
	.dwattr $C$DW$5, DW_AT_TI_symbol_name("count_display")
	.dwattr $C$DW$5, DW_AT_location[DW_OP_addr count_display]
	.dwattr $C$DW$5, DW_AT_type(*$C$DW$T$10)
	.dwattr $C$DW$5, DW_AT_external
	.dwattr $C$DW$5, DW_AT_decl_file("../MAIN.c")
	.dwattr $C$DW$5, DW_AT_decl_line(0x33)
	.dwattr $C$DW$5, DW_AT_decl_column(0x14)

	.global	angulo0
	.data
	.align	4
	.elfsym	angulo0,SYM_SIZE(4)
angulo0:
	.bits		0,32
			; angulo0 @ 0

$C$DW$6	.dwtag  DW_TAG_variable
	.dwattr $C$DW$6, DW_AT_name("angulo0")
	.dwattr $C$DW$6, DW_AT_TI_symbol_name("angulo0")
	.dwattr $C$DW$6, DW_AT_location[DW_OP_addr angulo0]
	.dwattr $C$DW$6, DW_AT_type(*$C$DW$T$10)
	.dwattr $C$DW$6, DW_AT_external
	.dwattr $C$DW$6, DW_AT_decl_file("../MAIN.c")
	.dwattr $C$DW$6, DW_AT_decl_line(0x33)
	.dwattr $C$DW$6, DW_AT_decl_column(0x25)

	.global	angulo1_aux
	.data
	.align	4
	.elfsym	angulo1_aux,SYM_SIZE(4)
angulo1_aux:
	.bits		0,32
			; angulo1_aux @ 0

$C$DW$7	.dwtag  DW_TAG_variable
	.dwattr $C$DW$7, DW_AT_name("angulo1_aux")
	.dwattr $C$DW$7, DW_AT_TI_symbol_name("angulo1_aux")
	.dwattr $C$DW$7, DW_AT_location[DW_OP_addr angulo1_aux]
	.dwattr $C$DW$7, DW_AT_type(*$C$DW$T$10)
	.dwattr $C$DW$7, DW_AT_external
	.dwattr $C$DW$7, DW_AT_decl_file("../MAIN.c")
	.dwattr $C$DW$7, DW_AT_decl_line(0x33)
	.dwattr $C$DW$7, DW_AT_decl_column(0x30)

	.global	dado_escolhido
	.data
	.align	4
	.elfsym	dado_escolhido,SYM_SIZE(4)
dado_escolhido:
	.bits		0,32
			; dado_escolhido @ 0

$C$DW$8	.dwtag  DW_TAG_variable
	.dwattr $C$DW$8, DW_AT_name("dado_escolhido")
	.dwattr $C$DW$8, DW_AT_TI_symbol_name("dado_escolhido")
	.dwattr $C$DW$8, DW_AT_location[DW_OP_addr dado_escolhido]
	.dwattr $C$DW$8, DW_AT_type(*$C$DW$T$10)
	.dwattr $C$DW$8, DW_AT_external
	.dwattr $C$DW$8, DW_AT_decl_file("../MAIN.c")
	.dwattr $C$DW$8, DW_AT_decl_line(0x33)
	.dwattr $C$DW$8, DW_AT_decl_column(0x3e)

	.global	INICIO
	.data
	.align	4
	.elfsym	INICIO,SYM_SIZE(4)
INICIO:
	.bits		0,32
			; INICIO @ 0

$C$DW$9	.dwtag  DW_TAG_variable
	.dwattr $C$DW$9, DW_AT_name("INICIO")
	.dwattr $C$DW$9, DW_AT_TI_symbol_name("INICIO")
	.dwattr $C$DW$9, DW_AT_location[DW_OP_addr INICIO]
	.dwattr $C$DW$9, DW_AT_type(*$C$DW$T$10)
	.dwattr $C$DW$9, DW_AT_external
	.dwattr $C$DW$9, DW_AT_decl_file("../MAIN.c")
	.dwattr $C$DW$9, DW_AT_decl_line(0x33)
	.dwattr $C$DW$9, DW_AT_decl_column(0x4f)

	.global	acao_controle
	.data
	.align	4
	.elfsym	acao_controle,SYM_SIZE(4)
acao_controle:
	.bits		0,32
			; acao_controle @ 0

$C$DW$10	.dwtag  DW_TAG_variable
	.dwattr $C$DW$10, DW_AT_name("acao_controle")
	.dwattr $C$DW$10, DW_AT_TI_symbol_name("acao_controle")
	.dwattr $C$DW$10, DW_AT_location[DW_OP_addr acao_controle]
	.dwattr $C$DW$10, DW_AT_type(*$C$DW$T$10)
	.dwattr $C$DW$10, DW_AT_external
	.dwattr $C$DW$10, DW_AT_decl_file("../MAIN.c")
	.dwattr $C$DW$10, DW_AT_decl_line(0x34)
	.dwattr $C$DW$10, DW_AT_decl_column(0x05)

	.global	buffer
	.common	buffer,400,4
$C$DW$11	.dwtag  DW_TAG_variable
	.dwattr $C$DW$11, DW_AT_name("buffer")
	.dwattr $C$DW$11, DW_AT_TI_symbol_name("buffer")
	.dwattr $C$DW$11, DW_AT_location[DW_OP_addr buffer]
	.dwattr $C$DW$11, DW_AT_type(*$C$DW$T$78)
	.dwattr $C$DW$11, DW_AT_external
	.dwattr $C$DW$11, DW_AT_decl_file("../MAIN.c")
	.dwattr $C$DW$11, DW_AT_decl_line(0x34)
	.dwattr $C$DW$11, DW_AT_decl_column(0x16)

	.global	length
	.data
	.align	4
	.elfsym	length,SYM_SIZE(4)
length:
	.bits		0,32
			; length @ 0

$C$DW$12	.dwtag  DW_TAG_variable
	.dwattr $C$DW$12, DW_AT_name("length")
	.dwattr $C$DW$12, DW_AT_TI_symbol_name("length")
	.dwattr $C$DW$12, DW_AT_location[DW_OP_addr length]
	.dwattr $C$DW$12, DW_AT_type(*$C$DW$T$10)
	.dwattr $C$DW$12, DW_AT_external
	.dwattr $C$DW$12, DW_AT_decl_file("../MAIN.c")
	.dwattr $C$DW$12, DW_AT_decl_line(0x34)
	.dwattr $C$DW$12, DW_AT_decl_column(0x23)

	.global	numero_de_pontos_acao_controle
	.data
	.align	4
	.elfsym	numero_de_pontos_acao_controle,SYM_SIZE(4)
numero_de_pontos_acao_controle:
	.bits		0,32
			; numero_de_pontos_acao_controle @ 0

$C$DW$13	.dwtag  DW_TAG_variable
	.dwattr $C$DW$13, DW_AT_name("numero_de_pontos_acao_controle")
	.dwattr $C$DW$13, DW_AT_TI_symbol_name("numero_de_pontos_acao_controle")
	.dwattr $C$DW$13, DW_AT_location[DW_OP_addr numero_de_pontos_acao_controle]
	.dwattr $C$DW$13, DW_AT_type(*$C$DW$T$10)
	.dwattr $C$DW$13, DW_AT_external
	.dwattr $C$DW$13, DW_AT_decl_file("../MAIN.c")
	.dwattr $C$DW$13, DW_AT_decl_line(0x34)
	.dwattr $C$DW$13, DW_AT_decl_column(0x2d)

	.global	REF
	.data
	.align	4
	.elfsym	REF,SYM_SIZE(4)
REF:
	.word	000000000h	; REF @ 0 (0)

$C$DW$14	.dwtag  DW_TAG_variable
	.dwattr $C$DW$14, DW_AT_name("REF")
	.dwattr $C$DW$14, DW_AT_TI_symbol_name("REF")
	.dwattr $C$DW$14, DW_AT_location[DW_OP_addr REF]
	.dwattr $C$DW$14, DW_AT_type(*$C$DW$T$16)
	.dwattr $C$DW$14, DW_AT_external
	.dwattr $C$DW$14, DW_AT_decl_file("../MAIN.c")
	.dwattr $C$DW$14, DW_AT_decl_line(0x35)
	.dwattr $C$DW$14, DW_AT_decl_column(0x07)

	.global	REF_controle
	.data
	.align	4
	.elfsym	REF_controle,SYM_SIZE(4)
REF_controle:
	.word	000000000h	; REF_controle @ 0 (0)

$C$DW$15	.dwtag  DW_TAG_variable
	.dwattr $C$DW$15, DW_AT_name("REF_controle")
	.dwattr $C$DW$15, DW_AT_TI_symbol_name("REF_controle")
	.dwattr $C$DW$15, DW_AT_location[DW_OP_addr REF_controle]
	.dwattr $C$DW$15, DW_AT_type(*$C$DW$T$16)
	.dwattr $C$DW$15, DW_AT_external
	.dwattr $C$DW$15, DW_AT_decl_file("../MAIN.c")
	.dwattr $C$DW$15, DW_AT_decl_line(0x35)
	.dwattr $C$DW$15, DW_AT_decl_column(0x0e)

	.global	||V0||
	.data
	.align	4
	.elfsym	||V0||,SYM_SIZE(4)
||V0||:
	.word	000000000h	; V0 @ 0 (0)

$C$DW$16	.dwtag  DW_TAG_variable
	.dwattr $C$DW$16, DW_AT_name("V0")
	.dwattr $C$DW$16, DW_AT_TI_symbol_name("V0")
	.dwattr $C$DW$16, DW_AT_location[DW_OP_addr ||V0||]
	.dwattr $C$DW$16, DW_AT_type(*$C$DW$T$16)
	.dwattr $C$DW$16, DW_AT_external
	.dwattr $C$DW$16, DW_AT_decl_file("../MAIN.c")
	.dwattr $C$DW$16, DW_AT_decl_line(0x35)
	.dwattr $C$DW$16, DW_AT_decl_column(0x1e)

	.global	||V1||
	.data
	.align	4
	.elfsym	||V1||,SYM_SIZE(4)
||V1||:
	.word	000000000h	; V1 @ 0 (0)

$C$DW$17	.dwtag  DW_TAG_variable
	.dwattr $C$DW$17, DW_AT_name("V1")
	.dwattr $C$DW$17, DW_AT_TI_symbol_name("V1")
	.dwattr $C$DW$17, DW_AT_location[DW_OP_addr ||V1||]
	.dwattr $C$DW$17, DW_AT_type(*$C$DW$T$16)
	.dwattr $C$DW$17, DW_AT_external
	.dwattr $C$DW$17, DW_AT_decl_file("../MAIN.c")
	.dwattr $C$DW$17, DW_AT_decl_line(0x35)
	.dwattr $C$DW$17, DW_AT_decl_column(0x24)

	.global	Vsaida_antigo
	.data
	.align	4
	.elfsym	Vsaida_antigo,SYM_SIZE(4)
Vsaida_antigo:
	.word	000000000h	; Vsaida_antigo @ 0 (0)

$C$DW$18	.dwtag  DW_TAG_variable
	.dwattr $C$DW$18, DW_AT_name("Vsaida_antigo")
	.dwattr $C$DW$18, DW_AT_TI_symbol_name("Vsaida_antigo")
	.dwattr $C$DW$18, DW_AT_location[DW_OP_addr Vsaida_antigo]
	.dwattr $C$DW$18, DW_AT_type(*$C$DW$T$16)
	.dwattr $C$DW$18, DW_AT_external
	.dwattr $C$DW$18, DW_AT_decl_file("../MAIN.c")
	.dwattr $C$DW$18, DW_AT_decl_line(0x35)
	.dwattr $C$DW$18, DW_AT_decl_column(0x2a)

	.global	angulo1_normalizado
	.data
	.align	4
	.elfsym	angulo1_normalizado,SYM_SIZE(4)
angulo1_normalizado:
	.word	000000000h	; angulo1_normalizado @ 0 (0)

$C$DW$19	.dwtag  DW_TAG_variable
	.dwattr $C$DW$19, DW_AT_name("angulo1_normalizado")
	.dwattr $C$DW$19, DW_AT_TI_symbol_name("angulo1_normalizado")
	.dwattr $C$DW$19, DW_AT_location[DW_OP_addr angulo1_normalizado]
	.dwattr $C$DW$19, DW_AT_type(*$C$DW$T$16)
	.dwattr $C$DW$19, DW_AT_external
	.dwattr $C$DW$19, DW_AT_decl_file("../MAIN.c")
	.dwattr $C$DW$19, DW_AT_decl_line(0x35)
	.dwattr $C$DW$19, DW_AT_decl_column(0x3b)

	.global	Vsaida
	.data
	.align	4
	.elfsym	Vsaida,SYM_SIZE(4)
Vsaida:
	.word	000000000h	; Vsaida @ 0 (0)

$C$DW$20	.dwtag  DW_TAG_variable
	.dwattr $C$DW$20, DW_AT_name("Vsaida")
	.dwattr $C$DW$20, DW_AT_TI_symbol_name("Vsaida")
	.dwattr $C$DW$20, DW_AT_location[DW_OP_addr Vsaida]
	.dwattr $C$DW$20, DW_AT_type(*$C$DW$T$16)
	.dwattr $C$DW$20, DW_AT_external
	.dwattr $C$DW$20, DW_AT_decl_file("../MAIN.c")
	.dwattr $C$DW$20, DW_AT_decl_line(0x35)
	.dwattr $C$DW$20, DW_AT_decl_column(0x52)

	.global	angulo0_normalizado
	.data
	.align	4
	.elfsym	angulo0_normalizado,SYM_SIZE(4)
angulo0_normalizado:
	.word	000000000h	; angulo0_normalizado @ 0 (0)

$C$DW$21	.dwtag  DW_TAG_variable
	.dwattr $C$DW$21, DW_AT_name("angulo0_normalizado")
	.dwattr $C$DW$21, DW_AT_TI_symbol_name("angulo0_normalizado")
	.dwattr $C$DW$21, DW_AT_location[DW_OP_addr angulo0_normalizado]
	.dwattr $C$DW$21, DW_AT_type(*$C$DW$T$16)
	.dwattr $C$DW$21, DW_AT_external
	.dwattr $C$DW$21, DW_AT_decl_file("../MAIN.c")
	.dwattr $C$DW$21, DW_AT_decl_line(0x35)
	.dwattr $C$DW$21, DW_AT_decl_column(0x5c)

	.global	zerar_var
	.data
	.align	4
	.elfsym	zerar_var,SYM_SIZE(4)
zerar_var:
	.word	000000000h	; zerar_var @ 0 (0)

$C$DW$22	.dwtag  DW_TAG_variable
	.dwattr $C$DW$22, DW_AT_name("zerar_var")
	.dwattr $C$DW$22, DW_AT_TI_symbol_name("zerar_var")
	.dwattr $C$DW$22, DW_AT_location[DW_OP_addr zerar_var]
	.dwattr $C$DW$22, DW_AT_type(*$C$DW$T$16)
	.dwattr $C$DW$22, DW_AT_external
	.dwattr $C$DW$22, DW_AT_decl_file("../MAIN.c")
	.dwattr $C$DW$22, DW_AT_decl_line(0x35)
	.dwattr $C$DW$22, DW_AT_decl_column(0x73)

	.global	RPM
	.data
	.align	4
	.elfsym	RPM,SYM_SIZE(4)
RPM:
	.word	000000000h	; RPM @ 0 (0)

$C$DW$23	.dwtag  DW_TAG_variable
	.dwattr $C$DW$23, DW_AT_name("RPM")
	.dwattr $C$DW$23, DW_AT_TI_symbol_name("RPM")
	.dwattr $C$DW$23, DW_AT_location[DW_OP_addr RPM]
	.dwattr $C$DW$23, DW_AT_type(*$C$DW$T$16)
	.dwattr $C$DW$23, DW_AT_external
	.dwattr $C$DW$23, DW_AT_decl_file("../MAIN.c")
	.dwattr $C$DW$23, DW_AT_decl_line(0x35)
	.dwattr $C$DW$23, DW_AT_decl_column(0x7f)

	.global	DADOOO
	.data
	.align	4
	.elfsym	DADOOO,SYM_SIZE(4)
DADOOO:
	.word	000000000h	; DADOOO @ 0 (0)

$C$DW$24	.dwtag  DW_TAG_variable
	.dwattr $C$DW$24, DW_AT_name("DADOOO")
	.dwattr $C$DW$24, DW_AT_TI_symbol_name("DADOOO")
	.dwattr $C$DW$24, DW_AT_location[DW_OP_addr DADOOO]
	.dwattr $C$DW$24, DW_AT_type(*$C$DW$T$16)
	.dwattr $C$DW$24, DW_AT_external
	.dwattr $C$DW$24, DW_AT_decl_file("../MAIN.c")
	.dwattr $C$DW$24, DW_AT_decl_line(0x35)
	.dwattr $C$DW$24, DW_AT_decl_column(0x87)

	.global	angulo0aux
	.data
	.align	4
	.elfsym	angulo0aux,SYM_SIZE(4)
angulo0aux:
	.bits		0,32
			; angulo0aux @ 0

$C$DW$25	.dwtag  DW_TAG_variable
	.dwattr $C$DW$25, DW_AT_name("angulo0aux")
	.dwattr $C$DW$25, DW_AT_TI_symbol_name("angulo0aux")
	.dwattr $C$DW$25, DW_AT_location[DW_OP_addr angulo0aux]
	.dwattr $C$DW$25, DW_AT_type(*$C$DW$T$10)
	.dwattr $C$DW$25, DW_AT_external
	.dwattr $C$DW$25, DW_AT_decl_file("../MAIN.c")
	.dwattr $C$DW$25, DW_AT_decl_line(0x36)
	.dwattr $C$DW$25, DW_AT_decl_column(0x05)

	.global	angulo1aux
	.data
	.align	4
	.elfsym	angulo1aux,SYM_SIZE(4)
angulo1aux:
	.bits		0,32
			; angulo1aux @ 0

$C$DW$26	.dwtag  DW_TAG_variable
	.dwattr $C$DW$26, DW_AT_name("angulo1aux")
	.dwattr $C$DW$26, DW_AT_TI_symbol_name("angulo1aux")
	.dwattr $C$DW$26, DW_AT_location[DW_OP_addr angulo1aux]
	.dwattr $C$DW$26, DW_AT_type(*$C$DW$T$10)
	.dwattr $C$DW$26, DW_AT_external
	.dwattr $C$DW$26, DW_AT_decl_file("../MAIN.c")
	.dwattr $C$DW$26, DW_AT_decl_line(0x36)
	.dwattr $C$DW$26, DW_AT_decl_column(0x13)

	.global	primeira
	.data
	.align	4
	.elfsym	primeira,SYM_SIZE(4)
primeira:
	.bits		0x1,32
			; primeira @ 0

$C$DW$27	.dwtag  DW_TAG_variable
	.dwattr $C$DW$27, DW_AT_name("primeira")
	.dwattr $C$DW$27, DW_AT_TI_symbol_name("primeira")
	.dwattr $C$DW$27, DW_AT_location[DW_OP_addr primeira]
	.dwattr $C$DW$27, DW_AT_type(*$C$DW$T$10)
	.dwattr $C$DW$27, DW_AT_external
	.dwattr $C$DW$27, DW_AT_decl_file("../MAIN.c")
	.dwattr $C$DW$27, DW_AT_decl_line(0x36)
	.dwattr $C$DW$27, DW_AT_decl_column(0x21)

	.global	i
	.data
	.align	4
	.elfsym	i,SYM_SIZE(4)
i:
	.bits		0,32
			; i @ 0

$C$DW$28	.dwtag  DW_TAG_variable
	.dwattr $C$DW$28, DW_AT_name("i")
	.dwattr $C$DW$28, DW_AT_TI_symbol_name("i")
	.dwattr $C$DW$28, DW_AT_location[DW_OP_addr i]
	.dwattr $C$DW$28, DW_AT_type(*$C$DW$T$10)
	.dwattr $C$DW$28, DW_AT_external
	.dwattr $C$DW$28, DW_AT_decl_file("../MAIN.c")
	.dwattr $C$DW$28, DW_AT_decl_line(0x36)
	.dwattr $C$DW$28, DW_AT_decl_column(0x2d)

	.global	ii
	.data
	.align	4
	.elfsym	ii,SYM_SIZE(4)
ii:
	.bits		0,32
			; ii @ 0

$C$DW$29	.dwtag  DW_TAG_variable
	.dwattr $C$DW$29, DW_AT_name("ii")
	.dwattr $C$DW$29, DW_AT_TI_symbol_name("ii")
	.dwattr $C$DW$29, DW_AT_location[DW_OP_addr ii]
	.dwattr $C$DW$29, DW_AT_type(*$C$DW$T$10)
	.dwattr $C$DW$29, DW_AT_external
	.dwattr $C$DW$29, DW_AT_decl_file("../MAIN.c")
	.dwattr $C$DW$29, DW_AT_decl_line(0x36)
	.dwattr $C$DW$29, DW_AT_decl_column(0x32)

	.global	dado_a_ser_enviado
	.data
	.align	4
	.elfsym	dado_a_ser_enviado,SYM_SIZE(4)
dado_a_ser_enviado:
	.bits		0,32
			; dado_a_ser_enviado @ 0

$C$DW$30	.dwtag  DW_TAG_variable
	.dwattr $C$DW$30, DW_AT_name("dado_a_ser_enviado")
	.dwattr $C$DW$30, DW_AT_TI_symbol_name("dado_a_ser_enviado")
	.dwattr $C$DW$30, DW_AT_location[DW_OP_addr dado_a_ser_enviado]
	.dwattr $C$DW$30, DW_AT_type(*$C$DW$T$10)
	.dwattr $C$DW$30, DW_AT_external
	.dwattr $C$DW$30, DW_AT_decl_file("../MAIN.c")
	.dwattr $C$DW$30, DW_AT_decl_line(0x36)
	.dwattr $C$DW$30, DW_AT_decl_column(0x38)

	.global	dado_a_ser_enviado2
	.data
	.align	4
	.elfsym	dado_a_ser_enviado2,SYM_SIZE(4)
dado_a_ser_enviado2:
	.bits		0,32
			; dado_a_ser_enviado2 @ 0

$C$DW$31	.dwtag  DW_TAG_variable
	.dwattr $C$DW$31, DW_AT_name("dado_a_ser_enviado2")
	.dwattr $C$DW$31, DW_AT_TI_symbol_name("dado_a_ser_enviado2")
	.dwattr $C$DW$31, DW_AT_location[DW_OP_addr dado_a_ser_enviado2]
	.dwattr $C$DW$31, DW_AT_type(*$C$DW$T$10)
	.dwattr $C$DW$31, DW_AT_external
	.dwattr $C$DW$31, DW_AT_decl_file("../MAIN.c")
	.dwattr $C$DW$31, DW_AT_decl_line(0x36)
	.dwattr $C$DW$31, DW_AT_decl_column(0x4d)

	.global	comando_decimal
	.data
	.align	4
	.elfsym	comando_decimal,SYM_SIZE(4)
comando_decimal:
	.bits		0,32
			; comando_decimal @ 0

$C$DW$32	.dwtag  DW_TAG_variable
	.dwattr $C$DW$32, DW_AT_name("comando_decimal")
	.dwattr $C$DW$32, DW_AT_TI_symbol_name("comando_decimal")
	.dwattr $C$DW$32, DW_AT_location[DW_OP_addr comando_decimal]
	.dwattr $C$DW$32, DW_AT_type(*$C$DW$T$10)
	.dwattr $C$DW$32, DW_AT_external
	.dwattr $C$DW$32, DW_AT_decl_file("../MAIN.c")
	.dwattr $C$DW$32, DW_AT_decl_line(0x36)
	.dwattr $C$DW$32, DW_AT_decl_column(0x63)

	.global	Vsaida_ant
	.data
	.align	4
	.elfsym	Vsaida_ant,SYM_SIZE(4)
Vsaida_ant:
	.bits		0,32
			; Vsaida_ant @ 0

$C$DW$33	.dwtag  DW_TAG_variable
	.dwattr $C$DW$33, DW_AT_name("Vsaida_ant")
	.dwattr $C$DW$33, DW_AT_TI_symbol_name("Vsaida_ant")
	.dwattr $C$DW$33, DW_AT_location[DW_OP_addr Vsaida_ant]
	.dwattr $C$DW$33, DW_AT_type(*$C$DW$T$10)
	.dwattr $C$DW$33, DW_AT_external
	.dwattr $C$DW$33, DW_AT_decl_file("../MAIN.c")
	.dwattr $C$DW$33, DW_AT_decl_line(0x36)
	.dwattr $C$DW$33, DW_AT_decl_column(0x76)

	.global	vet1
	.common	vet1,16000,4
$C$DW$34	.dwtag  DW_TAG_variable
	.dwattr $C$DW$34, DW_AT_name("vet1")
	.dwattr $C$DW$34, DW_AT_TI_symbol_name("vet1")
	.dwattr $C$DW$34, DW_AT_location[DW_OP_addr vet1]
	.dwattr $C$DW$34, DW_AT_type(*$C$DW$T$171)
	.dwattr $C$DW$34, DW_AT_external
	.dwattr $C$DW$34, DW_AT_decl_file("../MAIN.c")
	.dwattr $C$DW$34, DW_AT_decl_line(0x37)
	.dwattr $C$DW$34, DW_AT_decl_column(0x07)

	.global	auxiliar
	.data
	.align	4
	.elfsym	auxiliar,SYM_SIZE(4)
auxiliar:
	.bits		0,32
			; auxiliar @ 0

$C$DW$35	.dwtag  DW_TAG_variable
	.dwattr $C$DW$35, DW_AT_name("auxiliar")
	.dwattr $C$DW$35, DW_AT_TI_symbol_name("auxiliar")
	.dwattr $C$DW$35, DW_AT_location[DW_OP_addr auxiliar]
	.dwattr $C$DW$35, DW_AT_type(*$C$DW$T$10)
	.dwattr $C$DW$35, DW_AT_external
	.dwattr $C$DW$35, DW_AT_decl_file("../MAIN.c")
	.dwattr $C$DW$35, DW_AT_decl_line(0x38)
	.dwattr $C$DW$35, DW_AT_decl_column(0x05)

	.global	Kp
	.data
	.align	4
	.elfsym	Kp,SYM_SIZE(4)
Kp:
	.word	03f59999ah	; Kp @ 0 (0.85000002384185791016)

$C$DW$36	.dwtag  DW_TAG_variable
	.dwattr $C$DW$36, DW_AT_name("Kp")
	.dwattr $C$DW$36, DW_AT_TI_symbol_name("Kp")
	.dwattr $C$DW$36, DW_AT_location[DW_OP_addr Kp]
	.dwattr $C$DW$36, DW_AT_type(*$C$DW$T$16)
	.dwattr $C$DW$36, DW_AT_external
	.dwattr $C$DW$36, DW_AT_decl_file("../MAIN.c")
	.dwattr $C$DW$36, DW_AT_decl_line(0x39)
	.dwattr $C$DW$36, DW_AT_decl_column(0x07)

	.global	Ki
	.data
	.align	4
	.elfsym	Ki,SYM_SIZE(4)
Ki:
	.word	000000000h	; Ki @ 0 (0)

$C$DW$37	.dwtag  DW_TAG_variable
	.dwattr $C$DW$37, DW_AT_name("Ki")
	.dwattr $C$DW$37, DW_AT_TI_symbol_name("Ki")
	.dwattr $C$DW$37, DW_AT_location[DW_OP_addr Ki]
	.dwattr $C$DW$37, DW_AT_type(*$C$DW$T$16)
	.dwattr $C$DW$37, DW_AT_external
	.dwattr $C$DW$37, DW_AT_decl_file("../MAIN.c")
	.dwattr $C$DW$37, DW_AT_decl_line(0x3a)
	.dwattr $C$DW$37, DW_AT_decl_column(0x07)

	.global	Kd
	.data
	.align	4
	.elfsym	Kd,SYM_SIZE(4)
Kd:
	.word	000000000h	; Kd @ 0 (0)

$C$DW$38	.dwtag  DW_TAG_variable
	.dwattr $C$DW$38, DW_AT_name("Kd")
	.dwattr $C$DW$38, DW_AT_TI_symbol_name("Kd")
	.dwattr $C$DW$38, DW_AT_location[DW_OP_addr Kd]
	.dwattr $C$DW$38, DW_AT_type(*$C$DW$T$16)
	.dwattr $C$DW$38, DW_AT_external
	.dwattr $C$DW$38, DW_AT_decl_file("../MAIN.c")
	.dwattr $C$DW$38, DW_AT_decl_line(0x3b)
	.dwattr $C$DW$38, DW_AT_decl_column(0x07)

	.global	Ti
	.data
	.align	4
	.elfsym	Ti,SYM_SIZE(4)
Ti:
	.word	03e99999ah	; Ti @ 0 (0.30000001192092895508)

$C$DW$39	.dwtag  DW_TAG_variable
	.dwattr $C$DW$39, DW_AT_name("Ti")
	.dwattr $C$DW$39, DW_AT_TI_symbol_name("Ti")
	.dwattr $C$DW$39, DW_AT_location[DW_OP_addr Ti]
	.dwattr $C$DW$39, DW_AT_type(*$C$DW$T$16)
	.dwattr $C$DW$39, DW_AT_external
	.dwattr $C$DW$39, DW_AT_decl_file("../MAIN.c")
	.dwattr $C$DW$39, DW_AT_decl_line(0x3d)
	.dwattr $C$DW$39, DW_AT_decl_column(0x07)

	.global	Td
	.data
	.align	4
	.elfsym	Td,SYM_SIZE(4)
Td:
	.word	03de147aeh	; Td @ 0 (0.10999999940395355225)

$C$DW$40	.dwtag  DW_TAG_variable
	.dwattr $C$DW$40, DW_AT_name("Td")
	.dwattr $C$DW$40, DW_AT_TI_symbol_name("Td")
	.dwattr $C$DW$40, DW_AT_location[DW_OP_addr Td]
	.dwattr $C$DW$40, DW_AT_type(*$C$DW$T$16)
	.dwattr $C$DW$40, DW_AT_external
	.dwattr $C$DW$40, DW_AT_decl_file("../MAIN.c")
	.dwattr $C$DW$40, DW_AT_decl_line(0x3e)
	.dwattr $C$DW$40, DW_AT_decl_column(0x07)

	.global	N
	.data
	.align	4
	.elfsym	N,SYM_SIZE(4)
N:
	.word	041c80000h	; N @ 0 (25)

$C$DW$41	.dwtag  DW_TAG_variable
	.dwattr $C$DW$41, DW_AT_name("N")
	.dwattr $C$DW$41, DW_AT_TI_symbol_name("N")
	.dwattr $C$DW$41, DW_AT_location[DW_OP_addr N]
	.dwattr $C$DW$41, DW_AT_type(*$C$DW$T$16)
	.dwattr $C$DW$41, DW_AT_external
	.dwattr $C$DW$41, DW_AT_decl_file("../MAIN.c")
	.dwattr $C$DW$41, DW_AT_decl_line(0x3f)
	.dwattr $C$DW$41, DW_AT_decl_column(0x07)

	.global	e_aw
	.data
	.align	4
	.elfsym	e_aw,SYM_SIZE(4)
e_aw:
	.word	000000000h	; e_aw @ 0 (0)

$C$DW$42	.dwtag  DW_TAG_variable
	.dwattr $C$DW$42, DW_AT_name("e_aw")
	.dwattr $C$DW$42, DW_AT_TI_symbol_name("e_aw")
	.dwattr $C$DW$42, DW_AT_location[DW_OP_addr e_aw]
	.dwattr $C$DW$42, DW_AT_type(*$C$DW$T$16)
	.dwattr $C$DW$42, DW_AT_external
	.dwattr $C$DW$42, DW_AT_decl_file("../MAIN.c")
	.dwattr $C$DW$42, DW_AT_decl_line(0x40)
	.dwattr $C$DW$42, DW_AT_decl_column(0x07)

	.global	A
	.data
	.align	4
	.elfsym	A,SYM_SIZE(4)
A:
	.word	000000000h	; A @ 0 (0)

$C$DW$43	.dwtag  DW_TAG_variable
	.dwattr $C$DW$43, DW_AT_name("A")
	.dwattr $C$DW$43, DW_AT_TI_symbol_name("A")
	.dwattr $C$DW$43, DW_AT_location[DW_OP_addr A]
	.dwattr $C$DW$43, DW_AT_type(*$C$DW$T$16)
	.dwattr $C$DW$43, DW_AT_external
	.dwattr $C$DW$43, DW_AT_decl_file("../MAIN.c")
	.dwattr $C$DW$43, DW_AT_decl_line(0x42)
	.dwattr $C$DW$43, DW_AT_decl_column(0x07)

	.global	B
	.data
	.align	4
	.elfsym	B,SYM_SIZE(4)
B:
	.word	000000000h	; B @ 0 (0)

$C$DW$44	.dwtag  DW_TAG_variable
	.dwattr $C$DW$44, DW_AT_name("B")
	.dwattr $C$DW$44, DW_AT_TI_symbol_name("B")
	.dwattr $C$DW$44, DW_AT_location[DW_OP_addr B]
	.dwattr $C$DW$44, DW_AT_type(*$C$DW$T$16)
	.dwattr $C$DW$44, DW_AT_external
	.dwattr $C$DW$44, DW_AT_decl_file("../MAIN.c")
	.dwattr $C$DW$44, DW_AT_decl_line(0x42)
	.dwattr $C$DW$44, DW_AT_decl_column(0x0c)

	.global	a
	.data
	.align	4
	.elfsym	a,SYM_SIZE(4)
a:
	.word	000000000h	; a @ 0 (0)

$C$DW$45	.dwtag  DW_TAG_variable
	.dwattr $C$DW$45, DW_AT_name("a")
	.dwattr $C$DW$45, DW_AT_TI_symbol_name("a")
	.dwattr $C$DW$45, DW_AT_location[DW_OP_addr a]
	.dwattr $C$DW$45, DW_AT_type(*$C$DW$T$16)
	.dwattr $C$DW$45, DW_AT_external
	.dwattr $C$DW$45, DW_AT_decl_file("../MAIN.c")
	.dwattr $C$DW$45, DW_AT_decl_line(0x42)
	.dwattr $C$DW$45, DW_AT_decl_column(0x11)

	.global	wc
	.data
	.align	4
	.elfsym	wc,SYM_SIZE(4)
wc:
	.word	000000000h	; wc @ 0 (0)

$C$DW$46	.dwtag  DW_TAG_variable
	.dwattr $C$DW$46, DW_AT_name("wc")
	.dwattr $C$DW$46, DW_AT_TI_symbol_name("wc")
	.dwattr $C$DW$46, DW_AT_location[DW_OP_addr wc]
	.dwattr $C$DW$46, DW_AT_type(*$C$DW$T$16)
	.dwattr $C$DW$46, DW_AT_external
	.dwattr $C$DW$46, DW_AT_decl_file("../MAIN.c")
	.dwattr $C$DW$46, DW_AT_decl_line(0x42)
	.dwattr $C$DW$46, DW_AT_decl_column(0x16)

	.global	pi
	.data
	.align	4
	.elfsym	pi,SYM_SIZE(4)
pi:
	.word	040490fdbh	; pi @ 0 (3.14159274101257324219)

$C$DW$47	.dwtag  DW_TAG_variable
	.dwattr $C$DW$47, DW_AT_name("pi")
	.dwattr $C$DW$47, DW_AT_TI_symbol_name("pi")
	.dwattr $C$DW$47, DW_AT_location[DW_OP_addr pi]
	.dwattr $C$DW$47, DW_AT_type(*$C$DW$T$16)
	.dwattr $C$DW$47, DW_AT_external
	.dwattr $C$DW$47, DW_AT_decl_file("../MAIN.c")
	.dwattr $C$DW$47, DW_AT_decl_line(0x42)
	.dwattr $C$DW$47, DW_AT_decl_column(0x1c)

	.global	Ud_ant
	.data
	.align	4
	.elfsym	Ud_ant,SYM_SIZE(4)
Ud_ant:
	.word	000000000h	; Ud_ant @ 0 (0)

$C$DW$48	.dwtag  DW_TAG_variable
	.dwattr $C$DW$48, DW_AT_name("Ud_ant")
	.dwattr $C$DW$48, DW_AT_TI_symbol_name("Ud_ant")
	.dwattr $C$DW$48, DW_AT_location[DW_OP_addr Ud_ant]
	.dwattr $C$DW$48, DW_AT_type(*$C$DW$T$16)
	.dwattr $C$DW$48, DW_AT_external
	.dwattr $C$DW$48, DW_AT_decl_file("../MAIN.c")
	.dwattr $C$DW$48, DW_AT_decl_line(0x44)
	.dwattr $C$DW$48, DW_AT_decl_column(0x07)

	.global	Ud
	.data
	.align	4
	.elfsym	Ud,SYM_SIZE(4)
Ud:
	.word	000000000h	; Ud @ 0 (0)

$C$DW$49	.dwtag  DW_TAG_variable
	.dwattr $C$DW$49, DW_AT_name("Ud")
	.dwattr $C$DW$49, DW_AT_TI_symbol_name("Ud")
	.dwattr $C$DW$49, DW_AT_location[DW_OP_addr Ud]
	.dwattr $C$DW$49, DW_AT_type(*$C$DW$T$16)
	.dwattr $C$DW$49, DW_AT_external
	.dwattr $C$DW$49, DW_AT_decl_file("../MAIN.c")
	.dwattr $C$DW$49, DW_AT_decl_line(0x44)
	.dwattr $C$DW$49, DW_AT_decl_column(0x11)

	.global	Ui
	.data
	.align	4
	.elfsym	Ui,SYM_SIZE(4)
Ui:
	.word	000000000h	; Ui @ 0 (0)

$C$DW$50	.dwtag  DW_TAG_variable
	.dwattr $C$DW$50, DW_AT_name("Ui")
	.dwattr $C$DW$50, DW_AT_TI_symbol_name("Ui")
	.dwattr $C$DW$50, DW_AT_location[DW_OP_addr Ui]
	.dwattr $C$DW$50, DW_AT_type(*$C$DW$T$16)
	.dwattr $C$DW$50, DW_AT_external
	.dwattr $C$DW$50, DW_AT_decl_file("../MAIN.c")
	.dwattr $C$DW$50, DW_AT_decl_line(0x44)
	.dwattr $C$DW$50, DW_AT_decl_column(0x17)

	.global	Ui_ant
	.data
	.align	4
	.elfsym	Ui_ant,SYM_SIZE(4)
Ui_ant:
	.word	000000000h	; Ui_ant @ 0 (0)

$C$DW$51	.dwtag  DW_TAG_variable
	.dwattr $C$DW$51, DW_AT_name("Ui_ant")
	.dwattr $C$DW$51, DW_AT_TI_symbol_name("Ui_ant")
	.dwattr $C$DW$51, DW_AT_location[DW_OP_addr Ui_ant]
	.dwattr $C$DW$51, DW_AT_type(*$C$DW$T$16)
	.dwattr $C$DW$51, DW_AT_external
	.dwattr $C$DW$51, DW_AT_decl_file("../MAIN.c")
	.dwattr $C$DW$51, DW_AT_decl_line(0x44)
	.dwattr $C$DW$51, DW_AT_decl_column(0x1d)

	.global	angulo1_ant
	.data
	.align	4
	.elfsym	angulo1_ant,SYM_SIZE(4)
angulo1_ant:
	.word	000000000h	; angulo1_ant @ 0 (0)

$C$DW$52	.dwtag  DW_TAG_variable
	.dwattr $C$DW$52, DW_AT_name("angulo1_ant")
	.dwattr $C$DW$52, DW_AT_TI_symbol_name("angulo1_ant")
	.dwattr $C$DW$52, DW_AT_location[DW_OP_addr angulo1_ant]
	.dwattr $C$DW$52, DW_AT_type(*$C$DW$T$16)
	.dwattr $C$DW$52, DW_AT_external
	.dwattr $C$DW$52, DW_AT_decl_file("../MAIN.c")
	.dwattr $C$DW$52, DW_AT_decl_line(0x44)
	.dwattr $C$DW$52, DW_AT_decl_column(0x27)

	.global	Up
	.data
	.align	4
	.elfsym	Up,SYM_SIZE(4)
Up:
	.word	000000000h	; Up @ 0 (0)

$C$DW$53	.dwtag  DW_TAG_variable
	.dwattr $C$DW$53, DW_AT_name("Up")
	.dwattr $C$DW$53, DW_AT_TI_symbol_name("Up")
	.dwattr $C$DW$53, DW_AT_location[DW_OP_addr Up]
	.dwattr $C$DW$53, DW_AT_type(*$C$DW$T$16)
	.dwattr $C$DW$53, DW_AT_external
	.dwattr $C$DW$53, DW_AT_decl_file("../MAIN.c")
	.dwattr $C$DW$53, DW_AT_decl_line(0x44)
	.dwattr $C$DW$53, DW_AT_decl_column(0x36)

	.global	angulo1
	.data
	.align	4
	.elfsym	angulo1,SYM_SIZE(4)
angulo1:
	.word	000000000h	; angulo1 @ 0 (0)

$C$DW$54	.dwtag  DW_TAG_variable
	.dwattr $C$DW$54, DW_AT_name("angulo1")
	.dwattr $C$DW$54, DW_AT_TI_symbol_name("angulo1")
	.dwattr $C$DW$54, DW_AT_location[DW_OP_addr angulo1]
	.dwattr $C$DW$54, DW_AT_type(*$C$DW$T$16)
	.dwattr $C$DW$54, DW_AT_external
	.dwattr $C$DW$54, DW_AT_decl_file("../MAIN.c")
	.dwattr $C$DW$54, DW_AT_decl_line(0x44)
	.dwattr $C$DW$54, DW_AT_decl_column(0x3c)

	.global	erro
	.data
	.align	4
	.elfsym	erro,SYM_SIZE(4)
erro:
	.word	000000000h	; erro @ 0 (0)

$C$DW$55	.dwtag  DW_TAG_variable
	.dwattr $C$DW$55, DW_AT_name("erro")
	.dwattr $C$DW$55, DW_AT_TI_symbol_name("erro")
	.dwattr $C$DW$55, DW_AT_location[DW_OP_addr erro]
	.dwattr $C$DW$55, DW_AT_type(*$C$DW$T$16)
	.dwattr $C$DW$55, DW_AT_external
	.dwattr $C$DW$55, DW_AT_decl_file("../MAIN.c")
	.dwattr $C$DW$55, DW_AT_decl_line(0x44)
	.dwattr $C$DW$55, DW_AT_decl_column(0x47)

	.global	erro_ant
	.data
	.align	4
	.elfsym	erro_ant,SYM_SIZE(4)
erro_ant:
	.word	000000000h	; erro_ant @ 0 (0)

$C$DW$56	.dwtag  DW_TAG_variable
	.dwattr $C$DW$56, DW_AT_name("erro_ant")
	.dwattr $C$DW$56, DW_AT_TI_symbol_name("erro_ant")
	.dwattr $C$DW$56, DW_AT_location[DW_OP_addr erro_ant]
	.dwattr $C$DW$56, DW_AT_type(*$C$DW$T$16)
	.dwattr $C$DW$56, DW_AT_external
	.dwattr $C$DW$56, DW_AT_decl_file("../MAIN.c")
	.dwattr $C$DW$56, DW_AT_decl_line(0x44)
	.dwattr $C$DW$56, DW_AT_decl_column(0x4f)

	.global	angulo1_ant_2
	.data
	.align	4
	.elfsym	angulo1_ant_2,SYM_SIZE(4)
angulo1_ant_2:
	.word	000000000h	; angulo1_ant_2 @ 0 (0)

$C$DW$57	.dwtag  DW_TAG_variable
	.dwattr $C$DW$57, DW_AT_name("angulo1_ant_2")
	.dwattr $C$DW$57, DW_AT_TI_symbol_name("angulo1_ant_2")
	.dwattr $C$DW$57, DW_AT_location[DW_OP_addr angulo1_ant_2]
	.dwattr $C$DW$57, DW_AT_type(*$C$DW$T$16)
	.dwattr $C$DW$57, DW_AT_external
	.dwattr $C$DW$57, DW_AT_decl_file("../MAIN.c")
	.dwattr $C$DW$57, DW_AT_decl_line(0x44)
	.dwattr $C$DW$57, DW_AT_decl_column(0x5a)

	.global	e_filtro
	.data
	.align	4
	.elfsym	e_filtro,SYM_SIZE(4)
e_filtro:
	.word	000000000h	; e_filtro @ 0 (0)

$C$DW$58	.dwtag  DW_TAG_variable
	.dwattr $C$DW$58, DW_AT_name("e_filtro")
	.dwattr $C$DW$58, DW_AT_TI_symbol_name("e_filtro")
	.dwattr $C$DW$58, DW_AT_location[DW_OP_addr e_filtro]
	.dwattr $C$DW$58, DW_AT_type(*$C$DW$T$16)
	.dwattr $C$DW$58, DW_AT_external
	.dwattr $C$DW$58, DW_AT_decl_file("../MAIN.c")
	.dwattr $C$DW$58, DW_AT_decl_line(0x44)
	.dwattr $C$DW$58, DW_AT_decl_column(0x6b)

	.global	u_filtro
	.data
	.align	4
	.elfsym	u_filtro,SYM_SIZE(4)
u_filtro:
	.word	000000000h	; u_filtro @ 0 (0)

$C$DW$59	.dwtag  DW_TAG_variable
	.dwattr $C$DW$59, DW_AT_name("u_filtro")
	.dwattr $C$DW$59, DW_AT_TI_symbol_name("u_filtro")
	.dwattr $C$DW$59, DW_AT_location[DW_OP_addr u_filtro]
	.dwattr $C$DW$59, DW_AT_type(*$C$DW$T$16)
	.dwattr $C$DW$59, DW_AT_external
	.dwattr $C$DW$59, DW_AT_decl_file("../MAIN.c")
	.dwattr $C$DW$59, DW_AT_decl_line(0x44)
	.dwattr $C$DW$59, DW_AT_decl_column(0x77)

	.global	u_filtro_ant
	.data
	.align	4
	.elfsym	u_filtro_ant,SYM_SIZE(4)
u_filtro_ant:
	.word	000000000h	; u_filtro_ant @ 0 (0)

$C$DW$60	.dwtag  DW_TAG_variable
	.dwattr $C$DW$60, DW_AT_name("u_filtro_ant")
	.dwattr $C$DW$60, DW_AT_TI_symbol_name("u_filtro_ant")
	.dwattr $C$DW$60, DW_AT_location[DW_OP_addr u_filtro_ant]
	.dwattr $C$DW$60, DW_AT_type(*$C$DW$T$16)
	.dwattr $C$DW$60, DW_AT_external
	.dwattr $C$DW$60, DW_AT_decl_file("../MAIN.c")
	.dwattr $C$DW$60, DW_AT_decl_line(0x44)
	.dwattr $C$DW$60, DW_AT_decl_column(0x83)

	.global	e_filtro_ant
	.data
	.align	4
	.elfsym	e_filtro_ant,SYM_SIZE(4)
e_filtro_ant:
	.word	000000000h	; e_filtro_ant @ 0 (0)

$C$DW$61	.dwtag  DW_TAG_variable
	.dwattr $C$DW$61, DW_AT_name("e_filtro_ant")
	.dwattr $C$DW$61, DW_AT_TI_symbol_name("e_filtro_ant")
	.dwattr $C$DW$61, DW_AT_location[DW_OP_addr e_filtro_ant]
	.dwattr $C$DW$61, DW_AT_type(*$C$DW$T$16)
	.dwattr $C$DW$61, DW_AT_external
	.dwattr $C$DW$61, DW_AT_decl_file("../MAIN.c")
	.dwattr $C$DW$61, DW_AT_decl_line(0x44)
	.dwattr $C$DW$61, DW_AT_decl_column(0x93)

	.global	DUTY
	.data
	.align	4
	.elfsym	DUTY,SYM_SIZE(4)
DUTY:
	.word	042480000h	; DUTY @ 0 (50)

$C$DW$62	.dwtag  DW_TAG_variable
	.dwattr $C$DW$62, DW_AT_name("DUTY")
	.dwattr $C$DW$62, DW_AT_TI_symbol_name("DUTY")
	.dwattr $C$DW$62, DW_AT_location[DW_OP_addr DUTY]
	.dwattr $C$DW$62, DW_AT_type(*$C$DW$T$16)
	.dwattr $C$DW$62, DW_AT_external
	.dwattr $C$DW$62, DW_AT_decl_file("../MAIN.c")
	.dwattr $C$DW$62, DW_AT_decl_line(0x46)
	.dwattr $C$DW$62, DW_AT_decl_column(0x07)

	.global	Dado
	.data
	.align	4
	.elfsym	Dado,SYM_SIZE(4)
Dado:
	.word	000000000h	; Dado @ 0 (0)

$C$DW$63	.dwtag  DW_TAG_variable
	.dwattr $C$DW$63, DW_AT_name("Dado")
	.dwattr $C$DW$63, DW_AT_TI_symbol_name("Dado")
	.dwattr $C$DW$63, DW_AT_location[DW_OP_addr Dado]
	.dwattr $C$DW$63, DW_AT_type(*$C$DW$T$16)
	.dwattr $C$DW$63, DW_AT_external
	.dwattr $C$DW$63, DW_AT_decl_file("../MAIN.c")
	.dwattr $C$DW$63, DW_AT_decl_line(0x47)
	.dwattr $C$DW$63, DW_AT_decl_column(0x07)

	.global	FREQ_AD
	.data
	.align	4
	.elfsym	FREQ_AD,SYM_SIZE(4)
FREQ_AD:
	.bits		0x2710,32
			; FREQ_AD @ 0

$C$DW$64	.dwtag  DW_TAG_variable
	.dwattr $C$DW$64, DW_AT_name("FREQ_AD")
	.dwattr $C$DW$64, DW_AT_TI_symbol_name("FREQ_AD")
	.dwattr $C$DW$64, DW_AT_location[DW_OP_addr FREQ_AD]
	.dwattr $C$DW$64, DW_AT_type(*$C$DW$T$10)
	.dwattr $C$DW$64, DW_AT_external
	.dwattr $C$DW$64, DW_AT_decl_file("../MAIN.c")
	.dwattr $C$DW$64, DW_AT_decl_line(0x48)
	.dwattr $C$DW$64, DW_AT_decl_column(0x05)

	.global	FREQ_PWM
	.data
	.align	4
	.elfsym	FREQ_PWM,SYM_SIZE(4)
FREQ_PWM:
	.bits		0x4e20,32
			; FREQ_PWM @ 0

$C$DW$65	.dwtag  DW_TAG_variable
	.dwattr $C$DW$65, DW_AT_name("FREQ_PWM")
	.dwattr $C$DW$65, DW_AT_TI_symbol_name("FREQ_PWM")
	.dwattr $C$DW$65, DW_AT_location[DW_OP_addr FREQ_PWM]
	.dwattr $C$DW$65, DW_AT_type(*$C$DW$T$10)
	.dwattr $C$DW$65, DW_AT_external
	.dwattr $C$DW$65, DW_AT_decl_file("../MAIN.c")
	.dwattr $C$DW$65, DW_AT_decl_line(0x49)
	.dwattr $C$DW$65, DW_AT_decl_column(0x05)

	.global	ENEABLE
	.data
	.align	1
	.elfsym	ENEABLE,SYM_SIZE(1)
ENEABLE:
	.bits		0x1,8
			; ENEABLE @ 0

$C$DW$66	.dwtag  DW_TAG_variable
	.dwattr $C$DW$66, DW_AT_name("ENEABLE")
	.dwattr $C$DW$66, DW_AT_TI_symbol_name("ENEABLE")
	.dwattr $C$DW$66, DW_AT_location[DW_OP_addr ENEABLE]
	.dwattr $C$DW$66, DW_AT_type(*$C$DW$T$55)
	.dwattr $C$DW$66, DW_AT_external
	.dwattr $C$DW$66, DW_AT_decl_file("../MAIN.c")
	.dwattr $C$DW$66, DW_AT_decl_line(0x4a)
	.dwattr $C$DW$66, DW_AT_decl_column(0x09)

	.global	novas_constantes
	.data
	.align	1
	.elfsym	novas_constantes,SYM_SIZE(1)
novas_constantes:
	.bits		0,8
			; novas_constantes @ 0

$C$DW$67	.dwtag  DW_TAG_variable
	.dwattr $C$DW$67, DW_AT_name("novas_constantes")
	.dwattr $C$DW$67, DW_AT_TI_symbol_name("novas_constantes")
	.dwattr $C$DW$67, DW_AT_location[DW_OP_addr novas_constantes]
	.dwattr $C$DW$67, DW_AT_type(*$C$DW$T$55)
	.dwattr $C$DW$67, DW_AT_external
	.dwattr $C$DW$67, DW_AT_decl_file("../MAIN.c")
	.dwattr $C$DW$67, DW_AT_decl_line(0x4a)
	.dwattr $C$DW$67, DW_AT_decl_column(0x14)

	.global	Ts
	.data
	.align	4
	.elfsym	Ts,SYM_SIZE(4)
Ts:
	.word	038d1b717h	; Ts @ 0 (0.00009999999747378752)

$C$DW$68	.dwtag  DW_TAG_variable
	.dwattr $C$DW$68, DW_AT_name("Ts")
	.dwattr $C$DW$68, DW_AT_TI_symbol_name("Ts")
	.dwattr $C$DW$68, DW_AT_location[DW_OP_addr Ts]
	.dwattr $C$DW$68, DW_AT_type(*$C$DW$T$16)
	.dwattr $C$DW$68, DW_AT_external
	.dwattr $C$DW$68, DW_AT_decl_file("../MAIN.c")
	.dwattr $C$DW$68, DW_AT_decl_line(0x4b)
	.dwattr $C$DW$68, DW_AT_decl_column(0x07)

	.global	digit_to_binary
	.sect	".const:.string:digit_to_binary"
	.align	1
	.elfsym	digit_to_binary,SYM_SIZE(12)
digit_to_binary:
	.bits		0,8
			; digit_to_binary[0] @ 0
	.bits		0x1,8
			; digit_to_binary[1] @ 8
	.bits		0x2,8
			; digit_to_binary[2] @ 16
	.bits		0x3,8
			; digit_to_binary[3] @ 24
	.bits		0x4,8
			; digit_to_binary[4] @ 32
	.bits		0x5,8
			; digit_to_binary[5] @ 40
	.bits		0x6,8
			; digit_to_binary[6] @ 48
	.bits		0x7,8
			; digit_to_binary[7] @ 56
	.bits		0x8,8
			; digit_to_binary[8] @ 64
	.bits		0x9,8
			; digit_to_binary[9] @ 72

$C$DW$69	.dwtag  DW_TAG_variable
	.dwattr $C$DW$69, DW_AT_name("digit_to_binary")
	.dwattr $C$DW$69, DW_AT_TI_symbol_name("digit_to_binary")
	.dwattr $C$DW$69, DW_AT_location[DW_OP_addr digit_to_binary]
	.dwattr $C$DW$69, DW_AT_type(*$C$DW$T$59)
	.dwattr $C$DW$69, DW_AT_external
	.dwattr $C$DW$69, DW_AT_decl_file("../MAIN.c")
	.dwattr $C$DW$69, DW_AT_decl_line(0x63)
	.dwattr $C$DW$69, DW_AT_decl_column(0x0f)


$C$DW$70	.dwtag  DW_TAG_subprogram
	.dwattr $C$DW$70, DW_AT_name("StartCritical")
	.dwattr $C$DW$70, DW_AT_TI_symbol_name("StartCritical")
	.dwattr $C$DW$70, DW_AT_declaration
	.dwattr $C$DW$70, DW_AT_external
	.dwattr $C$DW$70, DW_AT_decl_file("../MAIN.c")
	.dwattr $C$DW$70, DW_AT_decl_line(0x54)
	.dwattr $C$DW$70, DW_AT_decl_column(0x06)
	.dwendtag $C$DW$70


$C$DW$71	.dwtag  DW_TAG_subprogram
	.dwattr $C$DW$71, DW_AT_name("EnableInterrupts")
	.dwattr $C$DW$71, DW_AT_TI_symbol_name("EnableInterrupts")
	.dwattr $C$DW$71, DW_AT_declaration
	.dwattr $C$DW$71, DW_AT_external
	.dwattr $C$DW$71, DW_AT_decl_file("../MAIN.c")
	.dwattr $C$DW$71, DW_AT_decl_line(0x56)
	.dwattr $C$DW$71, DW_AT_decl_column(0x06)
	.dwendtag $C$DW$71


$C$DW$72	.dwtag  DW_TAG_subprogram
	.dwattr $C$DW$72, DW_AT_name("EndCritical")
	.dwattr $C$DW$72, DW_AT_TI_symbol_name("EndCritical")
	.dwattr $C$DW$72, DW_AT_declaration
	.dwattr $C$DW$72, DW_AT_external
	.dwattr $C$DW$72, DW_AT_decl_file("../MAIN.c")
	.dwattr $C$DW$72, DW_AT_decl_line(0x55)
	.dwattr $C$DW$72, DW_AT_decl_column(0x06)
	.dwendtag $C$DW$72


$C$DW$73	.dwtag  DW_TAG_subprogram
	.dwattr $C$DW$73, DW_AT_name("UART_InChar")
	.dwattr $C$DW$73, DW_AT_TI_symbol_name("UART_InChar")
	.dwattr $C$DW$73, DW_AT_type(*$C$DW$T$6)
	.dwattr $C$DW$73, DW_AT_declaration
	.dwattr $C$DW$73, DW_AT_external
	.dwattr $C$DW$73, DW_AT_decl_file("..\UART.h")
	.dwattr $C$DW$73, DW_AT_decl_line(0x30)
	.dwattr $C$DW$73, DW_AT_decl_column(0x06)
	.dwendtag $C$DW$73

	.data
	.align	1
	.elfsym	current_digit$1,SYM_SIZE(1)
current_digit$1:
	.bits		0,8
			; current_digit$1 @ 0

;	C:\ti\ccs1230\ccs\tools\compiler\ti-cgt-arm_20.2.7.LTS\bin\armacpia.exe -@C:\\Users\\dimit\\AppData\\Local\\Temp\\{194EEB6A-FB5C-4FC0-9548-46F8F4B65BFD} 
	.sect	".text:__isfinite"
	.clink
	.thumbfunc __isfinite
	.thumb
	.global	__isfinite

$C$DW$74	.dwtag  DW_TAG_subprogram
	.dwattr $C$DW$74, DW_AT_name("__isfinite")
	.dwattr $C$DW$74, DW_AT_low_pc(__isfinite)
	.dwattr $C$DW$74, DW_AT_high_pc(0x00)
	.dwattr $C$DW$74, DW_AT_TI_symbol_name("__isfinite")
	.dwattr $C$DW$74, DW_AT_external
	.dwattr $C$DW$74, DW_AT_type(*$C$DW$T$10)
	.dwattr $C$DW$74, DW_AT_TI_begin_file("C:/ti/ccs1230/ccs/tools/compiler/ti-cgt-arm_20.2.7.LTS/include/_defs.h")
	.dwattr $C$DW$74, DW_AT_TI_begin_line(0x14e)
	.dwattr $C$DW$74, DW_AT_TI_begin_column(0x25)
	.dwattr $C$DW$74, DW_AT_decl_file("C:/ti/ccs1230/ccs/tools/compiler/ti-cgt-arm_20.2.7.LTS/include/_defs.h")
	.dwattr $C$DW$74, DW_AT_decl_line(0x14e)
	.dwattr $C$DW$74, DW_AT_decl_column(0x25)
	.dwattr $C$DW$74, DW_AT_TI_max_frame_size(0x10)
	.dwpsn	file "C:/ti/ccs1230/ccs/tools/compiler/ti-cgt-arm_20.2.7.LTS/include/_defs.h",line 335,column 1,is_stmt,address __isfinite,isa 1

	.dwfde $C$DW$CIE, __isfinite
$C$DW$75	.dwtag  DW_TAG_formal_parameter
	.dwattr $C$DW$75, DW_AT_name("d")
	.dwattr $C$DW$75, DW_AT_TI_symbol_name("d")
	.dwattr $C$DW$75, DW_AT_type(*$C$DW$T$17)
	.dwattr $C$DW$75, DW_AT_location[DW_OP_regx 0x40]

;----------------------------------------------------------------------
; 334 | _CODE_ACCESS _INLINE_DEFINITION int __isfinite(double d)               
;----------------------------------------------------------------------

;*****************************************************************************
;* FUNCTION NAME: __isfinite                                                 *
;*                                                                           *
;*   Regs Modified     : A1,A2,A3,A4,V4,SP,SR                                *
;*   Regs Used         : A1,A2,A3,A4,V4,SP,LR,SR,D0,D0_hi                    *
;*   Local Frame Size  : 0 Args + 8 Auto + 8 Save = 16 byte                  *
;*****************************************************************************
__isfinite:
;* --------------------------------------------------------------------------*
	.dwcfi	cfa_offset, 0
        PUSH      {A3, A4, V4, LR}      ; [DPU_V7M3_PIPE] 
	.dwcfi	cfa_offset, 16
	.dwcfi	save_reg_to_mem, 14, -4
	.dwcfi	save_reg_to_mem, 7, -8
	.dwcfi	save_reg_to_mem, 3, -12
	.dwcfi	save_reg_to_mem, 2, -16
$C$DW$76	.dwtag  DW_TAG_variable
	.dwattr $C$DW$76, DW_AT_name("d")
	.dwattr $C$DW$76, DW_AT_TI_symbol_name("d")
	.dwattr $C$DW$76, DW_AT_type(*$C$DW$T$17)
	.dwattr $C$DW$76, DW_AT_location[DW_OP_breg13 0]

;----------------------------------------------------------------------
; 335 | { return __DOUBLE_BIASED_EXP_IS_MAX(d) == 0; }                         
;----------------------------------------------------------------------
        VMOV      A1,A2, D0             ; [DPU_MERLIN_PIPE] |335| 
        STMIA     SP, {A1,A2}           ; [DPU_V7M3_PIPE] |335| 
	.dwpsn	file "C:/ti/ccs1230/ccs/tools/compiler/ti-cgt-arm_20.2.7.LTS/include/_defs.h",line 335,column 3,is_stmt,isa 1
        LDMIA     SP, {A2,A3}           ; [DPU_V7M3_PIPE] |335| 
        MOVS      V4, #0                ; [DPU_V7M3_PIPE] |335| 
        MOVS      A1, #0                ; [DPU_V7M3_PIPE] |335| 
        MOV       A2, A3                ; [DPU_V7M3_PIPE] |335| 
        LSLS      A3, A2, #0            ; [DPU_V7M3_PIPE] |335| 
        MOVS      A2, #0                ; [DPU_V7M3_PIPE] |335| 
        ORRS      A2, A2, A3            ; [DPU_V7M3_PIPE] |335| 
        LSRS      A3, A2, #16           ; [DPU_V7M3_PIPE] |335| 
        MOV       A2, #32752            ; [DPU_V7M3_PIPE] |335| 
        ANDS      A2, A2, A3            ; [DPU_V7M3_PIPE] |335| 
        MOV       A3, #32752            ; [DPU_V7M3_PIPE] |335| 
        CMP       A3, A2                ; [DPU_V7M3_PIPE] |335| 
        BNE       ||$C$L1||             ; [DPU_V7M3_PIPE] |335| 
        ; BRANCHCC OCCURS {||$C$L1||}    ; [] |335| 
;* --------------------------------------------------------------------------*
        MOVS      V4, #1                ; [DPU_V7M3_PIPE] |335| 
;* --------------------------------------------------------------------------*
||$C$L1||:    
        CBNZ      V4, ||$C$L2||         ; [] 
        ; BRANCHCC OCCURS {||$C$L2||}    ; [] |335| 
;* --------------------------------------------------------------------------*
        MOVS      A1, #1                ; [DPU_V7M3_PIPE] |335| 
;* --------------------------------------------------------------------------*
||$C$L2||:    
	.dwpsn	file "C:/ti/ccs1230/ccs/tools/compiler/ti-cgt-arm_20.2.7.LTS/include/_defs.h",line 335,column 46,is_stmt,isa 1
$C$DW$77	.dwtag  DW_TAG_TI_branch
	.dwattr $C$DW$77, DW_AT_low_pc(0x00)
	.dwattr $C$DW$77, DW_AT_TI_return

        POP       {A3, A4, V4, PC}      ; [DPU_V7M3_PIPE] 
	.dwcfi	cfa_offset, 0
	.dwcfi	restore_reg, 7
	.dwcfi	restore_reg, 3
	.dwcfi	restore_reg, 2
        ; BRANCH OCCURS                  ; [] 
	.dwattr $C$DW$74, DW_AT_TI_end_file("C:/ti/ccs1230/ccs/tools/compiler/ti-cgt-arm_20.2.7.LTS/include/_defs.h")
	.dwattr $C$DW$74, DW_AT_TI_end_line(0x14f)
	.dwattr $C$DW$74, DW_AT_TI_end_column(0x2e)
	.dwendentry
	.dwendtag $C$DW$74

	.sect	".text:__isfinitef"
	.clink
	.thumbfunc __isfinitef
	.thumb
	.global	__isfinitef

$C$DW$78	.dwtag  DW_TAG_subprogram
	.dwattr $C$DW$78, DW_AT_name("__isfinitef")
	.dwattr $C$DW$78, DW_AT_low_pc(__isfinitef)
	.dwattr $C$DW$78, DW_AT_high_pc(0x00)
	.dwattr $C$DW$78, DW_AT_TI_symbol_name("__isfinitef")
	.dwattr $C$DW$78, DW_AT_external
	.dwattr $C$DW$78, DW_AT_type(*$C$DW$T$10)
	.dwattr $C$DW$78, DW_AT_TI_begin_file("C:/ti/ccs1230/ccs/tools/compiler/ti-cgt-arm_20.2.7.LTS/include/_defs.h")
	.dwattr $C$DW$78, DW_AT_TI_begin_line(0x150)
	.dwattr $C$DW$78, DW_AT_TI_begin_column(0x25)
	.dwattr $C$DW$78, DW_AT_decl_file("C:/ti/ccs1230/ccs/tools/compiler/ti-cgt-arm_20.2.7.LTS/include/_defs.h")
	.dwattr $C$DW$78, DW_AT_decl_line(0x150)
	.dwattr $C$DW$78, DW_AT_decl_column(0x25)
	.dwattr $C$DW$78, DW_AT_TI_max_frame_size(0x08)
	.dwpsn	file "C:/ti/ccs1230/ccs/tools/compiler/ti-cgt-arm_20.2.7.LTS/include/_defs.h",line 337,column 1,is_stmt,address __isfinitef,isa 1

	.dwfde $C$DW$CIE, __isfinitef
$C$DW$79	.dwtag  DW_TAG_formal_parameter
	.dwattr $C$DW$79, DW_AT_name("f")
	.dwattr $C$DW$79, DW_AT_TI_symbol_name("f")
	.dwattr $C$DW$79, DW_AT_type(*$C$DW$T$16)
	.dwattr $C$DW$79, DW_AT_location[DW_OP_regx 0x40]

;----------------------------------------------------------------------
; 336 | _CODE_ACCESS _INLINE_DEFINITION int __isfinitef(float f)               
;----------------------------------------------------------------------

;*****************************************************************************
;* FUNCTION NAME: __isfinitef                                                *
;*                                                                           *
;*   Regs Modified     : A1,A2,A3,SP,SR                                      *
;*   Regs Used         : A1,A2,A3,SP,LR,SR,D0                                *
;*   Local Frame Size  : 0 Args + 4 Auto + 0 Save = 4 byte                   *
;*****************************************************************************
__isfinitef:
;* --------------------------------------------------------------------------*
	.dwcfi	cfa_offset, 0
        SUB       SP, SP, #8            ; [DPU_V7M3_PIPE] 
	.dwcfi	cfa_offset, 8
$C$DW$80	.dwtag  DW_TAG_variable
	.dwattr $C$DW$80, DW_AT_name("f")
	.dwattr $C$DW$80, DW_AT_TI_symbol_name("f")
	.dwattr $C$DW$80, DW_AT_type(*$C$DW$T$16)
	.dwattr $C$DW$80, DW_AT_location[DW_OP_breg13 0]

;----------------------------------------------------------------------
; 337 | { return __FLOAT_BIASED_EXP_IS_MAX(f) == 0; }                          
;----------------------------------------------------------------------
        VSTR.32   S0, [SP, #0]          ; [DPU_MERLIN_PIPE] |337| 
	.dwpsn	file "C:/ti/ccs1230/ccs/tools/compiler/ti-cgt-arm_20.2.7.LTS/include/_defs.h",line 337,column 3,is_stmt,isa 1
        LDR       A1, [SP, #0]          ; [DPU_V7M3_PIPE] |337| 
        MOVS      A2, #0                ; [DPU_V7M3_PIPE] |337| 
        LSRS      A1, A1, #16           ; [DPU_V7M3_PIPE] |337| 
        AND       A3, A1, #32640        ; [DPU_V7M3_PIPE] |337| 
        CMP       A3, #32640            ; [DPU_V7M3_PIPE] |337| 
        MOV       A1, #0                ; [DPU_V7M3_PIPE] |337| 
        BNE       ||$C$L3||             ; [DPU_V7M3_PIPE] |337| 
        ; BRANCHCC OCCURS {||$C$L3||}    ; [] |337| 
;* --------------------------------------------------------------------------*
        MOVS      A2, #1                ; [DPU_V7M3_PIPE] |337| 
;* --------------------------------------------------------------------------*
||$C$L3||:    
        CBNZ      A2, ||$C$L4||         ; [] 
        ; BRANCHCC OCCURS {||$C$L4||}    ; [] |337| 
;* --------------------------------------------------------------------------*
        MOVS      A1, #1                ; [DPU_V7M3_PIPE] |337| 
;* --------------------------------------------------------------------------*
||$C$L4||:    
	.dwpsn	file "C:/ti/ccs1230/ccs/tools/compiler/ti-cgt-arm_20.2.7.LTS/include/_defs.h",line 337,column 45,is_stmt,isa 1
        ADD       SP, SP, #8            ; [DPU_V7M3_PIPE] 
	.dwcfi	cfa_offset, 0
$C$DW$81	.dwtag  DW_TAG_TI_branch
	.dwattr $C$DW$81, DW_AT_low_pc(0x00)
	.dwattr $C$DW$81, DW_AT_TI_return

        BX        LR                    ; [DPU_V7M3_PIPE] 
        ; BRANCH OCCURS                  ; [] 
	.dwattr $C$DW$78, DW_AT_TI_end_file("C:/ti/ccs1230/ccs/tools/compiler/ti-cgt-arm_20.2.7.LTS/include/_defs.h")
	.dwattr $C$DW$78, DW_AT_TI_end_line(0x151)
	.dwattr $C$DW$78, DW_AT_TI_end_column(0x2d)
	.dwendentry
	.dwendtag $C$DW$78

	.sect	".text:__isfinitel"
	.clink
	.thumbfunc __isfinitel
	.thumb
	.global	__isfinitel

$C$DW$82	.dwtag  DW_TAG_subprogram
	.dwattr $C$DW$82, DW_AT_name("__isfinitel")
	.dwattr $C$DW$82, DW_AT_low_pc(__isfinitel)
	.dwattr $C$DW$82, DW_AT_high_pc(0x00)
	.dwattr $C$DW$82, DW_AT_TI_symbol_name("__isfinitel")
	.dwattr $C$DW$82, DW_AT_external
	.dwattr $C$DW$82, DW_AT_type(*$C$DW$T$10)
	.dwattr $C$DW$82, DW_AT_TI_begin_file("C:/ti/ccs1230/ccs/tools/compiler/ti-cgt-arm_20.2.7.LTS/include/_defs.h")
	.dwattr $C$DW$82, DW_AT_TI_begin_line(0x152)
	.dwattr $C$DW$82, DW_AT_TI_begin_column(0x25)
	.dwattr $C$DW$82, DW_AT_decl_file("C:/ti/ccs1230/ccs/tools/compiler/ti-cgt-arm_20.2.7.LTS/include/_defs.h")
	.dwattr $C$DW$82, DW_AT_decl_line(0x152)
	.dwattr $C$DW$82, DW_AT_decl_column(0x25)
	.dwattr $C$DW$82, DW_AT_TI_max_frame_size(0x10)
	.dwpsn	file "C:/ti/ccs1230/ccs/tools/compiler/ti-cgt-arm_20.2.7.LTS/include/_defs.h",line 339,column 1,is_stmt,address __isfinitel,isa 1

	.dwfde $C$DW$CIE, __isfinitel
$C$DW$83	.dwtag  DW_TAG_formal_parameter
	.dwattr $C$DW$83, DW_AT_name("e")
	.dwattr $C$DW$83, DW_AT_TI_symbol_name("e")
	.dwattr $C$DW$83, DW_AT_type(*$C$DW$T$18)
	.dwattr $C$DW$83, DW_AT_location[DW_OP_regx 0x40]

;----------------------------------------------------------------------
; 338 | _CODE_ACCESS _INLINE_DEFINITION int __isfinitel(long double e)         
;----------------------------------------------------------------------

;*****************************************************************************
;* FUNCTION NAME: __isfinitel                                                *
;*                                                                           *
;*   Regs Modified     : A1,A2,A3,A4,V4,SP,SR                                *
;*   Regs Used         : A1,A2,A3,A4,V4,SP,LR,SR,D0,D0_hi                    *
;*   Local Frame Size  : 0 Args + 8 Auto + 8 Save = 16 byte                  *
;*****************************************************************************
__isfinitel:
;* --------------------------------------------------------------------------*
	.dwcfi	cfa_offset, 0
        PUSH      {A3, A4, V4, LR}      ; [DPU_V7M3_PIPE] 
	.dwcfi	cfa_offset, 16
	.dwcfi	save_reg_to_mem, 14, -4
	.dwcfi	save_reg_to_mem, 7, -8
	.dwcfi	save_reg_to_mem, 3, -12
	.dwcfi	save_reg_to_mem, 2, -16
$C$DW$84	.dwtag  DW_TAG_variable
	.dwattr $C$DW$84, DW_AT_name("e")
	.dwattr $C$DW$84, DW_AT_TI_symbol_name("e")
	.dwattr $C$DW$84, DW_AT_type(*$C$DW$T$18)
	.dwattr $C$DW$84, DW_AT_location[DW_OP_breg13 0]

;----------------------------------------------------------------------
; 339 | { return __LDOUBLE_BIASED_EXP_IS_MAX(e) == 0; }                        
;----------------------------------------------------------------------
        VMOV      A1,A2, D0             ; [DPU_MERLIN_PIPE] |339| 
        STMIA     SP, {A1,A2}           ; [DPU_V7M3_PIPE] |339| 
	.dwpsn	file "C:/ti/ccs1230/ccs/tools/compiler/ti-cgt-arm_20.2.7.LTS/include/_defs.h",line 339,column 3,is_stmt,isa 1
        LDMIA     SP, {A2,A3}           ; [DPU_V7M3_PIPE] |339| 
        MOVS      V4, #0                ; [DPU_V7M3_PIPE] |339| 
        MOVS      A1, #0                ; [DPU_V7M3_PIPE] |339| 
        MOV       A2, A3                ; [DPU_V7M3_PIPE] |339| 
        LSLS      A3, A2, #0            ; [DPU_V7M3_PIPE] |339| 
        MOVS      A2, #0                ; [DPU_V7M3_PIPE] |339| 
        ORRS      A2, A2, A3            ; [DPU_V7M3_PIPE] |339| 
        LSRS      A3, A2, #16           ; [DPU_V7M3_PIPE] |339| 
        MOV       A2, #32752            ; [DPU_V7M3_PIPE] |339| 
        ANDS      A2, A2, A3            ; [DPU_V7M3_PIPE] |339| 
        MOV       A3, #32752            ; [DPU_V7M3_PIPE] |339| 
        CMP       A3, A2                ; [DPU_V7M3_PIPE] |339| 
        BNE       ||$C$L5||             ; [DPU_V7M3_PIPE] |339| 
        ; BRANCHCC OCCURS {||$C$L5||}    ; [] |339| 
;* --------------------------------------------------------------------------*
        MOVS      V4, #1                ; [DPU_V7M3_PIPE] |339| 
;* --------------------------------------------------------------------------*
||$C$L5||:    
        CBNZ      V4, ||$C$L6||         ; [] 
        ; BRANCHCC OCCURS {||$C$L6||}    ; [] |339| 
;* --------------------------------------------------------------------------*
        MOVS      A1, #1                ; [DPU_V7M3_PIPE] |339| 
;* --------------------------------------------------------------------------*
||$C$L6||:    
	.dwpsn	file "C:/ti/ccs1230/ccs/tools/compiler/ti-cgt-arm_20.2.7.LTS/include/_defs.h",line 339,column 47,is_stmt,isa 1
$C$DW$85	.dwtag  DW_TAG_TI_branch
	.dwattr $C$DW$85, DW_AT_low_pc(0x00)
	.dwattr $C$DW$85, DW_AT_TI_return

        POP       {A3, A4, V4, PC}      ; [DPU_V7M3_PIPE] 
	.dwcfi	cfa_offset, 0
	.dwcfi	restore_reg, 7
	.dwcfi	restore_reg, 3
	.dwcfi	restore_reg, 2
        ; BRANCH OCCURS                  ; [] 
	.dwattr $C$DW$82, DW_AT_TI_end_file("C:/ti/ccs1230/ccs/tools/compiler/ti-cgt-arm_20.2.7.LTS/include/_defs.h")
	.dwattr $C$DW$82, DW_AT_TI_end_line(0x153)
	.dwattr $C$DW$82, DW_AT_TI_end_column(0x2f)
	.dwendentry
	.dwendtag $C$DW$82

	.sect	".text:__isnan"
	.clink
	.thumbfunc __isnan
	.thumb
	.global	__isnan

$C$DW$86	.dwtag  DW_TAG_subprogram
	.dwattr $C$DW$86, DW_AT_name("__isnan")
	.dwattr $C$DW$86, DW_AT_low_pc(__isnan)
	.dwattr $C$DW$86, DW_AT_high_pc(0x00)
	.dwattr $C$DW$86, DW_AT_TI_symbol_name("__isnan")
	.dwattr $C$DW$86, DW_AT_external
	.dwattr $C$DW$86, DW_AT_type(*$C$DW$T$10)
	.dwattr $C$DW$86, DW_AT_TI_begin_file("C:/ti/ccs1230/ccs/tools/compiler/ti-cgt-arm_20.2.7.LTS/include/_defs.h")
	.dwattr $C$DW$86, DW_AT_TI_begin_line(0x155)
	.dwattr $C$DW$86, DW_AT_TI_begin_column(0x25)
	.dwattr $C$DW$86, DW_AT_decl_file("C:/ti/ccs1230/ccs/tools/compiler/ti-cgt-arm_20.2.7.LTS/include/_defs.h")
	.dwattr $C$DW$86, DW_AT_decl_line(0x155)
	.dwattr $C$DW$86, DW_AT_decl_column(0x25)
	.dwattr $C$DW$86, DW_AT_TI_max_frame_size(0x20)
	.dwpsn	file "C:/ti/ccs1230/ccs/tools/compiler/ti-cgt-arm_20.2.7.LTS/include/_defs.h",line 342,column 1,is_stmt,address __isnan,isa 1

	.dwfde $C$DW$CIE, __isnan
$C$DW$87	.dwtag  DW_TAG_formal_parameter
	.dwattr $C$DW$87, DW_AT_name("d")
	.dwattr $C$DW$87, DW_AT_TI_symbol_name("d")
	.dwattr $C$DW$87, DW_AT_type(*$C$DW$T$17)
	.dwattr $C$DW$87, DW_AT_location[DW_OP_regx 0x40]

;----------------------------------------------------------------------
; 341 | _CODE_ACCESS _INLINE_DEFINITION int __isnan(double d)                  
;----------------------------------------------------------------------

;*****************************************************************************
;* FUNCTION NAME: __isnan                                                    *
;*                                                                           *
;*   Regs Modified     : A1,A2,A3,A4,V1,V2,V3,V4,SP,SR                       *
;*   Regs Used         : A1,A2,A3,A4,V1,V2,V3,V4,SP,LR,SR,D0,D0_hi           *
;*   Local Frame Size  : 0 Args + 8 Auto + 20 Save = 28 byte                 *
;*****************************************************************************
__isnan:
;* --------------------------------------------------------------------------*
	.dwcfi	cfa_offset, 0
        PUSH      {A2, A3, A4, V1, V2, V3, V4, LR} ; [DPU_V7M3_PIPE] 
	.dwcfi	cfa_offset, 32
	.dwcfi	save_reg_to_mem, 14, -4
	.dwcfi	save_reg_to_mem, 7, -8
	.dwcfi	save_reg_to_mem, 6, -12
	.dwcfi	save_reg_to_mem, 5, -16
	.dwcfi	save_reg_to_mem, 4, -20
	.dwcfi	save_reg_to_mem, 3, -24
	.dwcfi	save_reg_to_mem, 2, -28
	.dwcfi	save_reg_to_mem, 1, -32
$C$DW$88	.dwtag  DW_TAG_variable
	.dwattr $C$DW$88, DW_AT_name("d")
	.dwattr $C$DW$88, DW_AT_TI_symbol_name("d")
	.dwattr $C$DW$88, DW_AT_type(*$C$DW$T$17)
	.dwattr $C$DW$88, DW_AT_location[DW_OP_breg13 0]

;----------------------------------------------------------------------
; 342 | { return __DOUBLE_BIASED_EXP_IS_MAX(d) &&                              
;----------------------------------------------------------------------
        VMOV      A1,A2, D0             ; [DPU_MERLIN_PIPE] |342| 
        STMIA     SP, {A1,A2}           ; [DPU_V7M3_PIPE] |342| 
	.dwpsn	file "C:/ti/ccs1230/ccs/tools/compiler/ti-cgt-arm_20.2.7.LTS/include/_defs.h",line 342,column 3,is_stmt,isa 1
        LDMIA     SP, {A2,A3}           ; [DPU_V7M3_PIPE] |342| 
        MOVS      A1, #0                ; [DPU_V7M3_PIPE] |342| 
        MOV       A2, A3                ; [DPU_V7M3_PIPE] |342| 
        LSLS      A3, A2, #0            ; [DPU_V7M3_PIPE] |342| 
        MOVS      A2, #0                ; [DPU_V7M3_PIPE] |342| 
        ORRS      A2, A2, A3            ; [DPU_V7M3_PIPE] |342| 
        LSRS      A3, A2, #16           ; [DPU_V7M3_PIPE] |342| 
        MOV       A2, #32752            ; [DPU_V7M3_PIPE] |342| 
        ANDS      A2, A2, A3            ; [DPU_V7M3_PIPE] |342| 
        MOV       A3, #32752            ; [DPU_V7M3_PIPE] |342| 
        CMP       A3, A2                ; [DPU_V7M3_PIPE] |342| 
        BNE       ||$C$L9||             ; [DPU_V7M3_PIPE] |342| 
        ; BRANCHCC OCCURS {||$C$L9||}    ; [] |342| 
;* --------------------------------------------------------------------------*
        LDMIA     SP, {A2,A3}           ; [DPU_V7M3_PIPE] |342| 
        LDR       V3, $C$CON1           ; [DPU_V7M3_PIPE] |342| 
        MOV       A2, A3                ; [DPU_V7M3_PIPE] |342| 
        LDMIA     SP, {A3,A4}           ; [DPU_V7M3_PIPE] |342| 
        MOVS      V2, #0                ; [DPU_V7M3_PIPE] |342| 
        LSLS      V1, A2, #0            ; [DPU_V7M3_PIPE] |342| 
        MOVS      V4, #0                ; [DPU_V7M3_PIPE] |342| 
        MOVS      A2, #0                ; [DPU_V7M3_PIPE] |342| 
        MOV       A4, #-1               ; [DPU_V7M3_PIPE] |342| 
        ORRS      A3, A3, V2            ; [DPU_V7M3_PIPE] |342| 
        ORRS      A2, A2, V1            ; [DPU_V7M3_PIPE] |342| 
        ANDS      A4, A4, A3            ; [DPU_V7M3_PIPE] |342| 
        ANDS      V3, V3, A2            ; [DPU_V7M3_PIPE] |342| 
        BNE       ||$C$L7||             ; [DPU_V7M3_PIPE] |342| 
        ; BRANCHCC OCCURS {||$C$L7||}    ; [] |342| 
;* --------------------------------------------------------------------------*
        CMP       A4, #0                ; [DPU_V7M3_PIPE] |342| 
;* --------------------------------------------------------------------------*
||$C$L7||:    
        BNE       ||$C$L8||             ; [DPU_V7M3_PIPE] |342| 
        ; BRANCHCC OCCURS {||$C$L8||}    ; [] |342| 
;* --------------------------------------------------------------------------*
        MOVS      V4, #1                ; [DPU_V7M3_PIPE] |342| 
;* --------------------------------------------------------------------------*
||$C$L8||:    
        CBNZ      V4, ||$C$L9||         ; [] 
        ; BRANCHCC OCCURS {||$C$L9||}    ; [] |342| 
;* --------------------------------------------------------------------------*
        MOVS      A1, #1                ; [DPU_V7M3_PIPE] |342| 
;* --------------------------------------------------------------------------*
||$C$L9||:    
	.dwpsn	file "C:/ti/ccs1230/ccs/tools/compiler/ti-cgt-arm_20.2.7.LTS/include/_defs.h",line 343,column 47,is_stmt,isa 1
;----------------------------------------------------------------------
; 343 | (__DOUBLE_FRAC_PART_IS_ZERO(d) == 0); }                                
;----------------------------------------------------------------------
$C$DW$89	.dwtag  DW_TAG_TI_branch
	.dwattr $C$DW$89, DW_AT_low_pc(0x00)
	.dwattr $C$DW$89, DW_AT_TI_return

        POP       {A2, A3, A4, V1, V2, V3, V4, PC} ; [DPU_V7M3_PIPE] 
	.dwcfi	cfa_offset, 0
	.dwcfi	restore_reg, 7
	.dwcfi	restore_reg, 6
	.dwcfi	restore_reg, 5
	.dwcfi	restore_reg, 4
	.dwcfi	restore_reg, 3
	.dwcfi	restore_reg, 2
	.dwcfi	restore_reg, 1
        ; BRANCH OCCURS                  ; [] 
	.dwattr $C$DW$86, DW_AT_TI_end_file("C:/ti/ccs1230/ccs/tools/compiler/ti-cgt-arm_20.2.7.LTS/include/_defs.h")
	.dwattr $C$DW$86, DW_AT_TI_end_line(0x157)
	.dwattr $C$DW$86, DW_AT_TI_end_column(0x2f)
	.dwendentry
	.dwendtag $C$DW$86

	.sect	".text:__isnanf"
	.clink
	.thumbfunc __isnanf
	.thumb
	.global	__isnanf

$C$DW$90	.dwtag  DW_TAG_subprogram
	.dwattr $C$DW$90, DW_AT_name("__isnanf")
	.dwattr $C$DW$90, DW_AT_low_pc(__isnanf)
	.dwattr $C$DW$90, DW_AT_high_pc(0x00)
	.dwattr $C$DW$90, DW_AT_TI_symbol_name("__isnanf")
	.dwattr $C$DW$90, DW_AT_external
	.dwattr $C$DW$90, DW_AT_type(*$C$DW$T$10)
	.dwattr $C$DW$90, DW_AT_TI_begin_file("C:/ti/ccs1230/ccs/tools/compiler/ti-cgt-arm_20.2.7.LTS/include/_defs.h")
	.dwattr $C$DW$90, DW_AT_TI_begin_line(0x158)
	.dwattr $C$DW$90, DW_AT_TI_begin_column(0x25)
	.dwattr $C$DW$90, DW_AT_decl_file("C:/ti/ccs1230/ccs/tools/compiler/ti-cgt-arm_20.2.7.LTS/include/_defs.h")
	.dwattr $C$DW$90, DW_AT_decl_line(0x158)
	.dwattr $C$DW$90, DW_AT_decl_column(0x25)
	.dwattr $C$DW$90, DW_AT_TI_max_frame_size(0x08)
	.dwpsn	file "C:/ti/ccs1230/ccs/tools/compiler/ti-cgt-arm_20.2.7.LTS/include/_defs.h",line 345,column 1,is_stmt,address __isnanf,isa 1

	.dwfde $C$DW$CIE, __isnanf
$C$DW$91	.dwtag  DW_TAG_formal_parameter
	.dwattr $C$DW$91, DW_AT_name("f")
	.dwattr $C$DW$91, DW_AT_TI_symbol_name("f")
	.dwattr $C$DW$91, DW_AT_type(*$C$DW$T$16)
	.dwattr $C$DW$91, DW_AT_location[DW_OP_regx 0x40]

;----------------------------------------------------------------------
; 344 | _CODE_ACCESS _INLINE_DEFINITION int __isnanf(float f)                  
;----------------------------------------------------------------------

;*****************************************************************************
;* FUNCTION NAME: __isnanf                                                   *
;*                                                                           *
;*   Regs Modified     : A1,A2,A3,SP,SR                                      *
;*   Regs Used         : A1,A2,A3,SP,LR,SR,D0                                *
;*   Local Frame Size  : 0 Args + 4 Auto + 0 Save = 4 byte                   *
;*****************************************************************************
__isnanf:
;* --------------------------------------------------------------------------*
	.dwcfi	cfa_offset, 0
        SUB       SP, SP, #8            ; [DPU_V7M3_PIPE] 
	.dwcfi	cfa_offset, 8
$C$DW$92	.dwtag  DW_TAG_variable
	.dwattr $C$DW$92, DW_AT_name("f")
	.dwattr $C$DW$92, DW_AT_TI_symbol_name("f")
	.dwattr $C$DW$92, DW_AT_type(*$C$DW$T$16)
	.dwattr $C$DW$92, DW_AT_location[DW_OP_breg13 0]

;----------------------------------------------------------------------
; 345 | { return __FLOAT_BIASED_EXP_IS_MAX(f) &&                               
;----------------------------------------------------------------------
        VSTR.32   S0, [SP, #0]          ; [DPU_MERLIN_PIPE] |345| 
	.dwpsn	file "C:/ti/ccs1230/ccs/tools/compiler/ti-cgt-arm_20.2.7.LTS/include/_defs.h",line 345,column 3,is_stmt,isa 1
        LDR       A1, [SP, #0]          ; [DPU_V7M3_PIPE] |345| 
        MOVS      A3, #0                ; [DPU_V7M3_PIPE] |345| 
        LSRS      A1, A1, #16           ; [DPU_V7M3_PIPE] |345| 
        AND       A1, A1, #32640        ; [DPU_V7M3_PIPE] |345| 
        CMP       A1, #32640            ; [DPU_V7M3_PIPE] |345| 
        BNE       ||$C$L11||            ; [DPU_V7M3_PIPE] |345| 
        ; BRANCHCC OCCURS {||$C$L11||}   ; [] |345| 
;* --------------------------------------------------------------------------*
        LDR       A1, [SP, #0]          ; [DPU_V7M3_PIPE] |345| 
        MOV       A2, A1                ; [DPU_V7M3_PIPE] |345| 
        BFC       A2, #23, #9           ; [DPU_V7M3_PIPE] |345| 
        MOVS      A1, #0                ; [DPU_V7M3_PIPE] |345| 
        CBNZ      A2, ||$C$L10||        ; [] 
        ; BRANCHCC OCCURS {||$C$L10||}   ; [] |345| 
;* --------------------------------------------------------------------------*
        MOVS      A1, #1                ; [DPU_V7M3_PIPE] |345| 
;* --------------------------------------------------------------------------*
||$C$L10||:    
        CBNZ      A1, ||$C$L11||        ; [] 
        ; BRANCHCC OCCURS {||$C$L11||}   ; [] |345| 
;* --------------------------------------------------------------------------*
        MOVS      A3, #1                ; [DPU_V7M3_PIPE] |345| 
;* --------------------------------------------------------------------------*
||$C$L11||:    
        MOV       A1, A3                ; [DPU_V7M3_PIPE] |345| 
	.dwpsn	file "C:/ti/ccs1230/ccs/tools/compiler/ti-cgt-arm_20.2.7.LTS/include/_defs.h",line 346,column 46,is_stmt,isa 1
;----------------------------------------------------------------------
; 346 | (__FLOAT_FRAC_PART_IS_ZERO(f) == 0); }                                 
;----------------------------------------------------------------------
        ADD       SP, SP, #8            ; [DPU_V7M3_PIPE] 
	.dwcfi	cfa_offset, 0
$C$DW$93	.dwtag  DW_TAG_TI_branch
	.dwattr $C$DW$93, DW_AT_low_pc(0x00)
	.dwattr $C$DW$93, DW_AT_TI_return

        BX        LR                    ; [DPU_V7M3_PIPE] 
        ; BRANCH OCCURS                  ; [] 
	.dwattr $C$DW$90, DW_AT_TI_end_file("C:/ti/ccs1230/ccs/tools/compiler/ti-cgt-arm_20.2.7.LTS/include/_defs.h")
	.dwattr $C$DW$90, DW_AT_TI_end_line(0x15a)
	.dwattr $C$DW$90, DW_AT_TI_end_column(0x2e)
	.dwendentry
	.dwendtag $C$DW$90

	.sect	".text:__isnanl"
	.clink
	.thumbfunc __isnanl
	.thumb
	.global	__isnanl

$C$DW$94	.dwtag  DW_TAG_subprogram
	.dwattr $C$DW$94, DW_AT_name("__isnanl")
	.dwattr $C$DW$94, DW_AT_low_pc(__isnanl)
	.dwattr $C$DW$94, DW_AT_high_pc(0x00)
	.dwattr $C$DW$94, DW_AT_TI_symbol_name("__isnanl")
	.dwattr $C$DW$94, DW_AT_external
	.dwattr $C$DW$94, DW_AT_type(*$C$DW$T$10)
	.dwattr $C$DW$94, DW_AT_TI_begin_file("C:/ti/ccs1230/ccs/tools/compiler/ti-cgt-arm_20.2.7.LTS/include/_defs.h")
	.dwattr $C$DW$94, DW_AT_TI_begin_line(0x15b)
	.dwattr $C$DW$94, DW_AT_TI_begin_column(0x25)
	.dwattr $C$DW$94, DW_AT_decl_file("C:/ti/ccs1230/ccs/tools/compiler/ti-cgt-arm_20.2.7.LTS/include/_defs.h")
	.dwattr $C$DW$94, DW_AT_decl_line(0x15b)
	.dwattr $C$DW$94, DW_AT_decl_column(0x25)
	.dwattr $C$DW$94, DW_AT_TI_max_frame_size(0x20)
	.dwpsn	file "C:/ti/ccs1230/ccs/tools/compiler/ti-cgt-arm_20.2.7.LTS/include/_defs.h",line 348,column 1,is_stmt,address __isnanl,isa 1

	.dwfde $C$DW$CIE, __isnanl
$C$DW$95	.dwtag  DW_TAG_formal_parameter
	.dwattr $C$DW$95, DW_AT_name("e")
	.dwattr $C$DW$95, DW_AT_TI_symbol_name("e")
	.dwattr $C$DW$95, DW_AT_type(*$C$DW$T$18)
	.dwattr $C$DW$95, DW_AT_location[DW_OP_regx 0x40]

;----------------------------------------------------------------------
; 347 | _CODE_ACCESS _INLINE_DEFINITION int __isnanl(long double e)            
;----------------------------------------------------------------------

;*****************************************************************************
;* FUNCTION NAME: __isnanl                                                   *
;*                                                                           *
;*   Regs Modified     : A1,A2,A3,A4,V1,V2,V3,V4,SP,SR                       *
;*   Regs Used         : A1,A2,A3,A4,V1,V2,V3,V4,SP,LR,SR,D0,D0_hi           *
;*   Local Frame Size  : 0 Args + 8 Auto + 20 Save = 28 byte                 *
;*****************************************************************************
__isnanl:
;* --------------------------------------------------------------------------*
	.dwcfi	cfa_offset, 0
        PUSH      {A2, A3, A4, V1, V2, V3, V4, LR} ; [DPU_V7M3_PIPE] 
	.dwcfi	cfa_offset, 32
	.dwcfi	save_reg_to_mem, 14, -4
	.dwcfi	save_reg_to_mem, 7, -8
	.dwcfi	save_reg_to_mem, 6, -12
	.dwcfi	save_reg_to_mem, 5, -16
	.dwcfi	save_reg_to_mem, 4, -20
	.dwcfi	save_reg_to_mem, 3, -24
	.dwcfi	save_reg_to_mem, 2, -28
	.dwcfi	save_reg_to_mem, 1, -32
$C$DW$96	.dwtag  DW_TAG_variable
	.dwattr $C$DW$96, DW_AT_name("e")
	.dwattr $C$DW$96, DW_AT_TI_symbol_name("e")
	.dwattr $C$DW$96, DW_AT_type(*$C$DW$T$18)
	.dwattr $C$DW$96, DW_AT_location[DW_OP_breg13 0]

;----------------------------------------------------------------------
; 348 | { return __LDOUBLE_BIASED_EXP_IS_MAX(e) &&                             
;----------------------------------------------------------------------
        VMOV      A1,A2, D0             ; [DPU_MERLIN_PIPE] |348| 
        STMIA     SP, {A1,A2}           ; [DPU_V7M3_PIPE] |348| 
	.dwpsn	file "C:/ti/ccs1230/ccs/tools/compiler/ti-cgt-arm_20.2.7.LTS/include/_defs.h",line 348,column 3,is_stmt,isa 1
        LDMIA     SP, {A2,A3}           ; [DPU_V7M3_PIPE] |348| 
        MOVS      A1, #0                ; [DPU_V7M3_PIPE] |348| 
        MOV       A2, A3                ; [DPU_V7M3_PIPE] |348| 
        LSLS      A3, A2, #0            ; [DPU_V7M3_PIPE] |348| 
        MOVS      A2, #0                ; [DPU_V7M3_PIPE] |348| 
        ORRS      A2, A2, A3            ; [DPU_V7M3_PIPE] |348| 
        LSRS      A3, A2, #16           ; [DPU_V7M3_PIPE] |348| 
        MOV       A2, #32752            ; [DPU_V7M3_PIPE] |348| 
        ANDS      A2, A2, A3            ; [DPU_V7M3_PIPE] |348| 
        MOV       A3, #32752            ; [DPU_V7M3_PIPE] |348| 
        CMP       A3, A2                ; [DPU_V7M3_PIPE] |348| 
        BNE       ||$C$L14||            ; [DPU_V7M3_PIPE] |348| 
        ; BRANCHCC OCCURS {||$C$L14||}   ; [] |348| 
;* --------------------------------------------------------------------------*
        LDMIA     SP, {A2,A3}           ; [DPU_V7M3_PIPE] |348| 
        LDR       V3, $C$CON2           ; [DPU_V7M3_PIPE] |348| 
        MOV       A2, A3                ; [DPU_V7M3_PIPE] |348| 
        LDMIA     SP, {A3,A4}           ; [DPU_V7M3_PIPE] |348| 
        MOVS      V2, #0                ; [DPU_V7M3_PIPE] |348| 
        LSLS      V1, A2, #0            ; [DPU_V7M3_PIPE] |348| 
        MOVS      V4, #0                ; [DPU_V7M3_PIPE] |348| 
        MOVS      A2, #0                ; [DPU_V7M3_PIPE] |348| 
        MOV       A4, #-1               ; [DPU_V7M3_PIPE] |348| 
        ORRS      A3, A3, V2            ; [DPU_V7M3_PIPE] |348| 
        ORRS      A2, A2, V1            ; [DPU_V7M3_PIPE] |348| 
        ANDS      A4, A4, A3            ; [DPU_V7M3_PIPE] |348| 
        ANDS      V3, V3, A2            ; [DPU_V7M3_PIPE] |348| 
        BNE       ||$C$L12||            ; [DPU_V7M3_PIPE] |348| 
        ; BRANCHCC OCCURS {||$C$L12||}   ; [] |348| 
;* --------------------------------------------------------------------------*
        CMP       A4, #0                ; [DPU_V7M3_PIPE] |348| 
;* --------------------------------------------------------------------------*
||$C$L12||:    
        BNE       ||$C$L13||            ; [DPU_V7M3_PIPE] |348| 
        ; BRANCHCC OCCURS {||$C$L13||}   ; [] |348| 
;* --------------------------------------------------------------------------*
        MOVS      V4, #1                ; [DPU_V7M3_PIPE] |348| 
;* --------------------------------------------------------------------------*
||$C$L13||:    
        CBNZ      V4, ||$C$L14||        ; [] 
        ; BRANCHCC OCCURS {||$C$L14||}   ; [] |348| 
;* --------------------------------------------------------------------------*
        MOVS      A1, #1                ; [DPU_V7M3_PIPE] |348| 
;* --------------------------------------------------------------------------*
||$C$L14||:    
	.dwpsn	file "C:/ti/ccs1230/ccs/tools/compiler/ti-cgt-arm_20.2.7.LTS/include/_defs.h",line 349,column 48,is_stmt,isa 1
;----------------------------------------------------------------------
; 349 | (__LDOUBLE_FRAC_PART_IS_ZERO(e) == 0); }                               
;----------------------------------------------------------------------
$C$DW$97	.dwtag  DW_TAG_TI_branch
	.dwattr $C$DW$97, DW_AT_low_pc(0x00)
	.dwattr $C$DW$97, DW_AT_TI_return

        POP       {A2, A3, A4, V1, V2, V3, V4, PC} ; [DPU_V7M3_PIPE] 
	.dwcfi	cfa_offset, 0
	.dwcfi	restore_reg, 7
	.dwcfi	restore_reg, 6
	.dwcfi	restore_reg, 5
	.dwcfi	restore_reg, 4
	.dwcfi	restore_reg, 3
	.dwcfi	restore_reg, 2
	.dwcfi	restore_reg, 1
        ; BRANCH OCCURS                  ; [] 
	.dwattr $C$DW$94, DW_AT_TI_end_file("C:/ti/ccs1230/ccs/tools/compiler/ti-cgt-arm_20.2.7.LTS/include/_defs.h")
	.dwattr $C$DW$94, DW_AT_TI_end_line(0x15d)
	.dwattr $C$DW$94, DW_AT_TI_end_column(0x30)
	.dwendentry
	.dwendtag $C$DW$94

	.sect	".text:__isnormal"
	.clink
	.thumbfunc __isnormal
	.thumb
	.global	__isnormal

$C$DW$98	.dwtag  DW_TAG_subprogram
	.dwattr $C$DW$98, DW_AT_name("__isnormal")
	.dwattr $C$DW$98, DW_AT_low_pc(__isnormal)
	.dwattr $C$DW$98, DW_AT_high_pc(0x00)
	.dwattr $C$DW$98, DW_AT_TI_symbol_name("__isnormal")
	.dwattr $C$DW$98, DW_AT_external
	.dwattr $C$DW$98, DW_AT_type(*$C$DW$T$10)
	.dwattr $C$DW$98, DW_AT_TI_begin_file("C:/ti/ccs1230/ccs/tools/compiler/ti-cgt-arm_20.2.7.LTS/include/_defs.h")
	.dwattr $C$DW$98, DW_AT_TI_begin_line(0x15f)
	.dwattr $C$DW$98, DW_AT_TI_begin_column(0x25)
	.dwattr $C$DW$98, DW_AT_decl_file("C:/ti/ccs1230/ccs/tools/compiler/ti-cgt-arm_20.2.7.LTS/include/_defs.h")
	.dwattr $C$DW$98, DW_AT_decl_line(0x15f)
	.dwattr $C$DW$98, DW_AT_decl_column(0x25)
	.dwattr $C$DW$98, DW_AT_TI_max_frame_size(0x18)
	.dwpsn	file "C:/ti/ccs1230/ccs/tools/compiler/ti-cgt-arm_20.2.7.LTS/include/_defs.h",line 352,column 1,is_stmt,address __isnormal,isa 1

	.dwfde $C$DW$CIE, __isnormal
$C$DW$99	.dwtag  DW_TAG_formal_parameter
	.dwattr $C$DW$99, DW_AT_name("d")
	.dwattr $C$DW$99, DW_AT_TI_symbol_name("d")
	.dwattr $C$DW$99, DW_AT_type(*$C$DW$T$17)
	.dwattr $C$DW$99, DW_AT_location[DW_OP_regx 0x40]

;----------------------------------------------------------------------
; 351 | _CODE_ACCESS _INLINE_DEFINITION int __isnormal(double d)               
;----------------------------------------------------------------------

;*****************************************************************************
;* FUNCTION NAME: __isnormal                                                 *
;*                                                                           *
;*   Regs Modified     : A1,A2,A3,A4,V3,V4,SP,SR                             *
;*   Regs Used         : A1,A2,A3,A4,V3,V4,SP,LR,SR,D0,D0_hi                 *
;*   Local Frame Size  : 0 Args + 8 Auto + 12 Save = 20 byte                 *
;*****************************************************************************
__isnormal:
;* --------------------------------------------------------------------------*
	.dwcfi	cfa_offset, 0
        PUSH      {A2, A3, A4, V3, V4, LR} ; [DPU_V7M3_PIPE] 
	.dwcfi	cfa_offset, 24
	.dwcfi	save_reg_to_mem, 14, -4
	.dwcfi	save_reg_to_mem, 7, -8
	.dwcfi	save_reg_to_mem, 6, -12
	.dwcfi	save_reg_to_mem, 3, -16
	.dwcfi	save_reg_to_mem, 2, -20
	.dwcfi	save_reg_to_mem, 1, -24
$C$DW$100	.dwtag  DW_TAG_variable
	.dwattr $C$DW$100, DW_AT_name("d")
	.dwattr $C$DW$100, DW_AT_TI_symbol_name("d")
	.dwattr $C$DW$100, DW_AT_type(*$C$DW$T$17)
	.dwattr $C$DW$100, DW_AT_location[DW_OP_breg13 0]

;----------------------------------------------------------------------
; 352 | { return (__DOUBLE_BIASED_EXP_IS_ZERO(d) == 0) &&                      
;----------------------------------------------------------------------
        VMOV      A1,A2, D0             ; [DPU_MERLIN_PIPE] |352| 
        STMIA     SP, {A1,A2}           ; [DPU_V7M3_PIPE] |352| 
	.dwpsn	file "C:/ti/ccs1230/ccs/tools/compiler/ti-cgt-arm_20.2.7.LTS/include/_defs.h",line 352,column 3,is_stmt,isa 1
        LDMIA     SP, {A2,A3}           ; [DPU_V7M3_PIPE] |352| 
        MOVS      V4, #0                ; [DPU_V7M3_PIPE] |352| 
        MOVS      A1, #0                ; [DPU_V7M3_PIPE] |352| 
        MOV       A2, A3                ; [DPU_V7M3_PIPE] |352| 
        LSLS      A3, A2, #0            ; [DPU_V7M3_PIPE] |352| 
        MOVS      A2, #0                ; [DPU_V7M3_PIPE] |352| 
        ORRS      A2, A2, A3            ; [DPU_V7M3_PIPE] |352| 
        LSRS      A4, A2, #20           ; [DPU_V7M3_PIPE] |352| 
        MOVS      A3, #0                ; [DPU_V7M3_PIPE] |352| 
        MOV       A2, #2047             ; [DPU_V7M3_PIPE] |352| 
        ASRS      V3, A2, #31           ; [DPU_V7M3_PIPE] |352| 
        ANDS      V3, V3, A3            ; [DPU_V7M3_PIPE] |352| 
        AND       A2, A2, A4            ; [DPU_V7M3_PIPE] |352| 
        BNE       ||$C$L15||            ; [DPU_V7M3_PIPE] |352| 
        ; BRANCHCC OCCURS {||$C$L15||}   ; [] |352| 
;* --------------------------------------------------------------------------*
        CMP       A2, #0                ; [DPU_V7M3_PIPE] |352| 
;* --------------------------------------------------------------------------*
||$C$L15||:    
        BNE       ||$C$L16||            ; [DPU_V7M3_PIPE] |352| 
        ; BRANCHCC OCCURS {||$C$L16||}   ; [] |352| 
;* --------------------------------------------------------------------------*
        MOVS      V4, #1                ; [DPU_V7M3_PIPE] |352| 
;* --------------------------------------------------------------------------*
||$C$L16||:    
        CBNZ      V4, ||$C$L18||        ; [] 
        ; BRANCHCC OCCURS {||$C$L18||}   ; [] |352| 
;* --------------------------------------------------------------------------*
        LDMIA     SP, {A2,A3}           ; [DPU_V7M3_PIPE] |352| 
        MOV       A2, A3                ; [DPU_V7M3_PIPE] |352| 
        MOVS      V4, #0                ; [DPU_V7M3_PIPE] |352| 
        LSLS      A3, A2, #0            ; [DPU_V7M3_PIPE] |352| 
        MOVS      A2, #0                ; [DPU_V7M3_PIPE] |352| 
        ORRS      A2, A2, A3            ; [DPU_V7M3_PIPE] |352| 
        LSRS      A3, A2, #16           ; [DPU_V7M3_PIPE] |352| 
        MOV       A2, #32752            ; [DPU_V7M3_PIPE] |352| 
        ANDS      A2, A2, A3            ; [DPU_V7M3_PIPE] |352| 
        MOV       A3, #32752            ; [DPU_V7M3_PIPE] |352| 
        CMP       A3, A2                ; [DPU_V7M3_PIPE] |352| 
        BNE       ||$C$L17||            ; [DPU_V7M3_PIPE] |352| 
        ; BRANCHCC OCCURS {||$C$L17||}   ; [] |352| 
;* --------------------------------------------------------------------------*
        MOVS      V4, #1                ; [DPU_V7M3_PIPE] |352| 
;* --------------------------------------------------------------------------*
||$C$L17||:    
        CBNZ      V4, ||$C$L18||        ; [] 
        ; BRANCHCC OCCURS {||$C$L18||}   ; [] |352| 
;* --------------------------------------------------------------------------*
        MOVS      A1, #1                ; [DPU_V7M3_PIPE] |352| 
;* --------------------------------------------------------------------------*
||$C$L18||:    
	.dwpsn	file "C:/ti/ccs1230/ccs/tools/compiler/ti-cgt-arm_20.2.7.LTS/include/_defs.h",line 353,column 48,is_stmt,isa 1
;----------------------------------------------------------------------
; 353 | (__DOUBLE_BIASED_EXP_IS_MAX(d) == 0); }                                
;----------------------------------------------------------------------
$C$DW$101	.dwtag  DW_TAG_TI_branch
	.dwattr $C$DW$101, DW_AT_low_pc(0x00)
	.dwattr $C$DW$101, DW_AT_TI_return

        POP       {A2, A3, A4, V3, V4, PC} ; [DPU_V7M3_PIPE] 
	.dwcfi	cfa_offset, 0
	.dwcfi	restore_reg, 7
	.dwcfi	restore_reg, 6
	.dwcfi	restore_reg, 3
	.dwcfi	restore_reg, 2
	.dwcfi	restore_reg, 1
        ; BRANCH OCCURS                  ; [] 
	.dwattr $C$DW$98, DW_AT_TI_end_file("C:/ti/ccs1230/ccs/tools/compiler/ti-cgt-arm_20.2.7.LTS/include/_defs.h")
	.dwattr $C$DW$98, DW_AT_TI_end_line(0x161)
	.dwattr $C$DW$98, DW_AT_TI_end_column(0x30)
	.dwendentry
	.dwendtag $C$DW$98

	.sect	".text:__isnormalf"
	.clink
	.thumbfunc __isnormalf
	.thumb
	.global	__isnormalf

$C$DW$102	.dwtag  DW_TAG_subprogram
	.dwattr $C$DW$102, DW_AT_name("__isnormalf")
	.dwattr $C$DW$102, DW_AT_low_pc(__isnormalf)
	.dwattr $C$DW$102, DW_AT_high_pc(0x00)
	.dwattr $C$DW$102, DW_AT_TI_symbol_name("__isnormalf")
	.dwattr $C$DW$102, DW_AT_external
	.dwattr $C$DW$102, DW_AT_type(*$C$DW$T$10)
	.dwattr $C$DW$102, DW_AT_TI_begin_file("C:/ti/ccs1230/ccs/tools/compiler/ti-cgt-arm_20.2.7.LTS/include/_defs.h")
	.dwattr $C$DW$102, DW_AT_TI_begin_line(0x163)
	.dwattr $C$DW$102, DW_AT_TI_begin_column(0x25)
	.dwattr $C$DW$102, DW_AT_decl_file("C:/ti/ccs1230/ccs/tools/compiler/ti-cgt-arm_20.2.7.LTS/include/_defs.h")
	.dwattr $C$DW$102, DW_AT_decl_line(0x163)
	.dwattr $C$DW$102, DW_AT_decl_column(0x25)
	.dwattr $C$DW$102, DW_AT_TI_max_frame_size(0x08)
	.dwpsn	file "C:/ti/ccs1230/ccs/tools/compiler/ti-cgt-arm_20.2.7.LTS/include/_defs.h",line 356,column 1,is_stmt,address __isnormalf,isa 1

	.dwfde $C$DW$CIE, __isnormalf
$C$DW$103	.dwtag  DW_TAG_formal_parameter
	.dwattr $C$DW$103, DW_AT_name("f")
	.dwattr $C$DW$103, DW_AT_TI_symbol_name("f")
	.dwattr $C$DW$103, DW_AT_type(*$C$DW$T$16)
	.dwattr $C$DW$103, DW_AT_location[DW_OP_regx 0x40]

;----------------------------------------------------------------------
; 355 | _CODE_ACCESS _INLINE_DEFINITION int __isnormalf(float f)               
;----------------------------------------------------------------------

;*****************************************************************************
;* FUNCTION NAME: __isnormalf                                                *
;*                                                                           *
;*   Regs Modified     : A1,A2,A3,SP,SR                                      *
;*   Regs Used         : A1,A2,A3,SP,LR,SR,D0                                *
;*   Local Frame Size  : 0 Args + 4 Auto + 0 Save = 4 byte                   *
;*****************************************************************************
__isnormalf:
;* --------------------------------------------------------------------------*
	.dwcfi	cfa_offset, 0
        SUB       SP, SP, #8            ; [DPU_V7M3_PIPE] 
	.dwcfi	cfa_offset, 8
$C$DW$104	.dwtag  DW_TAG_variable
	.dwattr $C$DW$104, DW_AT_name("f")
	.dwattr $C$DW$104, DW_AT_TI_symbol_name("f")
	.dwattr $C$DW$104, DW_AT_type(*$C$DW$T$16)
	.dwattr $C$DW$104, DW_AT_location[DW_OP_breg13 0]

;----------------------------------------------------------------------
; 356 | { return (__FLOAT_BIASED_EXP_IS_ZERO(f) == 0) &&                       
;----------------------------------------------------------------------
        VSTR.32   S0, [SP, #0]          ; [DPU_MERLIN_PIPE] |356| 
	.dwpsn	file "C:/ti/ccs1230/ccs/tools/compiler/ti-cgt-arm_20.2.7.LTS/include/_defs.h",line 356,column 3,is_stmt,isa 1
        LDR       A1, [SP, #0]          ; [DPU_V7M3_PIPE] |356| 
        MOVS      A2, #0                ; [DPU_V7M3_PIPE] |356| 
        UBFX      A3, A1, #23, #8       ; [DPU_V7M3_PIPE] |356| 
        MOVS      A1, #0                ; [DPU_V7M3_PIPE] |356| 
        CBNZ      A3, ||$C$L19||        ; [] 
        ; BRANCHCC OCCURS {||$C$L19||}   ; [] |356| 
;* --------------------------------------------------------------------------*
        MOVS      A2, #1                ; [DPU_V7M3_PIPE] |356| 
;* --------------------------------------------------------------------------*
||$C$L19||:    
        CBNZ      A2, ||$C$L21||        ; [] 
        ; BRANCHCC OCCURS {||$C$L21||}   ; [] |356| 
;* --------------------------------------------------------------------------*
        LDR       A2, [SP, #0]          ; [DPU_V7M3_PIPE] |356| 
        LSRS      A2, A2, #16           ; [DPU_V7M3_PIPE] |356| 
        AND       A3, A2, #32640        ; [DPU_V7M3_PIPE] |356| 
        CMP       A3, #32640            ; [DPU_V7M3_PIPE] |356| 
        MOV       A2, #0                ; [DPU_V7M3_PIPE] |356| 
        BNE       ||$C$L20||            ; [DPU_V7M3_PIPE] |356| 
        ; BRANCHCC OCCURS {||$C$L20||}   ; [] |356| 
;* --------------------------------------------------------------------------*
        MOVS      A2, #1                ; [DPU_V7M3_PIPE] |356| 
;* --------------------------------------------------------------------------*
||$C$L20||:    
        CBNZ      A2, ||$C$L21||        ; [] 
        ; BRANCHCC OCCURS {||$C$L21||}   ; [] |356| 
;* --------------------------------------------------------------------------*
        MOVS      A1, #1                ; [DPU_V7M3_PIPE] |356| 
;* --------------------------------------------------------------------------*
||$C$L21||:    
	.dwpsn	file "C:/ti/ccs1230/ccs/tools/compiler/ti-cgt-arm_20.2.7.LTS/include/_defs.h",line 357,column 47,is_stmt,isa 1
;----------------------------------------------------------------------
; 357 | (__FLOAT_BIASED_EXP_IS_MAX(f) == 0); }                                 
;----------------------------------------------------------------------
        ADD       SP, SP, #8            ; [DPU_V7M3_PIPE] 
	.dwcfi	cfa_offset, 0
$C$DW$105	.dwtag  DW_TAG_TI_branch
	.dwattr $C$DW$105, DW_AT_low_pc(0x00)
	.dwattr $C$DW$105, DW_AT_TI_return

        BX        LR                    ; [DPU_V7M3_PIPE] 
        ; BRANCH OCCURS                  ; [] 
	.dwattr $C$DW$102, DW_AT_TI_end_file("C:/ti/ccs1230/ccs/tools/compiler/ti-cgt-arm_20.2.7.LTS/include/_defs.h")
	.dwattr $C$DW$102, DW_AT_TI_end_line(0x165)
	.dwattr $C$DW$102, DW_AT_TI_end_column(0x2f)
	.dwendentry
	.dwendtag $C$DW$102

	.sect	".text:__isnormall"
	.clink
	.thumbfunc __isnormall
	.thumb
	.global	__isnormall

$C$DW$106	.dwtag  DW_TAG_subprogram
	.dwattr $C$DW$106, DW_AT_name("__isnormall")
	.dwattr $C$DW$106, DW_AT_low_pc(__isnormall)
	.dwattr $C$DW$106, DW_AT_high_pc(0x00)
	.dwattr $C$DW$106, DW_AT_TI_symbol_name("__isnormall")
	.dwattr $C$DW$106, DW_AT_external
	.dwattr $C$DW$106, DW_AT_type(*$C$DW$T$10)
	.dwattr $C$DW$106, DW_AT_TI_begin_file("C:/ti/ccs1230/ccs/tools/compiler/ti-cgt-arm_20.2.7.LTS/include/_defs.h")
	.dwattr $C$DW$106, DW_AT_TI_begin_line(0x167)
	.dwattr $C$DW$106, DW_AT_TI_begin_column(0x25)
	.dwattr $C$DW$106, DW_AT_decl_file("C:/ti/ccs1230/ccs/tools/compiler/ti-cgt-arm_20.2.7.LTS/include/_defs.h")
	.dwattr $C$DW$106, DW_AT_decl_line(0x167)
	.dwattr $C$DW$106, DW_AT_decl_column(0x25)
	.dwattr $C$DW$106, DW_AT_TI_max_frame_size(0x18)
	.dwpsn	file "C:/ti/ccs1230/ccs/tools/compiler/ti-cgt-arm_20.2.7.LTS/include/_defs.h",line 360,column 1,is_stmt,address __isnormall,isa 1

	.dwfde $C$DW$CIE, __isnormall
$C$DW$107	.dwtag  DW_TAG_formal_parameter
	.dwattr $C$DW$107, DW_AT_name("e")
	.dwattr $C$DW$107, DW_AT_TI_symbol_name("e")
	.dwattr $C$DW$107, DW_AT_type(*$C$DW$T$18)
	.dwattr $C$DW$107, DW_AT_location[DW_OP_regx 0x40]

;----------------------------------------------------------------------
; 359 | _CODE_ACCESS _INLINE_DEFINITION int __isnormall(long double e)         
;----------------------------------------------------------------------

;*****************************************************************************
;* FUNCTION NAME: __isnormall                                                *
;*                                                                           *
;*   Regs Modified     : A1,A2,A3,A4,V3,V4,SP,SR                             *
;*   Regs Used         : A1,A2,A3,A4,V3,V4,SP,LR,SR,D0,D0_hi                 *
;*   Local Frame Size  : 0 Args + 8 Auto + 12 Save = 20 byte                 *
;*****************************************************************************
__isnormall:
;* --------------------------------------------------------------------------*
	.dwcfi	cfa_offset, 0
        PUSH      {A2, A3, A4, V3, V4, LR} ; [DPU_V7M3_PIPE] 
	.dwcfi	cfa_offset, 24
	.dwcfi	save_reg_to_mem, 14, -4
	.dwcfi	save_reg_to_mem, 7, -8
	.dwcfi	save_reg_to_mem, 6, -12
	.dwcfi	save_reg_to_mem, 3, -16
	.dwcfi	save_reg_to_mem, 2, -20
	.dwcfi	save_reg_to_mem, 1, -24
$C$DW$108	.dwtag  DW_TAG_variable
	.dwattr $C$DW$108, DW_AT_name("e")
	.dwattr $C$DW$108, DW_AT_TI_symbol_name("e")
	.dwattr $C$DW$108, DW_AT_type(*$C$DW$T$18)
	.dwattr $C$DW$108, DW_AT_location[DW_OP_breg13 0]

;----------------------------------------------------------------------
; 360 | { return (__LDOUBLE_BIASED_EXP_IS_ZERO(e) == 0) &&                     
;----------------------------------------------------------------------
        VMOV      A1,A2, D0             ; [DPU_MERLIN_PIPE] |360| 
        STMIA     SP, {A1,A2}           ; [DPU_V7M3_PIPE] |360| 
	.dwpsn	file "C:/ti/ccs1230/ccs/tools/compiler/ti-cgt-arm_20.2.7.LTS/include/_defs.h",line 360,column 3,is_stmt,isa 1
        LDMIA     SP, {A2,A3}           ; [DPU_V7M3_PIPE] |360| 
        MOVS      V4, #0                ; [DPU_V7M3_PIPE] |360| 
        MOVS      A1, #0                ; [DPU_V7M3_PIPE] |360| 
        MOV       A2, A3                ; [DPU_V7M3_PIPE] |360| 
        LSLS      A3, A2, #0            ; [DPU_V7M3_PIPE] |360| 
        MOVS      A2, #0                ; [DPU_V7M3_PIPE] |360| 
        ORRS      A2, A2, A3            ; [DPU_V7M3_PIPE] |360| 
        LSRS      A4, A2, #20           ; [DPU_V7M3_PIPE] |360| 
        MOVS      A3, #0                ; [DPU_V7M3_PIPE] |360| 
        MOV       A2, #2047             ; [DPU_V7M3_PIPE] |360| 
        ASRS      V3, A2, #31           ; [DPU_V7M3_PIPE] |360| 
        ANDS      V3, V3, A3            ; [DPU_V7M3_PIPE] |360| 
        AND       A2, A2, A4            ; [DPU_V7M3_PIPE] |360| 
        BNE       ||$C$L22||            ; [DPU_V7M3_PIPE] |360| 
        ; BRANCHCC OCCURS {||$C$L22||}   ; [] |360| 
;* --------------------------------------------------------------------------*
        CMP       A2, #0                ; [DPU_V7M3_PIPE] |360| 
;* --------------------------------------------------------------------------*
||$C$L22||:    
        BNE       ||$C$L23||            ; [DPU_V7M3_PIPE] |360| 
        ; BRANCHCC OCCURS {||$C$L23||}   ; [] |360| 
;* --------------------------------------------------------------------------*
        MOVS      V4, #1                ; [DPU_V7M3_PIPE] |360| 
;* --------------------------------------------------------------------------*
||$C$L23||:    
        CBNZ      V4, ||$C$L25||        ; [] 
        ; BRANCHCC OCCURS {||$C$L25||}   ; [] |360| 
;* --------------------------------------------------------------------------*
        LDMIA     SP, {A2,A3}           ; [DPU_V7M3_PIPE] |360| 
        MOV       A2, A3                ; [DPU_V7M3_PIPE] |360| 
        MOVS      V4, #0                ; [DPU_V7M3_PIPE] |360| 
        LSLS      A3, A2, #0            ; [DPU_V7M3_PIPE] |360| 
        MOVS      A2, #0                ; [DPU_V7M3_PIPE] |360| 
        ORRS      A2, A2, A3            ; [DPU_V7M3_PIPE] |360| 
        LSRS      A3, A2, #16           ; [DPU_V7M3_PIPE] |360| 
        MOV       A2, #32752            ; [DPU_V7M3_PIPE] |360| 
        ANDS      A2, A2, A3            ; [DPU_V7M3_PIPE] |360| 
        MOV       A3, #32752            ; [DPU_V7M3_PIPE] |360| 
        CMP       A3, A2                ; [DPU_V7M3_PIPE] |360| 
        BNE       ||$C$L24||            ; [DPU_V7M3_PIPE] |360| 
        ; BRANCHCC OCCURS {||$C$L24||}   ; [] |360| 
;* --------------------------------------------------------------------------*
        MOVS      V4, #1                ; [DPU_V7M3_PIPE] |360| 
;* --------------------------------------------------------------------------*
||$C$L24||:    
        CBNZ      V4, ||$C$L25||        ; [] 
        ; BRANCHCC OCCURS {||$C$L25||}   ; [] |360| 
;* --------------------------------------------------------------------------*
        MOVS      A1, #1                ; [DPU_V7M3_PIPE] |360| 
;* --------------------------------------------------------------------------*
||$C$L25||:    
	.dwpsn	file "C:/ti/ccs1230/ccs/tools/compiler/ti-cgt-arm_20.2.7.LTS/include/_defs.h",line 361,column 49,is_stmt,isa 1
;----------------------------------------------------------------------
; 361 | (__LDOUBLE_BIASED_EXP_IS_MAX(e) == 0); }                               
;----------------------------------------------------------------------
$C$DW$109	.dwtag  DW_TAG_TI_branch
	.dwattr $C$DW$109, DW_AT_low_pc(0x00)
	.dwattr $C$DW$109, DW_AT_TI_return

        POP       {A2, A3, A4, V3, V4, PC} ; [DPU_V7M3_PIPE] 
	.dwcfi	cfa_offset, 0
	.dwcfi	restore_reg, 7
	.dwcfi	restore_reg, 6
	.dwcfi	restore_reg, 3
	.dwcfi	restore_reg, 2
	.dwcfi	restore_reg, 1
        ; BRANCH OCCURS                  ; [] 
	.dwattr $C$DW$106, DW_AT_TI_end_file("C:/ti/ccs1230/ccs/tools/compiler/ti-cgt-arm_20.2.7.LTS/include/_defs.h")
	.dwattr $C$DW$106, DW_AT_TI_end_line(0x169)
	.dwattr $C$DW$106, DW_AT_TI_end_column(0x31)
	.dwendentry
	.dwendtag $C$DW$106

	.sect	".text:__signbit"
	.clink
	.thumbfunc __signbit
	.thumb
	.global	__signbit

$C$DW$110	.dwtag  DW_TAG_subprogram
	.dwattr $C$DW$110, DW_AT_name("__signbit")
	.dwattr $C$DW$110, DW_AT_low_pc(__signbit)
	.dwattr $C$DW$110, DW_AT_high_pc(0x00)
	.dwattr $C$DW$110, DW_AT_TI_symbol_name("__signbit")
	.dwattr $C$DW$110, DW_AT_external
	.dwattr $C$DW$110, DW_AT_type(*$C$DW$T$10)
	.dwattr $C$DW$110, DW_AT_TI_begin_file("C:/ti/ccs1230/ccs/tools/compiler/ti-cgt-arm_20.2.7.LTS/include/_defs.h")
	.dwattr $C$DW$110, DW_AT_TI_begin_line(0x16b)
	.dwattr $C$DW$110, DW_AT_TI_begin_column(0x25)
	.dwattr $C$DW$110, DW_AT_decl_file("C:/ti/ccs1230/ccs/tools/compiler/ti-cgt-arm_20.2.7.LTS/include/_defs.h")
	.dwattr $C$DW$110, DW_AT_decl_line(0x16b)
	.dwattr $C$DW$110, DW_AT_decl_column(0x25)
	.dwattr $C$DW$110, DW_AT_TI_max_frame_size(0x20)
	.dwpsn	file "C:/ti/ccs1230/ccs/tools/compiler/ti-cgt-arm_20.2.7.LTS/include/_defs.h",line 364,column 1,is_stmt,address __signbit,isa 1

	.dwfde $C$DW$CIE, __signbit
$C$DW$111	.dwtag  DW_TAG_formal_parameter
	.dwattr $C$DW$111, DW_AT_name("d")
	.dwattr $C$DW$111, DW_AT_TI_symbol_name("d")
	.dwattr $C$DW$111, DW_AT_type(*$C$DW$T$17)
	.dwattr $C$DW$111, DW_AT_location[DW_OP_regx 0x40]

;----------------------------------------------------------------------
; 363 | _CODE_ACCESS _INLINE_DEFINITION int __signbit(double d)                
;----------------------------------------------------------------------

;*****************************************************************************
;* FUNCTION NAME: __signbit                                                  *
;*                                                                           *
;*   Regs Modified     : A1,A2,A3,A4,V1,V2,V3,V4,SP,SR                       *
;*   Regs Used         : A1,A2,A3,A4,V1,V2,V3,V4,SP,LR,SR,D0,D0_hi           *
;*   Local Frame Size  : 0 Args + 8 Auto + 20 Save = 28 byte                 *
;*****************************************************************************
__signbit:
;* --------------------------------------------------------------------------*
	.dwcfi	cfa_offset, 0
        PUSH      {A2, A3, A4, V1, V2, V3, V4, LR} ; [DPU_V7M3_PIPE] 
	.dwcfi	cfa_offset, 32
	.dwcfi	save_reg_to_mem, 14, -4
	.dwcfi	save_reg_to_mem, 7, -8
	.dwcfi	save_reg_to_mem, 6, -12
	.dwcfi	save_reg_to_mem, 5, -16
	.dwcfi	save_reg_to_mem, 4, -20
	.dwcfi	save_reg_to_mem, 3, -24
	.dwcfi	save_reg_to_mem, 2, -28
	.dwcfi	save_reg_to_mem, 1, -32
$C$DW$112	.dwtag  DW_TAG_variable
	.dwattr $C$DW$112, DW_AT_name("d")
	.dwattr $C$DW$112, DW_AT_TI_symbol_name("d")
	.dwattr $C$DW$112, DW_AT_type(*$C$DW$T$17)
	.dwattr $C$DW$112, DW_AT_location[DW_OP_breg13 0]

;----------------------------------------------------------------------
; 364 | { return __DOUBLE_SIGN_BIT_ZERO(d) == 0; }                             
;----------------------------------------------------------------------
        VMOV      A1,A2, D0             ; [DPU_MERLIN_PIPE] |364| 
        STMIA     SP, {A1,A2}           ; [DPU_V7M3_PIPE] |364| 
	.dwpsn	file "C:/ti/ccs1230/ccs/tools/compiler/ti-cgt-arm_20.2.7.LTS/include/_defs.h",line 364,column 3,is_stmt,isa 1
        LDMIA     SP, {A2,A3}           ; [DPU_V7M3_PIPE] |364| 
        MOV       A2, A3                ; [DPU_V7M3_PIPE] |364| 
        LDMIA     SP, {A3,A4}           ; [DPU_V7M3_PIPE] |364| 
        MOVS      V2, #0                ; [DPU_V7M3_PIPE] |364| 
        MOV       V3, #-2147483648      ; [DPU_V7M3_PIPE] |364| 
        MOVS      V4, #0                ; [DPU_V7M3_PIPE] |364| 
        MOVS      A1, #0                ; [DPU_V7M3_PIPE] |364| 
        LSLS      V1, A2, #0            ; [DPU_V7M3_PIPE] |364| 
        MOVS      A2, #0                ; [DPU_V7M3_PIPE] |364| 
        ORRS      A2, A2, V1            ; [DPU_V7M3_PIPE] |364| 
        MOVS      A4, #0                ; [DPU_V7M3_PIPE] |364| 
        ORRS      A3, A3, V2            ; [DPU_V7M3_PIPE] |364| 
        ANDS      V3, V3, A2            ; [DPU_V7M3_PIPE] |364| 
        AND       A4, A4, A3            ; [DPU_V7M3_PIPE] |364| 
        BNE       ||$C$L26||            ; [DPU_V7M3_PIPE] |364| 
        ; BRANCHCC OCCURS {||$C$L26||}   ; [] |364| 
;* --------------------------------------------------------------------------*
        CMP       A4, #0                ; [DPU_V7M3_PIPE] |364| 
;* --------------------------------------------------------------------------*
||$C$L26||:    
        BNE       ||$C$L27||            ; [DPU_V7M3_PIPE] |364| 
        ; BRANCHCC OCCURS {||$C$L27||}   ; [] |364| 
;* --------------------------------------------------------------------------*
        MOVS      V4, #1                ; [DPU_V7M3_PIPE] |364| 
;* --------------------------------------------------------------------------*
||$C$L27||:    
        CBNZ      V4, ||$C$L28||        ; [] 
        ; BRANCHCC OCCURS {||$C$L28||}   ; [] |364| 
;* --------------------------------------------------------------------------*
        MOVS      A1, #1                ; [DPU_V7M3_PIPE] |364| 
;* --------------------------------------------------------------------------*
||$C$L28||:    
	.dwpsn	file "C:/ti/ccs1230/ccs/tools/compiler/ti-cgt-arm_20.2.7.LTS/include/_defs.h",line 364,column 42,is_stmt,isa 1
$C$DW$113	.dwtag  DW_TAG_TI_branch
	.dwattr $C$DW$113, DW_AT_low_pc(0x00)
	.dwattr $C$DW$113, DW_AT_TI_return

        POP       {A2, A3, A4, V1, V2, V3, V4, PC} ; [DPU_V7M3_PIPE] 
	.dwcfi	cfa_offset, 0
	.dwcfi	restore_reg, 7
	.dwcfi	restore_reg, 6
	.dwcfi	restore_reg, 5
	.dwcfi	restore_reg, 4
	.dwcfi	restore_reg, 3
	.dwcfi	restore_reg, 2
	.dwcfi	restore_reg, 1
        ; BRANCH OCCURS                  ; [] 
	.dwattr $C$DW$110, DW_AT_TI_end_file("C:/ti/ccs1230/ccs/tools/compiler/ti-cgt-arm_20.2.7.LTS/include/_defs.h")
	.dwattr $C$DW$110, DW_AT_TI_end_line(0x16c)
	.dwattr $C$DW$110, DW_AT_TI_end_column(0x2a)
	.dwendentry
	.dwendtag $C$DW$110

	.sect	".text:__signbitf"
	.clink
	.thumbfunc __signbitf
	.thumb
	.global	__signbitf

$C$DW$114	.dwtag  DW_TAG_subprogram
	.dwattr $C$DW$114, DW_AT_name("__signbitf")
	.dwattr $C$DW$114, DW_AT_low_pc(__signbitf)
	.dwattr $C$DW$114, DW_AT_high_pc(0x00)
	.dwattr $C$DW$114, DW_AT_TI_symbol_name("__signbitf")
	.dwattr $C$DW$114, DW_AT_external
	.dwattr $C$DW$114, DW_AT_type(*$C$DW$T$10)
	.dwattr $C$DW$114, DW_AT_TI_begin_file("C:/ti/ccs1230/ccs/tools/compiler/ti-cgt-arm_20.2.7.LTS/include/_defs.h")
	.dwattr $C$DW$114, DW_AT_TI_begin_line(0x16d)
	.dwattr $C$DW$114, DW_AT_TI_begin_column(0x25)
	.dwattr $C$DW$114, DW_AT_decl_file("C:/ti/ccs1230/ccs/tools/compiler/ti-cgt-arm_20.2.7.LTS/include/_defs.h")
	.dwattr $C$DW$114, DW_AT_decl_line(0x16d)
	.dwattr $C$DW$114, DW_AT_decl_column(0x25)
	.dwattr $C$DW$114, DW_AT_TI_max_frame_size(0x08)
	.dwpsn	file "C:/ti/ccs1230/ccs/tools/compiler/ti-cgt-arm_20.2.7.LTS/include/_defs.h",line 366,column 1,is_stmt,address __signbitf,isa 1

	.dwfde $C$DW$CIE, __signbitf
$C$DW$115	.dwtag  DW_TAG_formal_parameter
	.dwattr $C$DW$115, DW_AT_name("f")
	.dwattr $C$DW$115, DW_AT_TI_symbol_name("f")
	.dwattr $C$DW$115, DW_AT_type(*$C$DW$T$16)
	.dwattr $C$DW$115, DW_AT_location[DW_OP_regx 0x40]

;----------------------------------------------------------------------
; 365 | _CODE_ACCESS _INLINE_DEFINITION int __signbitf(float f)                
;----------------------------------------------------------------------

;*****************************************************************************
;* FUNCTION NAME: __signbitf                                                 *
;*                                                                           *
;*   Regs Modified     : A1,A2,A3,SP,SR                                      *
;*   Regs Used         : A1,A2,A3,SP,LR,SR,D0                                *
;*   Local Frame Size  : 0 Args + 4 Auto + 0 Save = 4 byte                   *
;*****************************************************************************
__signbitf:
;* --------------------------------------------------------------------------*
	.dwcfi	cfa_offset, 0
        SUB       SP, SP, #8            ; [DPU_V7M3_PIPE] 
	.dwcfi	cfa_offset, 8
$C$DW$116	.dwtag  DW_TAG_variable
	.dwattr $C$DW$116, DW_AT_name("f")
	.dwattr $C$DW$116, DW_AT_TI_symbol_name("f")
	.dwattr $C$DW$116, DW_AT_type(*$C$DW$T$16)
	.dwattr $C$DW$116, DW_AT_location[DW_OP_breg13 0]

;----------------------------------------------------------------------
; 366 | { return __FLOAT_SIGN_BIT_ZERO(f) == 0; }                              
;----------------------------------------------------------------------
        VSTR.32   S0, [SP, #0]          ; [DPU_MERLIN_PIPE] |366| 
	.dwpsn	file "C:/ti/ccs1230/ccs/tools/compiler/ti-cgt-arm_20.2.7.LTS/include/_defs.h",line 366,column 3,is_stmt,isa 1
        LDR       A3, [SP, #0]          ; [DPU_V7M3_PIPE] |366| 
        MOVS      A1, #0                ; [DPU_V7M3_PIPE] |366| 
        MOVS      A2, #0                ; [DPU_V7M3_PIPE] |366| 
        LSRS      A3, A3, #32           ; [DPU_V7M3_PIPE] |366| 
        BCS       ||$C$L29||            ; [DPU_V7M3_PIPE] |366| 
        ; BRANCHCC OCCURS {||$C$L29||}   ; [] |366| 
;* --------------------------------------------------------------------------*
        MOVS      A2, #1                ; [DPU_V7M3_PIPE] |366| 
;* --------------------------------------------------------------------------*
||$C$L29||:    
        CBNZ      A2, ||$C$L30||        ; [] 
        ; BRANCHCC OCCURS {||$C$L30||}   ; [] |366| 
;* --------------------------------------------------------------------------*
        MOVS      A1, #1                ; [DPU_V7M3_PIPE] |366| 
;* --------------------------------------------------------------------------*
||$C$L30||:    
	.dwpsn	file "C:/ti/ccs1230/ccs/tools/compiler/ti-cgt-arm_20.2.7.LTS/include/_defs.h",line 366,column 41,is_stmt,isa 1
        ADD       SP, SP, #8            ; [DPU_V7M3_PIPE] 
	.dwcfi	cfa_offset, 0
$C$DW$117	.dwtag  DW_TAG_TI_branch
	.dwattr $C$DW$117, DW_AT_low_pc(0x00)
	.dwattr $C$DW$117, DW_AT_TI_return

        BX        LR                    ; [DPU_V7M3_PIPE] 
        ; BRANCH OCCURS                  ; [] 
	.dwattr $C$DW$114, DW_AT_TI_end_file("C:/ti/ccs1230/ccs/tools/compiler/ti-cgt-arm_20.2.7.LTS/include/_defs.h")
	.dwattr $C$DW$114, DW_AT_TI_end_line(0x16e)
	.dwattr $C$DW$114, DW_AT_TI_end_column(0x29)
	.dwendentry
	.dwendtag $C$DW$114

	.sect	".text:__signbitl"
	.clink
	.thumbfunc __signbitl
	.thumb
	.global	__signbitl

$C$DW$118	.dwtag  DW_TAG_subprogram
	.dwattr $C$DW$118, DW_AT_name("__signbitl")
	.dwattr $C$DW$118, DW_AT_low_pc(__signbitl)
	.dwattr $C$DW$118, DW_AT_high_pc(0x00)
	.dwattr $C$DW$118, DW_AT_TI_symbol_name("__signbitl")
	.dwattr $C$DW$118, DW_AT_external
	.dwattr $C$DW$118, DW_AT_type(*$C$DW$T$10)
	.dwattr $C$DW$118, DW_AT_TI_begin_file("C:/ti/ccs1230/ccs/tools/compiler/ti-cgt-arm_20.2.7.LTS/include/_defs.h")
	.dwattr $C$DW$118, DW_AT_TI_begin_line(0x16f)
	.dwattr $C$DW$118, DW_AT_TI_begin_column(0x25)
	.dwattr $C$DW$118, DW_AT_decl_file("C:/ti/ccs1230/ccs/tools/compiler/ti-cgt-arm_20.2.7.LTS/include/_defs.h")
	.dwattr $C$DW$118, DW_AT_decl_line(0x16f)
	.dwattr $C$DW$118, DW_AT_decl_column(0x25)
	.dwattr $C$DW$118, DW_AT_TI_max_frame_size(0x20)
	.dwpsn	file "C:/ti/ccs1230/ccs/tools/compiler/ti-cgt-arm_20.2.7.LTS/include/_defs.h",line 368,column 1,is_stmt,address __signbitl,isa 1

	.dwfde $C$DW$CIE, __signbitl
$C$DW$119	.dwtag  DW_TAG_formal_parameter
	.dwattr $C$DW$119, DW_AT_name("e")
	.dwattr $C$DW$119, DW_AT_TI_symbol_name("e")
	.dwattr $C$DW$119, DW_AT_type(*$C$DW$T$18)
	.dwattr $C$DW$119, DW_AT_location[DW_OP_regx 0x40]

;----------------------------------------------------------------------
; 367 | _CODE_ACCESS _INLINE_DEFINITION int __signbitl(long double e)          
;----------------------------------------------------------------------

;*****************************************************************************
;* FUNCTION NAME: __signbitl                                                 *
;*                                                                           *
;*   Regs Modified     : A1,A2,A3,A4,V1,V2,V3,V4,SP,SR                       *
;*   Regs Used         : A1,A2,A3,A4,V1,V2,V3,V4,SP,LR,SR,D0,D0_hi           *
;*   Local Frame Size  : 0 Args + 8 Auto + 20 Save = 28 byte                 *
;*****************************************************************************
__signbitl:
;* --------------------------------------------------------------------------*
	.dwcfi	cfa_offset, 0
        PUSH      {A2, A3, A4, V1, V2, V3, V4, LR} ; [DPU_V7M3_PIPE] 
	.dwcfi	cfa_offset, 32
	.dwcfi	save_reg_to_mem, 14, -4
	.dwcfi	save_reg_to_mem, 7, -8
	.dwcfi	save_reg_to_mem, 6, -12
	.dwcfi	save_reg_to_mem, 5, -16
	.dwcfi	save_reg_to_mem, 4, -20
	.dwcfi	save_reg_to_mem, 3, -24
	.dwcfi	save_reg_to_mem, 2, -28
	.dwcfi	save_reg_to_mem, 1, -32
$C$DW$120	.dwtag  DW_TAG_variable
	.dwattr $C$DW$120, DW_AT_name("e")
	.dwattr $C$DW$120, DW_AT_TI_symbol_name("e")
	.dwattr $C$DW$120, DW_AT_type(*$C$DW$T$18)
	.dwattr $C$DW$120, DW_AT_location[DW_OP_breg13 0]

;----------------------------------------------------------------------
; 368 | { return __LDOUBLE_SIGN_BIT_ZERO(e) == 0; }                            
;----------------------------------------------------------------------
        VMOV      A1,A2, D0             ; [DPU_MERLIN_PIPE] |368| 
        STMIA     SP, {A1,A2}           ; [DPU_V7M3_PIPE] |368| 
	.dwpsn	file "C:/ti/ccs1230/ccs/tools/compiler/ti-cgt-arm_20.2.7.LTS/include/_defs.h",line 368,column 3,is_stmt,isa 1
        LDMIA     SP, {A2,A3}           ; [DPU_V7M3_PIPE] |368| 
        MOV       A2, A3                ; [DPU_V7M3_PIPE] |368| 
        LDMIA     SP, {A3,A4}           ; [DPU_V7M3_PIPE] |368| 
        MOVS      V2, #0                ; [DPU_V7M3_PIPE] |368| 
        MOV       V3, #-2147483648      ; [DPU_V7M3_PIPE] |368| 
        MOVS      V4, #0                ; [DPU_V7M3_PIPE] |368| 
        MOVS      A1, #0                ; [DPU_V7M3_PIPE] |368| 
        LSLS      V1, A2, #0            ; [DPU_V7M3_PIPE] |368| 
        MOVS      A2, #0                ; [DPU_V7M3_PIPE] |368| 
        ORRS      A2, A2, V1            ; [DPU_V7M3_PIPE] |368| 
        MOVS      A4, #0                ; [DPU_V7M3_PIPE] |368| 
        ORRS      A3, A3, V2            ; [DPU_V7M3_PIPE] |368| 
        ANDS      V3, V3, A2            ; [DPU_V7M3_PIPE] |368| 
        AND       A4, A4, A3            ; [DPU_V7M3_PIPE] |368| 
        BNE       ||$C$L31||            ; [DPU_V7M3_PIPE] |368| 
        ; BRANCHCC OCCURS {||$C$L31||}   ; [] |368| 
;* --------------------------------------------------------------------------*
        CMP       A4, #0                ; [DPU_V7M3_PIPE] |368| 
;* --------------------------------------------------------------------------*
||$C$L31||:    
        BNE       ||$C$L32||            ; [DPU_V7M3_PIPE] |368| 
        ; BRANCHCC OCCURS {||$C$L32||}   ; [] |368| 
;* --------------------------------------------------------------------------*
        MOVS      V4, #1                ; [DPU_V7M3_PIPE] |368| 
;* --------------------------------------------------------------------------*
||$C$L32||:    
        CBNZ      V4, ||$C$L33||        ; [] 
        ; BRANCHCC OCCURS {||$C$L33||}   ; [] |368| 
;* --------------------------------------------------------------------------*
        MOVS      A1, #1                ; [DPU_V7M3_PIPE] |368| 
;* --------------------------------------------------------------------------*
||$C$L33||:    
	.dwpsn	file "C:/ti/ccs1230/ccs/tools/compiler/ti-cgt-arm_20.2.7.LTS/include/_defs.h",line 368,column 43,is_stmt,isa 1
$C$DW$121	.dwtag  DW_TAG_TI_branch
	.dwattr $C$DW$121, DW_AT_low_pc(0x00)
	.dwattr $C$DW$121, DW_AT_TI_return

        POP       {A2, A3, A4, V1, V2, V3, V4, PC} ; [DPU_V7M3_PIPE] 
	.dwcfi	cfa_offset, 0
	.dwcfi	restore_reg, 7
	.dwcfi	restore_reg, 6
	.dwcfi	restore_reg, 5
	.dwcfi	restore_reg, 4
	.dwcfi	restore_reg, 3
	.dwcfi	restore_reg, 2
	.dwcfi	restore_reg, 1
        ; BRANCH OCCURS                  ; [] 
	.dwattr $C$DW$118, DW_AT_TI_end_file("C:/ti/ccs1230/ccs/tools/compiler/ti-cgt-arm_20.2.7.LTS/include/_defs.h")
	.dwattr $C$DW$118, DW_AT_TI_end_line(0x170)
	.dwattr $C$DW$118, DW_AT_TI_end_column(0x2b)
	.dwendentry
	.dwendtag $C$DW$118

	.sect	".text:__isinff"
	.clink
	.thumbfunc __isinff
	.thumb
	.global	__isinff

$C$DW$122	.dwtag  DW_TAG_subprogram
	.dwattr $C$DW$122, DW_AT_name("__isinff")
	.dwattr $C$DW$122, DW_AT_low_pc(__isinff)
	.dwattr $C$DW$122, DW_AT_high_pc(0x00)
	.dwattr $C$DW$122, DW_AT_TI_symbol_name("__isinff")
	.dwattr $C$DW$122, DW_AT_external
	.dwattr $C$DW$122, DW_AT_type(*$C$DW$T$10)
	.dwattr $C$DW$122, DW_AT_TI_begin_file("C:/ti/ccs1230/ccs/tools/compiler/ti-cgt-arm_20.2.7.LTS/include/_defs.h")
	.dwattr $C$DW$122, DW_AT_TI_begin_line(0x176)
	.dwattr $C$DW$122, DW_AT_TI_begin_column(0x25)
	.dwattr $C$DW$122, DW_AT_decl_file("C:/ti/ccs1230/ccs/tools/compiler/ti-cgt-arm_20.2.7.LTS/include/_defs.h")
	.dwattr $C$DW$122, DW_AT_decl_line(0x176)
	.dwattr $C$DW$122, DW_AT_decl_column(0x25)
	.dwattr $C$DW$122, DW_AT_TI_max_frame_size(0x08)
	.dwpsn	file "C:/ti/ccs1230/ccs/tools/compiler/ti-cgt-arm_20.2.7.LTS/include/_defs.h",line 375,column 1,is_stmt,address __isinff,isa 1

	.dwfde $C$DW$CIE, __isinff
$C$DW$123	.dwtag  DW_TAG_formal_parameter
	.dwattr $C$DW$123, DW_AT_name("f")
	.dwattr $C$DW$123, DW_AT_TI_symbol_name("f")
	.dwattr $C$DW$123, DW_AT_type(*$C$DW$T$16)
	.dwattr $C$DW$123, DW_AT_location[DW_OP_regx 0x40]

;----------------------------------------------------------------------
; 374 | _CODE_ACCESS _INLINE_DEFINITION int __isinff(float f)                  
;----------------------------------------------------------------------

;*****************************************************************************
;* FUNCTION NAME: __isinff                                                   *
;*                                                                           *
;*   Regs Modified     : A1,A2,SP,SR                                         *
;*   Regs Used         : A1,A2,SP,LR,SR,D0                                   *
;*   Local Frame Size  : 0 Args + 4 Auto + 0 Save = 4 byte                   *
;*****************************************************************************
__isinff:
;* --------------------------------------------------------------------------*
	.dwcfi	cfa_offset, 0
        SUB       SP, SP, #8            ; [DPU_V7M3_PIPE] 
	.dwcfi	cfa_offset, 8
$C$DW$124	.dwtag  DW_TAG_variable
	.dwattr $C$DW$124, DW_AT_name("f")
	.dwattr $C$DW$124, DW_AT_TI_symbol_name("f")
	.dwattr $C$DW$124, DW_AT_type(*$C$DW$T$16)
	.dwattr $C$DW$124, DW_AT_location[DW_OP_breg13 0]

;----------------------------------------------------------------------
; 375 | { return __FLOAT_BIASED_EXP_IS_MAX(f) && __FLOAT_FRAC_PART_IS_ZERO(f);
;     | }                                                                      
;----------------------------------------------------------------------
        VSTR.32   S0, [SP, #0]          ; [DPU_MERLIN_PIPE] |375| 
	.dwpsn	file "C:/ti/ccs1230/ccs/tools/compiler/ti-cgt-arm_20.2.7.LTS/include/_defs.h",line 375,column 3,is_stmt,isa 1
        LDR       A1, [SP, #0]          ; [DPU_V7M3_PIPE] |375| 
        MOVS      A2, #0                ; [DPU_V7M3_PIPE] |375| 
        LSRS      A1, A1, #16           ; [DPU_V7M3_PIPE] |375| 
        AND       A1, A1, #32640        ; [DPU_V7M3_PIPE] |375| 
        CMP       A1, #32640            ; [DPU_V7M3_PIPE] |375| 
        BNE       ||$C$L34||            ; [DPU_V7M3_PIPE] |375| 
        ; BRANCHCC OCCURS {||$C$L34||}   ; [] |375| 
;* --------------------------------------------------------------------------*
        LDR       A1, [SP, #0]          ; [DPU_V7M3_PIPE] |375| 
        BFC       A1, #23, #9           ; [DPU_V7M3_PIPE] |375| 
        CBNZ      A1, ||$C$L34||        ; [] 
        ; BRANCHCC OCCURS {||$C$L34||}   ; [] |375| 
;* --------------------------------------------------------------------------*
        MOVS      A2, #1                ; [DPU_V7M3_PIPE] |375| 
;* --------------------------------------------------------------------------*
||$C$L34||:    
        MOV       A1, A2                ; [DPU_V7M3_PIPE] |375| 
	.dwpsn	file "C:/ti/ccs1230/ccs/tools/compiler/ti-cgt-arm_20.2.7.LTS/include/_defs.h",line 375,column 72,is_stmt,isa 1
        ADD       SP, SP, #8            ; [DPU_V7M3_PIPE] 
	.dwcfi	cfa_offset, 0
$C$DW$125	.dwtag  DW_TAG_TI_branch
	.dwattr $C$DW$125, DW_AT_low_pc(0x00)
	.dwattr $C$DW$125, DW_AT_TI_return

        BX        LR                    ; [DPU_V7M3_PIPE] 
        ; BRANCH OCCURS                  ; [] 
	.dwattr $C$DW$122, DW_AT_TI_end_file("C:/ti/ccs1230/ccs/tools/compiler/ti-cgt-arm_20.2.7.LTS/include/_defs.h")
	.dwattr $C$DW$122, DW_AT_TI_end_line(0x177)
	.dwattr $C$DW$122, DW_AT_TI_end_column(0x48)
	.dwendentry
	.dwendtag $C$DW$122

	.sect	".text:__isinf"
	.clink
	.thumbfunc __isinf
	.thumb
	.global	__isinf

$C$DW$126	.dwtag  DW_TAG_subprogram
	.dwattr $C$DW$126, DW_AT_name("__isinf")
	.dwattr $C$DW$126, DW_AT_low_pc(__isinf)
	.dwattr $C$DW$126, DW_AT_high_pc(0x00)
	.dwattr $C$DW$126, DW_AT_TI_symbol_name("__isinf")
	.dwattr $C$DW$126, DW_AT_external
	.dwattr $C$DW$126, DW_AT_type(*$C$DW$T$10)
	.dwattr $C$DW$126, DW_AT_TI_begin_file("C:/ti/ccs1230/ccs/tools/compiler/ti-cgt-arm_20.2.7.LTS/include/_defs.h")
	.dwattr $C$DW$126, DW_AT_TI_begin_line(0x178)
	.dwattr $C$DW$126, DW_AT_TI_begin_column(0x25)
	.dwattr $C$DW$126, DW_AT_decl_file("C:/ti/ccs1230/ccs/tools/compiler/ti-cgt-arm_20.2.7.LTS/include/_defs.h")
	.dwattr $C$DW$126, DW_AT_decl_line(0x178)
	.dwattr $C$DW$126, DW_AT_decl_column(0x25)
	.dwattr $C$DW$126, DW_AT_TI_max_frame_size(0x18)
	.dwpsn	file "C:/ti/ccs1230/ccs/tools/compiler/ti-cgt-arm_20.2.7.LTS/include/_defs.h",line 377,column 1,is_stmt,address __isinf,isa 1

	.dwfde $C$DW$CIE, __isinf
$C$DW$127	.dwtag  DW_TAG_formal_parameter
	.dwattr $C$DW$127, DW_AT_name("d")
	.dwattr $C$DW$127, DW_AT_TI_symbol_name("d")
	.dwattr $C$DW$127, DW_AT_type(*$C$DW$T$17)
	.dwattr $C$DW$127, DW_AT_location[DW_OP_regx 0x40]

;----------------------------------------------------------------------
; 376 | _CODE_ACCESS _INLINE_DEFINITION int __isinf (double d)                 
;----------------------------------------------------------------------

;*****************************************************************************
;* FUNCTION NAME: __isinf                                                    *
;*                                                                           *
;*   Regs Modified     : A1,A2,A3,A4,V1,V2,V4,SP,SR                          *
;*   Regs Used         : A1,A2,A3,A4,V1,V2,V4,SP,LR,SR,D0,D0_hi              *
;*   Local Frame Size  : 0 Args + 8 Auto + 16 Save = 24 byte                 *
;*****************************************************************************
__isinf:
;* --------------------------------------------------------------------------*
	.dwcfi	cfa_offset, 0
        PUSH      {A3, A4, V1, V2, V4, LR} ; [DPU_V7M3_PIPE] 
	.dwcfi	cfa_offset, 24
	.dwcfi	save_reg_to_mem, 14, -4
	.dwcfi	save_reg_to_mem, 7, -8
	.dwcfi	save_reg_to_mem, 5, -12
	.dwcfi	save_reg_to_mem, 4, -16
	.dwcfi	save_reg_to_mem, 3, -20
	.dwcfi	save_reg_to_mem, 2, -24
$C$DW$128	.dwtag  DW_TAG_variable
	.dwattr $C$DW$128, DW_AT_name("d")
	.dwattr $C$DW$128, DW_AT_TI_symbol_name("d")
	.dwattr $C$DW$128, DW_AT_type(*$C$DW$T$17)
	.dwattr $C$DW$128, DW_AT_location[DW_OP_breg13 0]

;----------------------------------------------------------------------
; 377 | { return __DOUBLE_BIASED_EXP_IS_MAX(d) && __DOUBLE_FRAC_PART_IS_ZERO(d)
;     | ; }                                                                    
;----------------------------------------------------------------------
        VMOV      A1,A2, D0             ; [DPU_MERLIN_PIPE] |377| 
        STMIA     SP, {A1,A2}           ; [DPU_V7M3_PIPE] |377| 
	.dwpsn	file "C:/ti/ccs1230/ccs/tools/compiler/ti-cgt-arm_20.2.7.LTS/include/_defs.h",line 377,column 3,is_stmt,isa 1
        LDMIA     SP, {A2,A3}           ; [DPU_V7M3_PIPE] |377| 
        MOVS      A1, #0                ; [DPU_V7M3_PIPE] |377| 
        MOV       A2, A3                ; [DPU_V7M3_PIPE] |377| 
        LSLS      A3, A2, #0            ; [DPU_V7M3_PIPE] |377| 
        MOVS      A2, #0                ; [DPU_V7M3_PIPE] |377| 
        ORRS      A2, A2, A3            ; [DPU_V7M3_PIPE] |377| 
        LSRS      A3, A2, #16           ; [DPU_V7M3_PIPE] |377| 
        MOV       A2, #32752            ; [DPU_V7M3_PIPE] |377| 
        ANDS      A2, A2, A3            ; [DPU_V7M3_PIPE] |377| 
        MOV       A3, #32752            ; [DPU_V7M3_PIPE] |377| 
        CMP       A3, A2                ; [DPU_V7M3_PIPE] |377| 
        BNE       ||$C$L36||            ; [DPU_V7M3_PIPE] |377| 
        ; BRANCHCC OCCURS {||$C$L36||}   ; [] |377| 
;* --------------------------------------------------------------------------*
        LDMIA     SP, {A2,A3}           ; [DPU_V7M3_PIPE] |377| 
        LDR       V4, $C$CON3           ; [DPU_V7M3_PIPE] |377| 
        MOV       A2, A3                ; [DPU_V7M3_PIPE] |377| 
        LDMIA     SP, {A3,A4}           ; [DPU_V7M3_PIPE] |377| 
        MOVS      V2, #0                ; [DPU_V7M3_PIPE] |377| 
        LSLS      V1, A2, #0            ; [DPU_V7M3_PIPE] |377| 
        MOVS      A2, #0                ; [DPU_V7M3_PIPE] |377| 
        MOV       A4, #-1               ; [DPU_V7M3_PIPE] |377| 
        ORRS      A3, A3, V2            ; [DPU_V7M3_PIPE] |377| 
        ORRS      A2, A2, V1            ; [DPU_V7M3_PIPE] |377| 
        ANDS      A4, A4, A3            ; [DPU_V7M3_PIPE] |377| 
        ANDS      V4, V4, A2            ; [DPU_V7M3_PIPE] |377| 
        BNE       ||$C$L35||            ; [DPU_V7M3_PIPE] |377| 
        ; BRANCHCC OCCURS {||$C$L35||}   ; [] |377| 
;* --------------------------------------------------------------------------*
        CMP       A4, #0                ; [DPU_V7M3_PIPE] |377| 
;* --------------------------------------------------------------------------*
||$C$L35||:    
        BNE       ||$C$L36||            ; [DPU_V7M3_PIPE] |377| 
        ; BRANCHCC OCCURS {||$C$L36||}   ; [] |377| 
;* --------------------------------------------------------------------------*
        MOVS      A1, #1                ; [DPU_V7M3_PIPE] |377| 
;* --------------------------------------------------------------------------*
||$C$L36||:    
	.dwpsn	file "C:/ti/ccs1230/ccs/tools/compiler/ti-cgt-arm_20.2.7.LTS/include/_defs.h",line 377,column 74,is_stmt,isa 1
$C$DW$129	.dwtag  DW_TAG_TI_branch
	.dwattr $C$DW$129, DW_AT_low_pc(0x00)
	.dwattr $C$DW$129, DW_AT_TI_return

        POP       {A3, A4, V1, V2, V4, PC} ; [DPU_V7M3_PIPE] 
	.dwcfi	cfa_offset, 0
	.dwcfi	restore_reg, 7
	.dwcfi	restore_reg, 5
	.dwcfi	restore_reg, 4
	.dwcfi	restore_reg, 3
	.dwcfi	restore_reg, 2
        ; BRANCH OCCURS                  ; [] 
	.dwattr $C$DW$126, DW_AT_TI_end_file("C:/ti/ccs1230/ccs/tools/compiler/ti-cgt-arm_20.2.7.LTS/include/_defs.h")
	.dwattr $C$DW$126, DW_AT_TI_end_line(0x179)
	.dwattr $C$DW$126, DW_AT_TI_end_column(0x4a)
	.dwendentry
	.dwendtag $C$DW$126

	.sect	".text:__isinfl"
	.clink
	.thumbfunc __isinfl
	.thumb
	.global	__isinfl

$C$DW$130	.dwtag  DW_TAG_subprogram
	.dwattr $C$DW$130, DW_AT_name("__isinfl")
	.dwattr $C$DW$130, DW_AT_low_pc(__isinfl)
	.dwattr $C$DW$130, DW_AT_high_pc(0x00)
	.dwattr $C$DW$130, DW_AT_TI_symbol_name("__isinfl")
	.dwattr $C$DW$130, DW_AT_external
	.dwattr $C$DW$130, DW_AT_type(*$C$DW$T$10)
	.dwattr $C$DW$130, DW_AT_TI_begin_file("C:/ti/ccs1230/ccs/tools/compiler/ti-cgt-arm_20.2.7.LTS/include/_defs.h")
	.dwattr $C$DW$130, DW_AT_TI_begin_line(0x17a)
	.dwattr $C$DW$130, DW_AT_TI_begin_column(0x25)
	.dwattr $C$DW$130, DW_AT_decl_file("C:/ti/ccs1230/ccs/tools/compiler/ti-cgt-arm_20.2.7.LTS/include/_defs.h")
	.dwattr $C$DW$130, DW_AT_decl_line(0x17a)
	.dwattr $C$DW$130, DW_AT_decl_column(0x25)
	.dwattr $C$DW$130, DW_AT_TI_max_frame_size(0x18)
	.dwpsn	file "C:/ti/ccs1230/ccs/tools/compiler/ti-cgt-arm_20.2.7.LTS/include/_defs.h",line 379,column 1,is_stmt,address __isinfl,isa 1

	.dwfde $C$DW$CIE, __isinfl
$C$DW$131	.dwtag  DW_TAG_formal_parameter
	.dwattr $C$DW$131, DW_AT_name("e")
	.dwattr $C$DW$131, DW_AT_TI_symbol_name("e")
	.dwattr $C$DW$131, DW_AT_type(*$C$DW$T$18)
	.dwattr $C$DW$131, DW_AT_location[DW_OP_regx 0x40]

;----------------------------------------------------------------------
; 378 | _CODE_ACCESS _INLINE_DEFINITION int __isinfl(long double e)            
;----------------------------------------------------------------------

;*****************************************************************************
;* FUNCTION NAME: __isinfl                                                   *
;*                                                                           *
;*   Regs Modified     : A1,A2,A3,A4,V1,V2,V4,SP,SR                          *
;*   Regs Used         : A1,A2,A3,A4,V1,V2,V4,SP,LR,SR,D0,D0_hi              *
;*   Local Frame Size  : 0 Args + 8 Auto + 16 Save = 24 byte                 *
;*****************************************************************************
__isinfl:
;* --------------------------------------------------------------------------*
	.dwcfi	cfa_offset, 0
        PUSH      {A3, A4, V1, V2, V4, LR} ; [DPU_V7M3_PIPE] 
	.dwcfi	cfa_offset, 24
	.dwcfi	save_reg_to_mem, 14, -4
	.dwcfi	save_reg_to_mem, 7, -8
	.dwcfi	save_reg_to_mem, 5, -12
	.dwcfi	save_reg_to_mem, 4, -16
	.dwcfi	save_reg_to_mem, 3, -20
	.dwcfi	save_reg_to_mem, 2, -24
$C$DW$132	.dwtag  DW_TAG_variable
	.dwattr $C$DW$132, DW_AT_name("e")
	.dwattr $C$DW$132, DW_AT_TI_symbol_name("e")
	.dwattr $C$DW$132, DW_AT_type(*$C$DW$T$18)
	.dwattr $C$DW$132, DW_AT_location[DW_OP_breg13 0]

;----------------------------------------------------------------------
; 379 | { return __LDOUBLE_BIASED_EXP_IS_MAX(e) && __LDOUBLE_FRAC_PART_IS_ZERO(
;     | e); }                                                                  
;----------------------------------------------------------------------
        VMOV      A1,A2, D0             ; [DPU_MERLIN_PIPE] |379| 
        STMIA     SP, {A1,A2}           ; [DPU_V7M3_PIPE] |379| 
	.dwpsn	file "C:/ti/ccs1230/ccs/tools/compiler/ti-cgt-arm_20.2.7.LTS/include/_defs.h",line 379,column 3,is_stmt,isa 1
        LDMIA     SP, {A2,A3}           ; [DPU_V7M3_PIPE] |379| 
        MOVS      A1, #0                ; [DPU_V7M3_PIPE] |379| 
        MOV       A2, A3                ; [DPU_V7M3_PIPE] |379| 
        LSLS      A3, A2, #0            ; [DPU_V7M3_PIPE] |379| 
        MOVS      A2, #0                ; [DPU_V7M3_PIPE] |379| 
        ORRS      A2, A2, A3            ; [DPU_V7M3_PIPE] |379| 
        LSRS      A3, A2, #16           ; [DPU_V7M3_PIPE] |379| 
        MOV       A2, #32752            ; [DPU_V7M3_PIPE] |379| 
        ANDS      A2, A2, A3            ; [DPU_V7M3_PIPE] |379| 
        MOV       A3, #32752            ; [DPU_V7M3_PIPE] |379| 
        CMP       A3, A2                ; [DPU_V7M3_PIPE] |379| 
        BNE       ||$C$L38||            ; [DPU_V7M3_PIPE] |379| 
        ; BRANCHCC OCCURS {||$C$L38||}   ; [] |379| 
;* --------------------------------------------------------------------------*
        LDMIA     SP, {A2,A3}           ; [DPU_V7M3_PIPE] |379| 
        LDR       V4, $C$CON4           ; [DPU_V7M3_PIPE] |379| 
        MOV       A2, A3                ; [DPU_V7M3_PIPE] |379| 
        LDMIA     SP, {A3,A4}           ; [DPU_V7M3_PIPE] |379| 
        MOVS      V2, #0                ; [DPU_V7M3_PIPE] |379| 
        LSLS      V1, A2, #0            ; [DPU_V7M3_PIPE] |379| 
        MOVS      A2, #0                ; [DPU_V7M3_PIPE] |379| 
        MOV       A4, #-1               ; [DPU_V7M3_PIPE] |379| 
        ORRS      A3, A3, V2            ; [DPU_V7M3_PIPE] |379| 
        ORRS      A2, A2, V1            ; [DPU_V7M3_PIPE] |379| 
        ANDS      A4, A4, A3            ; [DPU_V7M3_PIPE] |379| 
        ANDS      V4, V4, A2            ; [DPU_V7M3_PIPE] |379| 
        BNE       ||$C$L37||            ; [DPU_V7M3_PIPE] |379| 
        ; BRANCHCC OCCURS {||$C$L37||}   ; [] |379| 
;* --------------------------------------------------------------------------*
        CMP       A4, #0                ; [DPU_V7M3_PIPE] |379| 
;* --------------------------------------------------------------------------*
||$C$L37||:    
        BNE       ||$C$L38||            ; [DPU_V7M3_PIPE] |379| 
        ; BRANCHCC OCCURS {||$C$L38||}   ; [] |379| 
;* --------------------------------------------------------------------------*
        MOVS      A1, #1                ; [DPU_V7M3_PIPE] |379| 
;* --------------------------------------------------------------------------*
||$C$L38||:    
	.dwpsn	file "C:/ti/ccs1230/ccs/tools/compiler/ti-cgt-arm_20.2.7.LTS/include/_defs.h",line 379,column 76,is_stmt,isa 1
$C$DW$133	.dwtag  DW_TAG_TI_branch
	.dwattr $C$DW$133, DW_AT_low_pc(0x00)
	.dwattr $C$DW$133, DW_AT_TI_return

        POP       {A3, A4, V1, V2, V4, PC} ; [DPU_V7M3_PIPE] 
	.dwcfi	cfa_offset, 0
	.dwcfi	restore_reg, 7
	.dwcfi	restore_reg, 5
	.dwcfi	restore_reg, 4
	.dwcfi	restore_reg, 3
	.dwcfi	restore_reg, 2
        ; BRANCH OCCURS                  ; [] 
	.dwattr $C$DW$130, DW_AT_TI_end_file("C:/ti/ccs1230/ccs/tools/compiler/ti-cgt-arm_20.2.7.LTS/include/_defs.h")
	.dwattr $C$DW$130, DW_AT_TI_end_line(0x17b)
	.dwattr $C$DW$130, DW_AT_TI_end_column(0x4c)
	.dwendentry
	.dwendtag $C$DW$130

	.sect	".text:__fpclassifyf"
	.clink
	.thumbfunc __fpclassifyf
	.thumb
	.global	__fpclassifyf

$C$DW$134	.dwtag  DW_TAG_subprogram
	.dwattr $C$DW$134, DW_AT_name("__fpclassifyf")
	.dwattr $C$DW$134, DW_AT_low_pc(__fpclassifyf)
	.dwattr $C$DW$134, DW_AT_high_pc(0x00)
	.dwattr $C$DW$134, DW_AT_TI_symbol_name("__fpclassifyf")
	.dwattr $C$DW$134, DW_AT_external
	.dwattr $C$DW$134, DW_AT_type(*$C$DW$T$10)
	.dwattr $C$DW$134, DW_AT_TI_begin_file("C:/ti/ccs1230/ccs/tools/compiler/ti-cgt-arm_20.2.7.LTS/include/_defs.h")
	.dwattr $C$DW$134, DW_AT_TI_begin_line(0x18c)
	.dwattr $C$DW$134, DW_AT_TI_begin_column(0x25)
	.dwattr $C$DW$134, DW_AT_decl_file("C:/ti/ccs1230/ccs/tools/compiler/ti-cgt-arm_20.2.7.LTS/include/_defs.h")
	.dwattr $C$DW$134, DW_AT_decl_line(0x18c)
	.dwattr $C$DW$134, DW_AT_decl_column(0x25)
	.dwattr $C$DW$134, DW_AT_TI_max_frame_size(0x08)
	.dwpsn	file "C:/ti/ccs1230/ccs/tools/compiler/ti-cgt-arm_20.2.7.LTS/include/_defs.h",line 397,column 1,is_stmt,address __fpclassifyf,isa 1

	.dwfde $C$DW$CIE, __fpclassifyf
$C$DW$135	.dwtag  DW_TAG_formal_parameter
	.dwattr $C$DW$135, DW_AT_name("f")
	.dwattr $C$DW$135, DW_AT_TI_symbol_name("f")
	.dwattr $C$DW$135, DW_AT_type(*$C$DW$T$16)
	.dwattr $C$DW$135, DW_AT_location[DW_OP_regx 0x40]

;----------------------------------------------------------------------
; 396 | _CODE_ACCESS _INLINE_DEFINITION int __fpclassifyf(float f)             
;----------------------------------------------------------------------

;*****************************************************************************
;* FUNCTION NAME: __fpclassifyf                                              *
;*                                                                           *
;*   Regs Modified     : A1,SP,SR                                            *
;*   Regs Used         : A1,SP,LR,SR,D0                                      *
;*   Local Frame Size  : 0 Args + 4 Auto + 0 Save = 4 byte                   *
;*****************************************************************************
__fpclassifyf:
;* --------------------------------------------------------------------------*
	.dwcfi	cfa_offset, 0
        SUB       SP, SP, #8            ; [DPU_V7M3_PIPE] 
	.dwcfi	cfa_offset, 8
$C$DW$136	.dwtag  DW_TAG_variable
	.dwattr $C$DW$136, DW_AT_name("f")
	.dwattr $C$DW$136, DW_AT_TI_symbol_name("f")
	.dwattr $C$DW$136, DW_AT_type(*$C$DW$T$16)
	.dwattr $C$DW$136, DW_AT_location[DW_OP_breg13 0]

        VSTR.32   S0, [SP, #0]          ; [DPU_MERLIN_PIPE] |397| 
	.dwpsn	file "C:/ti/ccs1230/ccs/tools/compiler/ti-cgt-arm_20.2.7.LTS/include/_defs.h",line 398,column 5,is_stmt,isa 1
;----------------------------------------------------------------------
; 398 | if (__FLOAT_BIASED_EXP_IS_MAX(f))                                      
;----------------------------------------------------------------------
        LDR       A1, [SP, #0]          ; [DPU_V7M3_PIPE] |398| 
        LSRS      A1, A1, #16           ; [DPU_V7M3_PIPE] |398| 
        AND       A1, A1, #32640        ; [DPU_V7M3_PIPE] |398| 
        CMP       A1, #32640            ; [DPU_V7M3_PIPE] |398| 
        BNE       ||$C$L40||            ; [DPU_V7M3_PIPE] |398| 
        ; BRANCHCC OCCURS {||$C$L40||}   ; [] |398| 
;* --------------------------------------------------------------------------*
	.dwpsn	file "C:/ti/ccs1230/ccs/tools/compiler/ti-cgt-arm_20.2.7.LTS/include/_defs.h",line 400,column 9,is_stmt,isa 1
;----------------------------------------------------------------------
; 400 | if (__FLOAT_FRAC_PART_IS_ZERO(f))                                      
;----------------------------------------------------------------------
        LDR       A1, [SP, #0]          ; [DPU_V7M3_PIPE] |400| 
        BFC       A1, #23, #9           ; [DPU_V7M3_PIPE] |400| 
        CBNZ      A1, ||$C$L39||        ; [] 
        ; BRANCHCC OCCURS {||$C$L39||}   ; [] |400| 
;* --------------------------------------------------------------------------*
	.dwpsn	file "C:/ti/ccs1230/ccs/tools/compiler/ti-cgt-arm_20.2.7.LTS/include/_defs.h",line 401,column 13,is_stmt,isa 1
;----------------------------------------------------------------------
; 401 | return __FP_INFINITE;                                                  
;----------------------------------------------------------------------
        MOVS      A1, #1                ; [DPU_V7M3_PIPE] |401| 
        B         ||$C$L43||            ; [DPU_V7M3_PIPE] |401| 
        ; BRANCH OCCURS {||$C$L43||}     ; [] |401| 
;* --------------------------------------------------------------------------*
||$C$L39||:    
	.dwpsn	file "C:/ti/ccs1230/ccs/tools/compiler/ti-cgt-arm_20.2.7.LTS/include/_defs.h",line 402,column 14,is_stmt,isa 1
;----------------------------------------------------------------------
; 402 | else return __FP_NAN;                                                  
;----------------------------------------------------------------------
        MOVS      A1, #2                ; [DPU_V7M3_PIPE] |402| 
        B         ||$C$L43||            ; [DPU_V7M3_PIPE] |402| 
        ; BRANCH OCCURS {||$C$L43||}     ; [] |402| 
;* --------------------------------------------------------------------------*
||$C$L40||:    
	.dwpsn	file "C:/ti/ccs1230/ccs/tools/compiler/ti-cgt-arm_20.2.7.LTS/include/_defs.h",line 404,column 5,is_stmt,isa 1
;----------------------------------------------------------------------
; 404 | if (__FLOAT_BIASED_EXP_IS_ZERO(f))                                     
;----------------------------------------------------------------------
        LDR       A1, [SP, #0]          ; [DPU_V7M3_PIPE] |404| 
        UBFX      A1, A1, #23, #8       ; [DPU_V7M3_PIPE] |404| 
        CBNZ      A1, ||$C$L42||        ; [] 
        ; BRANCHCC OCCURS {||$C$L42||}   ; [] |404| 
;* --------------------------------------------------------------------------*
	.dwpsn	file "C:/ti/ccs1230/ccs/tools/compiler/ti-cgt-arm_20.2.7.LTS/include/_defs.h",line 406,column 9,is_stmt,isa 1
;----------------------------------------------------------------------
; 406 | if (__FLOAT_FRAC_PART_IS_ZERO(f))                                      
;----------------------------------------------------------------------
        LDR       A1, [SP, #0]          ; [DPU_V7M3_PIPE] |406| 
        BFC       A1, #23, #9           ; [DPU_V7M3_PIPE] |406| 
        CBNZ      A1, ||$C$L41||        ; [] 
        ; BRANCHCC OCCURS {||$C$L41||}   ; [] |406| 
;* --------------------------------------------------------------------------*
	.dwpsn	file "C:/ti/ccs1230/ccs/tools/compiler/ti-cgt-arm_20.2.7.LTS/include/_defs.h",line 407,column 13,is_stmt,isa 1
;----------------------------------------------------------------------
; 407 | return __FP_ZERO;                                                      
;----------------------------------------------------------------------
        MOVS      A1, #0                ; [DPU_V7M3_PIPE] |407| 
        B         ||$C$L43||            ; [DPU_V7M3_PIPE] |407| 
        ; BRANCH OCCURS {||$C$L43||}     ; [] |407| 
;* --------------------------------------------------------------------------*
||$C$L41||:    
	.dwpsn	file "C:/ti/ccs1230/ccs/tools/compiler/ti-cgt-arm_20.2.7.LTS/include/_defs.h",line 408,column 14,is_stmt,isa 1
;----------------------------------------------------------------------
; 408 | else return __FP_SUBNORMAL;                                            
;----------------------------------------------------------------------
        MVN       A1, #1                ; [DPU_V7M3_PIPE] |408| 
        B         ||$C$L43||            ; [DPU_V7M3_PIPE] |408| 
        ; BRANCH OCCURS {||$C$L43||}     ; [] |408| 
;* --------------------------------------------------------------------------*
||$C$L42||:    
	.dwpsn	file "C:/ti/ccs1230/ccs/tools/compiler/ti-cgt-arm_20.2.7.LTS/include/_defs.h",line 410,column 5,is_stmt,isa 1
;----------------------------------------------------------------------
; 410 | return __FP_NORMAL;                                                    
;----------------------------------------------------------------------
        MOV       A1, #-1               ; [DPU_V7M3_PIPE] |410| 
;* --------------------------------------------------------------------------*
||$C$L43||:    
	.dwpsn	file "C:/ti/ccs1230/ccs/tools/compiler/ti-cgt-arm_20.2.7.LTS/include/_defs.h",line 411,column 1,is_stmt,isa 1
        ADD       SP, SP, #8            ; [DPU_V7M3_PIPE] 
	.dwcfi	cfa_offset, 0
$C$DW$137	.dwtag  DW_TAG_TI_branch
	.dwattr $C$DW$137, DW_AT_low_pc(0x00)
	.dwattr $C$DW$137, DW_AT_TI_return

        BX        LR                    ; [DPU_V7M3_PIPE] 
        ; BRANCH OCCURS                  ; [] 
	.dwattr $C$DW$134, DW_AT_TI_end_file("C:/ti/ccs1230/ccs/tools/compiler/ti-cgt-arm_20.2.7.LTS/include/_defs.h")
	.dwattr $C$DW$134, DW_AT_TI_end_line(0x19b)
	.dwattr $C$DW$134, DW_AT_TI_end_column(0x01)
	.dwendentry
	.dwendtag $C$DW$134

	.sect	".text:__fpclassify"
	.clink
	.thumbfunc __fpclassify
	.thumb
	.global	__fpclassify

$C$DW$138	.dwtag  DW_TAG_subprogram
	.dwattr $C$DW$138, DW_AT_name("__fpclassify")
	.dwattr $C$DW$138, DW_AT_low_pc(__fpclassify)
	.dwattr $C$DW$138, DW_AT_high_pc(0x00)
	.dwattr $C$DW$138, DW_AT_TI_symbol_name("__fpclassify")
	.dwattr $C$DW$138, DW_AT_external
	.dwattr $C$DW$138, DW_AT_type(*$C$DW$T$10)
	.dwattr $C$DW$138, DW_AT_TI_begin_file("C:/ti/ccs1230/ccs/tools/compiler/ti-cgt-arm_20.2.7.LTS/include/_defs.h")
	.dwattr $C$DW$138, DW_AT_TI_begin_line(0x19d)
	.dwattr $C$DW$138, DW_AT_TI_begin_column(0x25)
	.dwattr $C$DW$138, DW_AT_decl_file("C:/ti/ccs1230/ccs/tools/compiler/ti-cgt-arm_20.2.7.LTS/include/_defs.h")
	.dwattr $C$DW$138, DW_AT_decl_line(0x19d)
	.dwattr $C$DW$138, DW_AT_decl_column(0x25)
	.dwattr $C$DW$138, DW_AT_TI_max_frame_size(0x10)
	.dwpsn	file "C:/ti/ccs1230/ccs/tools/compiler/ti-cgt-arm_20.2.7.LTS/include/_defs.h",line 414,column 1,is_stmt,address __fpclassify,isa 1

	.dwfde $C$DW$CIE, __fpclassify
$C$DW$139	.dwtag  DW_TAG_formal_parameter
	.dwattr $C$DW$139, DW_AT_name("d")
	.dwattr $C$DW$139, DW_AT_TI_symbol_name("d")
	.dwattr $C$DW$139, DW_AT_type(*$C$DW$T$17)
	.dwattr $C$DW$139, DW_AT_location[DW_OP_regx 0x40]

;----------------------------------------------------------------------
; 413 | _CODE_ACCESS _INLINE_DEFINITION int __fpclassify (double d)            
;----------------------------------------------------------------------

;*****************************************************************************
;* FUNCTION NAME: __fpclassify                                               *
;*                                                                           *
;*   Regs Modified     : A1,A2,A3,A4,V1,SP,SR                                *
;*   Regs Used         : A1,A2,A3,A4,V1,SP,LR,SR,D0,D0_hi                    *
;*   Local Frame Size  : 0 Args + 8 Auto + 8 Save = 16 byte                  *
;*****************************************************************************
__fpclassify:
;* --------------------------------------------------------------------------*
	.dwcfi	cfa_offset, 0
        PUSH      {A3, A4, V1, LR}      ; [DPU_V7M3_PIPE] 
	.dwcfi	cfa_offset, 16
	.dwcfi	save_reg_to_mem, 14, -4
	.dwcfi	save_reg_to_mem, 4, -8
	.dwcfi	save_reg_to_mem, 3, -12
	.dwcfi	save_reg_to_mem, 2, -16
$C$DW$140	.dwtag  DW_TAG_variable
	.dwattr $C$DW$140, DW_AT_name("d")
	.dwattr $C$DW$140, DW_AT_TI_symbol_name("d")
	.dwattr $C$DW$140, DW_AT_type(*$C$DW$T$17)
	.dwattr $C$DW$140, DW_AT_location[DW_OP_breg13 0]

        VMOV      A1,A2, D0             ; [DPU_MERLIN_PIPE] |414| 
        STMIA     SP, {A1,A2}           ; [DPU_V7M3_PIPE] |414| 
	.dwpsn	file "C:/ti/ccs1230/ccs/tools/compiler/ti-cgt-arm_20.2.7.LTS/include/_defs.h",line 415,column 5,is_stmt,isa 1
;----------------------------------------------------------------------
; 415 | if (__DOUBLE_BIASED_EXP_IS_MAX(d))                                     
;----------------------------------------------------------------------
        LDMIA     SP, {A2,A3}           ; [DPU_V7M3_PIPE] |415| 
        MOV       A1, A3                ; [DPU_V7M3_PIPE] |415| 
        LSLS      A2, A1, #0            ; [DPU_V7M3_PIPE] |415| 
        MOVS      A1, #0                ; [DPU_V7M3_PIPE] |415| 
        ORRS      A1, A1, A2            ; [DPU_V7M3_PIPE] |415| 
        LSRS      A2, A1, #16           ; [DPU_V7M3_PIPE] |415| 
        MOV       A1, #32752            ; [DPU_V7M3_PIPE] |415| 
        ANDS      A1, A1, A2            ; [DPU_V7M3_PIPE] |415| 
        MOV       A2, #32752            ; [DPU_V7M3_PIPE] |415| 
        CMP       A2, A1                ; [DPU_V7M3_PIPE] |415| 
        BNE       ||$C$L46||            ; [DPU_V7M3_PIPE] |415| 
        ; BRANCHCC OCCURS {||$C$L46||}   ; [] |415| 
;* --------------------------------------------------------------------------*
	.dwpsn	file "C:/ti/ccs1230/ccs/tools/compiler/ti-cgt-arm_20.2.7.LTS/include/_defs.h",line 417,column 9,is_stmt,isa 1
;----------------------------------------------------------------------
; 417 | if (__DOUBLE_FRAC_PART_IS_ZERO(d))                                     
;----------------------------------------------------------------------
        LDMIA     SP, {A2,A3}           ; [DPU_V7M3_PIPE] |417| 
        MOV       A1, A3                ; [DPU_V7M3_PIPE] |417| 
        LDMIA     SP, {A3,A4}           ; [DPU_V7M3_PIPE] |417| 
        MOVS      A2, #0                ; [DPU_V7M3_PIPE] |417| 
        LSLS      A1, A1, #0            ; [DPU_V7M3_PIPE] |417| 
        ORRS      A2, A2, A1            ; [DPU_V7M3_PIPE] |417| 
        LDR       A1, $C$CON5           ; [DPU_V7M3_PIPE] |417| 
        MOVS      V1, #0                ; [DPU_V7M3_PIPE] |417| 
        MOV       A4, #-1               ; [DPU_V7M3_PIPE] |417| 
        ORRS      A3, A3, V1            ; [DPU_V7M3_PIPE] |417| 
        ANDS      A4, A4, A3            ; [DPU_V7M3_PIPE] |417| 
        ANDS      A1, A1, A2            ; [DPU_V7M3_PIPE] |417| 
        BNE       ||$C$L44||            ; [DPU_V7M3_PIPE] |417| 
        ; BRANCHCC OCCURS {||$C$L44||}   ; [] |417| 
;* --------------------------------------------------------------------------*
        CMP       A4, #0                ; [DPU_V7M3_PIPE] |417| 
;* --------------------------------------------------------------------------*
||$C$L44||:    
        BNE       ||$C$L45||            ; [DPU_V7M3_PIPE] |417| 
        ; BRANCHCC OCCURS {||$C$L45||}   ; [] |417| 
;* --------------------------------------------------------------------------*
	.dwpsn	file "C:/ti/ccs1230/ccs/tools/compiler/ti-cgt-arm_20.2.7.LTS/include/_defs.h",line 418,column 13,is_stmt,isa 1
;----------------------------------------------------------------------
; 418 | return __FP_INFINITE;                                                  
;----------------------------------------------------------------------
        MOVS      A1, #1                ; [DPU_V7M3_PIPE] |418| 
        B         ||$C$L51||            ; [DPU_V7M3_PIPE] |418| 
        ; BRANCH OCCURS {||$C$L51||}     ; [] |418| 
;* --------------------------------------------------------------------------*
||$C$L45||:    
	.dwpsn	file "C:/ti/ccs1230/ccs/tools/compiler/ti-cgt-arm_20.2.7.LTS/include/_defs.h",line 419,column 14,is_stmt,isa 1
;----------------------------------------------------------------------
; 419 | else return __FP_NAN;                                                  
;----------------------------------------------------------------------
        MOVS      A1, #2                ; [DPU_V7M3_PIPE] |419| 
        B         ||$C$L51||            ; [DPU_V7M3_PIPE] |419| 
        ; BRANCH OCCURS {||$C$L51||}     ; [] |419| 
;* --------------------------------------------------------------------------*
||$C$L46||:    
	.dwpsn	file "C:/ti/ccs1230/ccs/tools/compiler/ti-cgt-arm_20.2.7.LTS/include/_defs.h",line 421,column 5,is_stmt,isa 1
;----------------------------------------------------------------------
; 421 | if (__DOUBLE_BIASED_EXP_IS_ZERO(d))                                    
;----------------------------------------------------------------------
        LDMIA     SP, {A2,A3}           ; [DPU_V7M3_PIPE] |421| 
        MOV       A1, A3                ; [DPU_V7M3_PIPE] |421| 
        LSLS      A2, A1, #0            ; [DPU_V7M3_PIPE] |421| 
        MOVS      A1, #0                ; [DPU_V7M3_PIPE] |421| 
        MOVS      A3, #0                ; [DPU_V7M3_PIPE] |421| 
        ORRS      A1, A1, A2            ; [DPU_V7M3_PIPE] |421| 
        LSRS      A4, A1, #20           ; [DPU_V7M3_PIPE] |421| 
        MOV       A1, #2047             ; [DPU_V7M3_PIPE] |421| 
        MOV       A2, A1                ; [DPU_V7M3_PIPE] |421| 
        ASRS      A1, A1, #31           ; [DPU_V7M3_PIPE] |421| 
        ANDS      A2, A2, A4            ; [DPU_V7M3_PIPE] |421| 
        ANDS      A1, A1, A3            ; [DPU_V7M3_PIPE] |421| 
        BNE       ||$C$L47||            ; [DPU_V7M3_PIPE] |421| 
        ; BRANCHCC OCCURS {||$C$L47||}   ; [] |421| 
;* --------------------------------------------------------------------------*
        CMP       A2, #0                ; [DPU_V7M3_PIPE] |421| 
;* --------------------------------------------------------------------------*
||$C$L47||:    
        BNE       ||$C$L50||            ; [DPU_V7M3_PIPE] |421| 
        ; BRANCHCC OCCURS {||$C$L50||}   ; [] |421| 
;* --------------------------------------------------------------------------*
	.dwpsn	file "C:/ti/ccs1230/ccs/tools/compiler/ti-cgt-arm_20.2.7.LTS/include/_defs.h",line 423,column 9,is_stmt,isa 1
;----------------------------------------------------------------------
; 423 | if (__DOUBLE_FRAC_PART_IS_ZERO(d))                                     
;----------------------------------------------------------------------
        LDMIA     SP, {A2,A3}           ; [DPU_V7M3_PIPE] |423| 
        MOV       A1, A3                ; [DPU_V7M3_PIPE] |423| 
        LDMIA     SP, {A3,A4}           ; [DPU_V7M3_PIPE] |423| 
        MOVS      A2, #0                ; [DPU_V7M3_PIPE] |423| 
        LSLS      A1, A1, #0            ; [DPU_V7M3_PIPE] |423| 
        ORRS      A2, A2, A1            ; [DPU_V7M3_PIPE] |423| 
        LDR       A1, $C$CON5           ; [DPU_V7M3_PIPE] |423| 
        MOVS      V1, #0                ; [DPU_V7M3_PIPE] |423| 
        MOV       A4, #-1               ; [DPU_V7M3_PIPE] |423| 
        ORRS      A3, A3, V1            ; [DPU_V7M3_PIPE] |423| 
        ANDS      A4, A4, A3            ; [DPU_V7M3_PIPE] |423| 
        ANDS      A1, A1, A2            ; [DPU_V7M3_PIPE] |423| 
        BNE       ||$C$L48||            ; [DPU_V7M3_PIPE] |423| 
        ; BRANCHCC OCCURS {||$C$L48||}   ; [] |423| 
;* --------------------------------------------------------------------------*
        CMP       A4, #0                ; [DPU_V7M3_PIPE] |423| 
;* --------------------------------------------------------------------------*
||$C$L48||:    
        BNE       ||$C$L49||            ; [DPU_V7M3_PIPE] |423| 
        ; BRANCHCC OCCURS {||$C$L49||}   ; [] |423| 
;* --------------------------------------------------------------------------*
	.dwpsn	file "C:/ti/ccs1230/ccs/tools/compiler/ti-cgt-arm_20.2.7.LTS/include/_defs.h",line 424,column 13,is_stmt,isa 1
;----------------------------------------------------------------------
; 424 | return __FP_ZERO;                                                      
;----------------------------------------------------------------------
        MOVS      A1, #0                ; [DPU_V7M3_PIPE] |424| 
        B         ||$C$L51||            ; [DPU_V7M3_PIPE] |424| 
        ; BRANCH OCCURS {||$C$L51||}     ; [] |424| 
;* --------------------------------------------------------------------------*
||$C$L49||:    
	.dwpsn	file "C:/ti/ccs1230/ccs/tools/compiler/ti-cgt-arm_20.2.7.LTS/include/_defs.h",line 425,column 14,is_stmt,isa 1
;----------------------------------------------------------------------
; 425 | else return __FP_SUBNORMAL;                                            
;----------------------------------------------------------------------
        MVN       A1, #1                ; [DPU_V7M3_PIPE] |425| 
        B         ||$C$L51||            ; [DPU_V7M3_PIPE] |425| 
        ; BRANCH OCCURS {||$C$L51||}     ; [] |425| 
;* --------------------------------------------------------------------------*
||$C$L50||:    
	.dwpsn	file "C:/ti/ccs1230/ccs/tools/compiler/ti-cgt-arm_20.2.7.LTS/include/_defs.h",line 427,column 5,is_stmt,isa 1
;----------------------------------------------------------------------
; 427 | return __FP_NORMAL;                                                    
;----------------------------------------------------------------------
        MOV       A1, #-1               ; [DPU_V7M3_PIPE] |427| 
;* --------------------------------------------------------------------------*
||$C$L51||:    
	.dwpsn	file "C:/ti/ccs1230/ccs/tools/compiler/ti-cgt-arm_20.2.7.LTS/include/_defs.h",line 428,column 1,is_stmt,isa 1
$C$DW$141	.dwtag  DW_TAG_TI_branch
	.dwattr $C$DW$141, DW_AT_low_pc(0x00)
	.dwattr $C$DW$141, DW_AT_TI_return

        POP       {A3, A4, V1, PC}      ; [DPU_V7M3_PIPE] 
	.dwcfi	cfa_offset, 0
	.dwcfi	restore_reg, 4
	.dwcfi	restore_reg, 3
	.dwcfi	restore_reg, 2
        ; BRANCH OCCURS                  ; [] 
	.dwattr $C$DW$138, DW_AT_TI_end_file("C:/ti/ccs1230/ccs/tools/compiler/ti-cgt-arm_20.2.7.LTS/include/_defs.h")
	.dwattr $C$DW$138, DW_AT_TI_end_line(0x1ac)
	.dwattr $C$DW$138, DW_AT_TI_end_column(0x01)
	.dwendentry
	.dwendtag $C$DW$138

	.sect	".text:__fpclassifyl"
	.clink
	.thumbfunc __fpclassifyl
	.thumb
	.global	__fpclassifyl

$C$DW$142	.dwtag  DW_TAG_subprogram
	.dwattr $C$DW$142, DW_AT_name("__fpclassifyl")
	.dwattr $C$DW$142, DW_AT_low_pc(__fpclassifyl)
	.dwattr $C$DW$142, DW_AT_high_pc(0x00)
	.dwattr $C$DW$142, DW_AT_TI_symbol_name("__fpclassifyl")
	.dwattr $C$DW$142, DW_AT_external
	.dwattr $C$DW$142, DW_AT_type(*$C$DW$T$10)
	.dwattr $C$DW$142, DW_AT_TI_begin_file("C:/ti/ccs1230/ccs/tools/compiler/ti-cgt-arm_20.2.7.LTS/include/_defs.h")
	.dwattr $C$DW$142, DW_AT_TI_begin_line(0x1ae)
	.dwattr $C$DW$142, DW_AT_TI_begin_column(0x25)
	.dwattr $C$DW$142, DW_AT_decl_file("C:/ti/ccs1230/ccs/tools/compiler/ti-cgt-arm_20.2.7.LTS/include/_defs.h")
	.dwattr $C$DW$142, DW_AT_decl_line(0x1ae)
	.dwattr $C$DW$142, DW_AT_decl_column(0x25)
	.dwattr $C$DW$142, DW_AT_TI_max_frame_size(0x10)
	.dwpsn	file "C:/ti/ccs1230/ccs/tools/compiler/ti-cgt-arm_20.2.7.LTS/include/_defs.h",line 431,column 1,is_stmt,address __fpclassifyl,isa 1

	.dwfde $C$DW$CIE, __fpclassifyl
$C$DW$143	.dwtag  DW_TAG_formal_parameter
	.dwattr $C$DW$143, DW_AT_name("e")
	.dwattr $C$DW$143, DW_AT_TI_symbol_name("e")
	.dwattr $C$DW$143, DW_AT_type(*$C$DW$T$18)
	.dwattr $C$DW$143, DW_AT_location[DW_OP_regx 0x40]

;----------------------------------------------------------------------
; 430 | _CODE_ACCESS _INLINE_DEFINITION int __fpclassifyl(long double e)       
;----------------------------------------------------------------------

;*****************************************************************************
;* FUNCTION NAME: __fpclassifyl                                              *
;*                                                                           *
;*   Regs Modified     : A1,A2,A3,A4,V1,SP,SR                                *
;*   Regs Used         : A1,A2,A3,A4,V1,SP,LR,SR,D0,D0_hi                    *
;*   Local Frame Size  : 0 Args + 8 Auto + 8 Save = 16 byte                  *
;*****************************************************************************
__fpclassifyl:
;* --------------------------------------------------------------------------*
	.dwcfi	cfa_offset, 0
        PUSH      {A3, A4, V1, LR}      ; [DPU_V7M3_PIPE] 
	.dwcfi	cfa_offset, 16
	.dwcfi	save_reg_to_mem, 14, -4
	.dwcfi	save_reg_to_mem, 4, -8
	.dwcfi	save_reg_to_mem, 3, -12
	.dwcfi	save_reg_to_mem, 2, -16
$C$DW$144	.dwtag  DW_TAG_variable
	.dwattr $C$DW$144, DW_AT_name("e")
	.dwattr $C$DW$144, DW_AT_TI_symbol_name("e")
	.dwattr $C$DW$144, DW_AT_type(*$C$DW$T$18)
	.dwattr $C$DW$144, DW_AT_location[DW_OP_breg13 0]

        VMOV      A1,A2, D0             ; [DPU_MERLIN_PIPE] |431| 
        STMIA     SP, {A1,A2}           ; [DPU_V7M3_PIPE] |431| 
	.dwpsn	file "C:/ti/ccs1230/ccs/tools/compiler/ti-cgt-arm_20.2.7.LTS/include/_defs.h",line 432,column 5,is_stmt,isa 1
;----------------------------------------------------------------------
; 432 | if (__LDOUBLE_BIASED_EXP_IS_MAX(e))                                    
;----------------------------------------------------------------------
        LDMIA     SP, {A2,A3}           ; [DPU_V7M3_PIPE] |432| 
        MOV       A1, A3                ; [DPU_V7M3_PIPE] |432| 
        LSLS      A2, A1, #0            ; [DPU_V7M3_PIPE] |432| 
        MOVS      A1, #0                ; [DPU_V7M3_PIPE] |432| 
        ORRS      A1, A1, A2            ; [DPU_V7M3_PIPE] |432| 
        LSRS      A2, A1, #16           ; [DPU_V7M3_PIPE] |432| 
        MOV       A1, #32752            ; [DPU_V7M3_PIPE] |432| 
        ANDS      A1, A1, A2            ; [DPU_V7M3_PIPE] |432| 
        MOV       A2, #32752            ; [DPU_V7M3_PIPE] |432| 
        CMP       A2, A1                ; [DPU_V7M3_PIPE] |432| 
        BNE       ||$C$L54||            ; [DPU_V7M3_PIPE] |432| 
        ; BRANCHCC OCCURS {||$C$L54||}   ; [] |432| 
;* --------------------------------------------------------------------------*
	.dwpsn	file "C:/ti/ccs1230/ccs/tools/compiler/ti-cgt-arm_20.2.7.LTS/include/_defs.h",line 434,column 9,is_stmt,isa 1
;----------------------------------------------------------------------
; 434 | if (__LDOUBLE_FRAC_PART_IS_ZERO(e))                                    
;----------------------------------------------------------------------
        LDMIA     SP, {A2,A3}           ; [DPU_V7M3_PIPE] |434| 
        MOV       A1, A3                ; [DPU_V7M3_PIPE] |434| 
        LDMIA     SP, {A3,A4}           ; [DPU_V7M3_PIPE] |434| 
        MOVS      A2, #0                ; [DPU_V7M3_PIPE] |434| 
        LSLS      A1, A1, #0            ; [DPU_V7M3_PIPE] |434| 
        ORRS      A2, A2, A1            ; [DPU_V7M3_PIPE] |434| 
        LDR       A1, $C$CON6           ; [DPU_V7M3_PIPE] |434| 
        MOVS      V1, #0                ; [DPU_V7M3_PIPE] |434| 
        MOV       A4, #-1               ; [DPU_V7M3_PIPE] |434| 
        ORRS      A3, A3, V1            ; [DPU_V7M3_PIPE] |434| 
        ANDS      A4, A4, A3            ; [DPU_V7M3_PIPE] |434| 
        ANDS      A1, A1, A2            ; [DPU_V7M3_PIPE] |434| 
        BNE       ||$C$L52||            ; [DPU_V7M3_PIPE] |434| 
        ; BRANCHCC OCCURS {||$C$L52||}   ; [] |434| 
;* --------------------------------------------------------------------------*
        CMP       A4, #0                ; [DPU_V7M3_PIPE] |434| 
;* --------------------------------------------------------------------------*
||$C$L52||:    
        BNE       ||$C$L53||            ; [DPU_V7M3_PIPE] |434| 
        ; BRANCHCC OCCURS {||$C$L53||}   ; [] |434| 
;* --------------------------------------------------------------------------*
	.dwpsn	file "C:/ti/ccs1230/ccs/tools/compiler/ti-cgt-arm_20.2.7.LTS/include/_defs.h",line 435,column 13,is_stmt,isa 1
;----------------------------------------------------------------------
; 435 | return __FP_INFINITE;                                                  
;----------------------------------------------------------------------
        MOVS      A1, #1                ; [DPU_V7M3_PIPE] |435| 
        B         ||$C$L59||            ; [DPU_V7M3_PIPE] |435| 
        ; BRANCH OCCURS {||$C$L59||}     ; [] |435| 
;* --------------------------------------------------------------------------*
||$C$L53||:    
	.dwpsn	file "C:/ti/ccs1230/ccs/tools/compiler/ti-cgt-arm_20.2.7.LTS/include/_defs.h",line 436,column 14,is_stmt,isa 1
;----------------------------------------------------------------------
; 436 | else return __FP_NAN;                                                  
;----------------------------------------------------------------------
        MOVS      A1, #2                ; [DPU_V7M3_PIPE] |436| 
        B         ||$C$L59||            ; [DPU_V7M3_PIPE] |436| 
        ; BRANCH OCCURS {||$C$L59||}     ; [] |436| 
;* --------------------------------------------------------------------------*
||$C$L54||:    
	.dwpsn	file "C:/ti/ccs1230/ccs/tools/compiler/ti-cgt-arm_20.2.7.LTS/include/_defs.h",line 438,column 5,is_stmt,isa 1
;----------------------------------------------------------------------
; 438 | if (__LDOUBLE_BIASED_EXP_IS_ZERO(e))                                   
;----------------------------------------------------------------------
        LDMIA     SP, {A2,A3}           ; [DPU_V7M3_PIPE] |438| 
        MOV       A1, A3                ; [DPU_V7M3_PIPE] |438| 
        LSLS      A2, A1, #0            ; [DPU_V7M3_PIPE] |438| 
        MOVS      A1, #0                ; [DPU_V7M3_PIPE] |438| 
        MOVS      A3, #0                ; [DPU_V7M3_PIPE] |438| 
        ORRS      A1, A1, A2            ; [DPU_V7M3_PIPE] |438| 
        LSRS      A4, A1, #20           ; [DPU_V7M3_PIPE] |438| 
        MOV       A1, #2047             ; [DPU_V7M3_PIPE] |438| 
        MOV       A2, A1                ; [DPU_V7M3_PIPE] |438| 
        ASRS      A1, A1, #31           ; [DPU_V7M3_PIPE] |438| 
        ANDS      A2, A2, A4            ; [DPU_V7M3_PIPE] |438| 
        ANDS      A1, A1, A3            ; [DPU_V7M3_PIPE] |438| 
        BNE       ||$C$L55||            ; [DPU_V7M3_PIPE] |438| 
        ; BRANCHCC OCCURS {||$C$L55||}   ; [] |438| 
;* --------------------------------------------------------------------------*
        CMP       A2, #0                ; [DPU_V7M3_PIPE] |438| 
;* --------------------------------------------------------------------------*
||$C$L55||:    
        BNE       ||$C$L58||            ; [DPU_V7M3_PIPE] |438| 
        ; BRANCHCC OCCURS {||$C$L58||}   ; [] |438| 
;* --------------------------------------------------------------------------*
	.dwpsn	file "C:/ti/ccs1230/ccs/tools/compiler/ti-cgt-arm_20.2.7.LTS/include/_defs.h",line 440,column 9,is_stmt,isa 1
;----------------------------------------------------------------------
; 440 | if (__LDOUBLE_FRAC_PART_IS_ZERO(e))                                    
;----------------------------------------------------------------------
        LDMIA     SP, {A2,A3}           ; [DPU_V7M3_PIPE] |440| 
        MOV       A1, A3                ; [DPU_V7M3_PIPE] |440| 
        LDMIA     SP, {A3,A4}           ; [DPU_V7M3_PIPE] |440| 
        MOVS      A2, #0                ; [DPU_V7M3_PIPE] |440| 
        LSLS      A1, A1, #0            ; [DPU_V7M3_PIPE] |440| 
        ORRS      A2, A2, A1            ; [DPU_V7M3_PIPE] |440| 
        LDR       A1, $C$CON6           ; [DPU_V7M3_PIPE] |440| 
        MOVS      V1, #0                ; [DPU_V7M3_PIPE] |440| 
        MOV       A4, #-1               ; [DPU_V7M3_PIPE] |440| 
        ORRS      A3, A3, V1            ; [DPU_V7M3_PIPE] |440| 
        ANDS      A4, A4, A3            ; [DPU_V7M3_PIPE] |440| 
        ANDS      A1, A1, A2            ; [DPU_V7M3_PIPE] |440| 
        BNE       ||$C$L56||            ; [DPU_V7M3_PIPE] |440| 
        ; BRANCHCC OCCURS {||$C$L56||}   ; [] |440| 
;* --------------------------------------------------------------------------*
        CMP       A4, #0                ; [DPU_V7M3_PIPE] |440| 
;* --------------------------------------------------------------------------*
||$C$L56||:    
        BNE       ||$C$L57||            ; [DPU_V7M3_PIPE] |440| 
        ; BRANCHCC OCCURS {||$C$L57||}   ; [] |440| 
;* --------------------------------------------------------------------------*
	.dwpsn	file "C:/ti/ccs1230/ccs/tools/compiler/ti-cgt-arm_20.2.7.LTS/include/_defs.h",line 441,column 13,is_stmt,isa 1
;----------------------------------------------------------------------
; 441 | return __FP_ZERO;                                                      
;----------------------------------------------------------------------
        MOVS      A1, #0                ; [DPU_V7M3_PIPE] |441| 
        B         ||$C$L59||            ; [DPU_V7M3_PIPE] |441| 
        ; BRANCH OCCURS {||$C$L59||}     ; [] |441| 
;* --------------------------------------------------------------------------*
||$C$L57||:    
	.dwpsn	file "C:/ti/ccs1230/ccs/tools/compiler/ti-cgt-arm_20.2.7.LTS/include/_defs.h",line 442,column 14,is_stmt,isa 1
;----------------------------------------------------------------------
; 442 | else return __FP_SUBNORMAL;                                            
;----------------------------------------------------------------------
        MVN       A1, #1                ; [DPU_V7M3_PIPE] |442| 
        B         ||$C$L59||            ; [DPU_V7M3_PIPE] |442| 
        ; BRANCH OCCURS {||$C$L59||}     ; [] |442| 
;* --------------------------------------------------------------------------*
||$C$L58||:    
	.dwpsn	file "C:/ti/ccs1230/ccs/tools/compiler/ti-cgt-arm_20.2.7.LTS/include/_defs.h",line 444,column 5,is_stmt,isa 1
;----------------------------------------------------------------------
; 444 | return __FP_NORMAL;                                                    
;----------------------------------------------------------------------
        MOV       A1, #-1               ; [DPU_V7M3_PIPE] |444| 
;* --------------------------------------------------------------------------*
||$C$L59||:    
	.dwpsn	file "C:/ti/ccs1230/ccs/tools/compiler/ti-cgt-arm_20.2.7.LTS/include/_defs.h",line 445,column 1,is_stmt,isa 1
$C$DW$145	.dwtag  DW_TAG_TI_branch
	.dwattr $C$DW$145, DW_AT_low_pc(0x00)
	.dwattr $C$DW$145, DW_AT_TI_return

        POP       {A3, A4, V1, PC}      ; [DPU_V7M3_PIPE] 
	.dwcfi	cfa_offset, 0
	.dwcfi	restore_reg, 4
	.dwcfi	restore_reg, 3
	.dwcfi	restore_reg, 2
        ; BRANCH OCCURS                  ; [] 
	.dwattr $C$DW$142, DW_AT_TI_end_file("C:/ti/ccs1230/ccs/tools/compiler/ti-cgt-arm_20.2.7.LTS/include/_defs.h")
	.dwattr $C$DW$142, DW_AT_TI_end_line(0x1bd)
	.dwattr $C$DW$142, DW_AT_TI_end_column(0x01)
	.dwendentry
	.dwendtag $C$DW$142

	.sect	".text"
	.clink
	.thumbfunc main
	.thumb
	.global	main

$C$DW$146	.dwtag  DW_TAG_subprogram
	.dwattr $C$DW$146, DW_AT_name("main")
	.dwattr $C$DW$146, DW_AT_low_pc(main)
	.dwattr $C$DW$146, DW_AT_high_pc(0x00)
	.dwattr $C$DW$146, DW_AT_TI_symbol_name("main")
	.dwattr $C$DW$146, DW_AT_external
	.dwattr $C$DW$146, DW_AT_type(*$C$DW$T$10)
	.dwattr $C$DW$146, DW_AT_TI_begin_file("../MAIN.c")
	.dwattr $C$DW$146, DW_AT_TI_begin_line(0x7d)
	.dwattr $C$DW$146, DW_AT_TI_begin_column(0x05)
	.dwattr $C$DW$146, DW_AT_decl_file("../MAIN.c")
	.dwattr $C$DW$146, DW_AT_decl_line(0x7d)
	.dwattr $C$DW$146, DW_AT_decl_column(0x05)
	.dwattr $C$DW$146, DW_AT_TI_max_frame_size(0x08)
	.dwpsn	file "../MAIN.c",line 125,column 15,is_stmt,address main,isa 1

	.dwfde $C$DW$CIE, main
;----------------------------------------------------------------------
; 125 | int main(void){                                                        
;----------------------------------------------------------------------

;*****************************************************************************
;* FUNCTION NAME: main                                                       *
;*                                                                           *
;*   Regs Modified     : A1,A2,A3,A4,V9,SP,LR,SR,D0,D0_hi,D1,D1_hi,D2,D2_hi, *
;*                           D3,D3_hi,D4,D4_hi,D5,D5_hi,D6,D6_hi,D7,D7_hi,   *
;*                           FPEXC,FPSCR                                     *
;*   Regs Used         : A1,A2,A3,A4,V9,SP,LR,SR,D0,D0_hi,D1,D1_hi,D2,D2_hi, *
;*                           D3,D3_hi,D4,D4_hi,D5,D5_hi,D6,D6_hi,D7,D7_hi,   *
;*                           FPEXC,FPSCR                                     *
;*   Local Frame Size  : 0 Args + 0 Auto + 4 Save = 4 byte                   *
;*****************************************************************************
main:
;* --------------------------------------------------------------------------*
	.dwcfi	cfa_offset, 0
        PUSH      {A4, LR}              ; [DPU_V7M3_PIPE] 
	.dwcfi	cfa_offset, 8
	.dwcfi	save_reg_to_mem, 14, -4
	.dwcfi	save_reg_to_mem, 3, -8
	.dwpsn	file "../MAIN.c",line 127,column 5,is_stmt,isa 1
;----------------------------------------------------------------------
; 127 | StartCritical();                                                       
;----------------------------------------------------------------------
$C$DW$147	.dwtag  DW_TAG_TI_branch
	.dwattr $C$DW$147, DW_AT_low_pc(0x00)
	.dwattr $C$DW$147, DW_AT_name("StartCritical")
	.dwattr $C$DW$147, DW_AT_TI_call

        BL        StartCritical         ; [DPU_V7M3_PIPE] |127| 
        ; CALL OCCURS {StartCritical }   ; [] |127| 
	.dwpsn	file "../MAIN.c",line 129,column 5,is_stmt,isa 1
;----------------------------------------------------------------------
; 129 | Clock_Init(4); //80M                                                   
;----------------------------------------------------------------------
        MOVS      A1, #4                ; [DPU_V7M3_PIPE] |129| 
$C$DW$148	.dwtag  DW_TAG_TI_branch
	.dwattr $C$DW$148, DW_AT_low_pc(0x00)
	.dwattr $C$DW$148, DW_AT_name("Clock_Init")
	.dwattr $C$DW$148, DW_AT_TI_call

        BL        Clock_Init            ; [DPU_V7M3_PIPE] |129| 
        ; CALL OCCURS {Clock_Init }      ; [] |129| 
	.dwpsn	file "../MAIN.c",line 130,column 5,is_stmt,isa 1
;----------------------------------------------------------------------
; 130 | SYSCTL_RCGCQEI_R   = 0x03;            // ativa os 2 modulos QEI (envio
;     | clock para cada um)                                                    
;----------------------------------------------------------------------
        LDR       A2, $C$CON7           ; [DPU_V7M3_PIPE] |130| 
        MOVS      A1, #3                ; [DPU_V7M3_PIPE] |130| 
        STR       A1, [A2, #0]          ; [DPU_V7M3_PIPE] |130| 
	.dwpsn	file "../MAIN.c",line 131,column 5,is_stmt,isa 1
;----------------------------------------------------------------------
; 131 | SYSCTL_RCGCGPIO_R  = 0x0E;            // clock para port D e C e B     
;----------------------------------------------------------------------
        LDR       A2, $C$CON8           ; [DPU_V7M3_PIPE] |131| 
        MOVS      A1, #14               ; [DPU_V7M3_PIPE] |131| 
        STR       A1, [A2, #0]          ; [DPU_V7M3_PIPE] |131| 
	.dwpsn	file "../MAIN.c",line 132,column 5,is_stmt,isa 1
;----------------------------------------------------------------------
; 132 | PORTB_INIT();                                                          
;----------------------------------------------------------------------
$C$DW$149	.dwtag  DW_TAG_TI_branch
	.dwattr $C$DW$149, DW_AT_low_pc(0x00)
	.dwattr $C$DW$149, DW_AT_name("PORTB_INIT")
	.dwattr $C$DW$149, DW_AT_TI_call

        BL        PORTB_INIT            ; [DPU_V7M3_PIPE] |132| 
        ; CALL OCCURS {PORTB_INIT }      ; [] |132| 
	.dwpsn	file "../MAIN.c",line 133,column 5,is_stmt,isa 1
;----------------------------------------------------------------------
; 133 | QEI_INIT();                                                            
;----------------------------------------------------------------------
$C$DW$150	.dwtag  DW_TAG_TI_branch
	.dwattr $C$DW$150, DW_AT_low_pc(0x00)
	.dwattr $C$DW$150, DW_AT_name("QEI_INIT")
	.dwattr $C$DW$150, DW_AT_TI_call

        BL        QEI_INIT              ; [DPU_V7M3_PIPE] |133| 
        ; CALL OCCURS {QEI_INIT }        ; [] |133| 
	.dwpsn	file "../MAIN.c",line 134,column 5,is_stmt,isa 1
;----------------------------------------------------------------------
; 134 | PORTC_INIT();                                                          
;----------------------------------------------------------------------
$C$DW$151	.dwtag  DW_TAG_TI_branch
	.dwattr $C$DW$151, DW_AT_low_pc(0x00)
	.dwattr $C$DW$151, DW_AT_name("PORTC_INIT")
	.dwattr $C$DW$151, DW_AT_TI_call

        BL        PORTC_INIT            ; [DPU_V7M3_PIPE] |134| 
        ; CALL OCCURS {PORTC_INIT }      ; [] |134| 
	.dwpsn	file "../MAIN.c",line 135,column 5,is_stmt,isa 1
;----------------------------------------------------------------------
; 135 | PORTD_INIT();                                                          
;----------------------------------------------------------------------
$C$DW$152	.dwtag  DW_TAG_TI_branch
	.dwattr $C$DW$152, DW_AT_low_pc(0x00)
	.dwattr $C$DW$152, DW_AT_name("PORTD_INIT")
	.dwattr $C$DW$152, DW_AT_TI_call

        BL        PORTD_INIT            ; [DPU_V7M3_PIPE] |135| 
        ; CALL OCCURS {PORTD_INIT }      ; [] |135| 
	.dwpsn	file "../MAIN.c",line 136,column 5,is_stmt,isa 1
;----------------------------------------------------------------------
; 136 | PortE_Init();                                                          
;----------------------------------------------------------------------
$C$DW$153	.dwtag  DW_TAG_TI_branch
	.dwattr $C$DW$153, DW_AT_low_pc(0x00)
	.dwattr $C$DW$153, DW_AT_name("PortE_Init")
	.dwattr $C$DW$153, DW_AT_TI_call

        BL        PortE_Init            ; [DPU_V7M3_PIPE] |136| 
        ; CALL OCCURS {PortE_Init }      ; [] |136| 
;* --------------------------------------------------------------------------*
	.dwpsn	file "../MAIN.c",line 137,column 5,is_stmt,isa 1
;----------------------------------------------------------------------
; 137 | PORTF_INIT();                                                          
;----------------------------------------------------------------------
$C$DW$154	.dwtag  DW_TAG_TI_branch
	.dwattr $C$DW$154, DW_AT_low_pc(0x00)
	.dwattr $C$DW$154, DW_AT_name("PORTF_INIT")
	.dwattr $C$DW$154, DW_AT_TI_call

        BL        PORTF_INIT            ; [DPU_V7M3_PIPE] |137| 
        ; CALL OCCURS {PORTF_INIT }      ; [] |137| 
	.dwpsn	file "../MAIN.c",line 138,column 5,is_stmt,isa 1
;----------------------------------------------------------------------
; 138 | UART_Init();                                                           
;----------------------------------------------------------------------
$C$DW$155	.dwtag  DW_TAG_TI_branch
	.dwattr $C$DW$155, DW_AT_low_pc(0x00)
	.dwattr $C$DW$155, DW_AT_name("UART_Init")
	.dwattr $C$DW$155, DW_AT_TI_call

        BL        UART_Init             ; [DPU_V7M3_PIPE] |138| 
        ; CALL OCCURS {UART_Init }       ; [] |138| 
	.dwpsn	file "../MAIN.c",line 139,column 5,is_stmt,isa 1
;----------------------------------------------------------------------
; 139 | ADC_Init();                                                            
;----------------------------------------------------------------------
$C$DW$156	.dwtag  DW_TAG_TI_branch
	.dwattr $C$DW$156, DW_AT_low_pc(0x00)
	.dwattr $C$DW$156, DW_AT_name("ADC_Init")
	.dwattr $C$DW$156, DW_AT_TI_call

        BL        ADC_Init              ; [DPU_V7M3_PIPE] |139| 
        ; CALL OCCURS {ADC_Init }        ; [] |139| 
	.dwpsn	file "../MAIN.c",line 140,column 5,is_stmt,isa 1
;----------------------------------------------------------------------
; 140 | PWM1_1_Init(80000000/FREQ_PWM,(800000/FREQ_PWM)*(DUTY)-1);             
;----------------------------------------------------------------------
        LDR       A1, $C$CON10          ; [DPU_V7M3_PIPE] |140| 
        LDR       A2, $C$CON12          ; [DPU_V7M3_PIPE] |140| 
        LDR       A1, [A1, #0]          ; [DPU_V7M3_PIPE] |140| 
        SDIV      A1, A2, A1            ; [DPU_V7M3_PIPE] |140| 
        VMOV      S0, A1                ; [DPU_MERLIN_PIPE] |140| 
        LDR       A1, $C$CON11          ; [DPU_V7M3_PIPE] |140| 
        VLDR.32   S1, [A1, #0]          ; [DPU_MERLIN_PIPE] |140| 
        VCVT.F32.S32 S2, S0             ; [DPU_MERLIN_PIPE] |140| 
        VMOV.F32  S0, #1.00000000000000000000e+00 ; [DPU_MERLIN_PIPE] |140| 
        VNMLS.F32 S0, S1, S2            ; [DPU_MERLIN_PIPE] |140| 
        LDR       A1, $C$CON10          ; [DPU_V7M3_PIPE] |140| 
        LDR       A2, $C$CON9           ; [DPU_V7M3_PIPE] |140| 
        LDR       A1, [A1, #0]          ; [DPU_V7M3_PIPE] |140| 
        VCVT.S32.F32 S0, S0             ; [DPU_MERLIN_PIPE] |140| 
        SDIV      A1, A2, A1            ; [DPU_V7M3_PIPE] |140| 
        VMOV      A2, S0                ; [DPU_MERLIN_PIPE] |140| 
        UXTH      A1, A1                ; [DPU_V7M3_PIPE] |140| 
        UXTH      A2, A2                ; [DPU_V7M3_PIPE] |140| 
$C$DW$157	.dwtag  DW_TAG_TI_branch
	.dwattr $C$DW$157, DW_AT_low_pc(0x00)
	.dwattr $C$DW$157, DW_AT_name("PWM1_1_Init")
	.dwattr $C$DW$157, DW_AT_TI_call

        BL        PWM1_1_Init           ; [DPU_V7M3_PIPE] |140| 
        ; CALL OCCURS {PWM1_1_Init }     ; [] |140| 
	.dwpsn	file "../MAIN.c",line 141,column 5,is_stmt,isa 1
;----------------------------------------------------------------------
; 141 | Timer0A_Init(80000000/FREQ_AD);                                        
;----------------------------------------------------------------------
        LDR       A1, $C$CON13          ; [DPU_V7M3_PIPE] |141| 
        LDR       A2, $C$CON9           ; [DPU_V7M3_PIPE] |141| 
        LDR       A1, [A1, #0]          ; [DPU_V7M3_PIPE] |141| 
        SDIV      A1, A2, A1            ; [DPU_V7M3_PIPE] |141| 
$C$DW$158	.dwtag  DW_TAG_TI_branch
	.dwattr $C$DW$158, DW_AT_low_pc(0x00)
	.dwattr $C$DW$158, DW_AT_name("Timer0A_Init")
	.dwattr $C$DW$158, DW_AT_TI_call

        BL        Timer0A_Init          ; [DPU_V7M3_PIPE] |141| 
        ; CALL OCCURS {Timer0A_Init }    ; [] |141| 
	.dwpsn	file "../MAIN.c",line 143,column 5,is_stmt,isa 1
;----------------------------------------------------------------------
; 143 | comando='0';                                                           
;----------------------------------------------------------------------
        LDR       A2, $C$CON14          ; [DPU_V7M3_PIPE] |143| 
        MOVS      A1, #48               ; [DPU_V7M3_PIPE] |143| 
        STRB      A1, [A2, #0]          ; [DPU_V7M3_PIPE] |143| 
	.dwpsn	file "../MAIN.c",line 144,column 5,is_stmt,isa 1
;----------------------------------------------------------------------
; 144 | PWM1_1_CTL_R  |= 0x01;           //  start PWM1_GEN1                   
;----------------------------------------------------------------------
        LDR       A2, $C$CON15          ; [DPU_V7M3_PIPE] |144| 
        LDR       A1, [A2, #0]          ; [DPU_V7M3_PIPE] |144| 
        ORR       A1, A1, #1            ; [DPU_V7M3_PIPE] |144| 
        STR       A1, [A2, #0]          ; [DPU_V7M3_PIPE] |144| 
	.dwpsn	file "../MAIN.c",line 145,column 5,is_stmt,isa 1
;----------------------------------------------------------------------
; 145 | TIMER0_CTL_R   = 0x01;                                                 
;----------------------------------------------------------------------
        LDR       A2, $C$CON16          ; [DPU_V7M3_PIPE] |145| 
        MOVS      A1, #1                ; [DPU_V7M3_PIPE] |145| 
        STR       A1, [A2, #0]          ; [DPU_V7M3_PIPE] |145| 
	.dwpsn	file "../MAIN.c",line 146,column 5,is_stmt,isa 1
;----------------------------------------------------------------------
; 146 | QEI0_CTL_R    |= 0x1;                                                  
;----------------------------------------------------------------------
        LDR       A2, $C$CON17          ; [DPU_V7M3_PIPE] |146| 
        LDR       A1, [A2, #0]          ; [DPU_V7M3_PIPE] |146| 
        ORR       A1, A1, #1            ; [DPU_V7M3_PIPE] |146| 
        STR       A1, [A2, #0]          ; [DPU_V7M3_PIPE] |146| 
	.dwpsn	file "../MAIN.c",line 147,column 5,is_stmt,isa 1
;----------------------------------------------------------------------
; 147 | QEI1_CTL_R    |= 0x1;                                                  
;----------------------------------------------------------------------
        LDR       A2, $C$CON18          ; [DPU_V7M3_PIPE] |147| 
        LDR       A1, [A2, #0]          ; [DPU_V7M3_PIPE] |147| 
        ORR       A1, A1, #1            ; [DPU_V7M3_PIPE] |147| 
        STR       A1, [A2, #0]          ; [DPU_V7M3_PIPE] |147| 
	.dwpsn	file "../MAIN.c",line 148,column 5,is_stmt,isa 1
;----------------------------------------------------------------------
; 148 | QEI1_POS_R     = 32000;       // 1seg                                  
;----------------------------------------------------------------------
        LDR       A2, $C$CON19          ; [DPU_V7M3_PIPE] |148| 
        MOV       A1, #32000            ; [DPU_V7M3_PIPE] |148| 
        STR       A1, [A2, #0]          ; [DPU_V7M3_PIPE] |148| 
	.dwpsn	file "../MAIN.c",line 149,column 5,is_stmt,isa 1
;----------------------------------------------------------------------
; 149 | QEI0_POS_R     =(80-1)*4.5*3;                                          
;----------------------------------------------------------------------
        LDR       A2, $C$CON20          ; [DPU_V7M3_PIPE] |149| 
        MOV       A1, #1066             ; [DPU_V7M3_PIPE] |149| 
        STR       A1, [A2, #0]          ; [DPU_V7M3_PIPE] |149| 
	.dwpsn	file "../MAIN.c",line 150,column 5,is_stmt,isa 1
;----------------------------------------------------------------------
; 150 | PWM1_ENABLE_R |= 0xC;                                                  
;----------------------------------------------------------------------
        LDR       A2, $C$CON21          ; [DPU_V7M3_PIPE] |150| 
        LDR       A1, [A2, #0]          ; [DPU_V7M3_PIPE] |150| 
        ORR       A1, A1, #12           ; [DPU_V7M3_PIPE] |150| 
        STR       A1, [A2, #0]          ; [DPU_V7M3_PIPE] |150| 
	.dwpsn	file "../MAIN.c",line 153,column 5,is_stmt,isa 1
;----------------------------------------------------------------------
; 153 | EnableInterrupts();                                                    
;----------------------------------------------------------------------
$C$DW$159	.dwtag  DW_TAG_TI_branch
	.dwattr $C$DW$159, DW_AT_low_pc(0x00)
	.dwattr $C$DW$159, DW_AT_name("EnableInterrupts")
	.dwattr $C$DW$159, DW_AT_TI_call

        BL        EnableInterrupts      ; [DPU_V7M3_PIPE] |153| 
        ; CALL OCCURS {EnableInterrupts }  ; [] |153| 
	.dwpsn	file "../MAIN.c",line 154,column 5,is_stmt,isa 1
;----------------------------------------------------------------------
; 154 | EndCritical();                                                         
;----------------------------------------------------------------------
$C$DW$160	.dwtag  DW_TAG_TI_branch
	.dwattr $C$DW$160, DW_AT_low_pc(0x00)
	.dwattr $C$DW$160, DW_AT_name("EndCritical")
	.dwattr $C$DW$160, DW_AT_TI_call

        BL        EndCritical           ; [DPU_V7M3_PIPE] |154| 
        ; CALL OCCURS {EndCritical }     ; [] |154| 
	.dwpsn	file "../MAIN.c",line 157,column 9,is_stmt,isa 1
;----------------------------------------------------------------------
; 157 | wc=400;                                                                
;----------------------------------------------------------------------
        LDR       A1, $C$FL1            ; [DPU_V7M3_PIPE] |157| 
        LDR       A2, $C$CON22          ; [DPU_V7M3_PIPE] |157| 
        STR       A1, [A2, #0]          ; [DPU_V7M3_PIPE] |157| 
	.dwpsn	file "../MAIN.c",line 158,column 9,is_stmt,isa 1
;----------------------------------------------------------------------
; 158 | a = wc*Ts*0.5;                                                         
;----------------------------------------------------------------------
        LDR       A1, $C$CON24          ; [DPU_V7M3_PIPE] |158| 
        VLDR.32   S0, [A1, #0]          ; [DPU_MERLIN_PIPE] |158| 
        LDR       A1, $C$CON22          ; [DPU_V7M3_PIPE] |158| 
        VLDR.32   S1, [A1, #0]          ; [DPU_MERLIN_PIPE] |158| 
        LDR       A1, $C$CON23          ; [DPU_V7M3_PIPE] |158| 
        VMUL.F32  S0, S0, S1            ; [DPU_MERLIN_PIPE] |158| 
        VMOV.F32  S1, #5.00000000000000000000e-01 ; [DPU_MERLIN_PIPE] |158| 
        VMUL.F32  S0, S1, S0            ; [DPU_MERLIN_PIPE] |158| 
        VSTR.32   S0, [A1, #0]          ; [DPU_MERLIN_PIPE] |158| 
	.dwpsn	file "../MAIN.c",line 159,column 9,is_stmt,isa 1
;----------------------------------------------------------------------
; 159 | A = a/(1+a);                                                           
;----------------------------------------------------------------------
        LDR       A1, $C$CON23          ; [DPU_V7M3_PIPE] |159| 
        VLDR.32   S0, [A1, #0]          ; [DPU_MERLIN_PIPE] |159| 
        LDR       A1, $C$CON23          ; [DPU_V7M3_PIPE] |159| 
        VLDR.32   S1, [A1, #0]          ; [DPU_MERLIN_PIPE] |159| 
        VMOV.F32  S2, #1.00000000000000000000e+00 ; [DPU_MERLIN_PIPE] |159| 
        VADD.F32  S0, S0, S2            ; [DPU_MERLIN_PIPE] |159| 
        VDIV.F32  S0, S1, S0            ; [DPU_MERLIN_PIPE] |159| 
        LDR       A1, $C$CON25          ; [DPU_V7M3_PIPE] |159| 
        VSTR.32   S0, [A1, #0]          ; [DPU_MERLIN_PIPE] |159| 
	.dwpsn	file "../MAIN.c",line 160,column 9,is_stmt,isa 1
;----------------------------------------------------------------------
; 160 | B = (a-1)/(1+a);                                                       
;----------------------------------------------------------------------
        LDR       A1, $C$CON23          ; [DPU_V7M3_PIPE] |160| 
        VLDR.32   S0, [A1, #0]          ; [DPU_MERLIN_PIPE] |160| 
        LDR       A1, $C$CON23          ; [DPU_V7M3_PIPE] |160| 
        VLDR.32   S1, [A1, #0]          ; [DPU_MERLIN_PIPE] |160| 
        VMOV.F32  S2, #1.00000000000000000000e+00 ; [DPU_MERLIN_PIPE] |160| 
        VMOV.F32  S3, #1.00000000000000000000e+00 ; [DPU_MERLIN_PIPE] |160| 
        VADD.F32  S0, S0, S2            ; [DPU_MERLIN_PIPE] |160| 
        VSUB.F32  S1, S1, S3            ; [DPU_MERLIN_PIPE] |160| 
        VDIV.F32  S0, S1, S0            ; [DPU_MERLIN_PIPE] |160| 
        LDR       A1, $C$CON26          ; [DPU_V7M3_PIPE] |160| 
        VSTR.32   S0, [A1, #0]          ; [DPU_MERLIN_PIPE] |160| 
	.dwpsn	file "../MAIN.c",line 164,column 11,is_stmt,isa 1
;----------------------------------------------------------------------
; 164 | while(1){                                                              
;----------------------------------------------------------------------
;* --------------------------------------------------------------------------*
;*   BEGIN LOOP ||$C$L60||
;*
;*   Loop source line                : 164
;*   Loop closing brace source line  : 172
;*   Known Minimum Trip Count        : 1
;*   Known Maximum Trip Count        : 4294967295
;*   Known Max Trip Count Factor     : 1
;* --------------------------------------------------------------------------*
||$C$L60||:    
	.dwpsn	file "../MAIN.c",line 165,column 9,is_stmt,isa 1
;----------------------------------------------------------------------
; 165 | angulo0 = ((QEI0_POS_R)-((80-1)*4.5*3)); // graus                      
;----------------------------------------------------------------------
        LDR       A1, $C$CON20          ; [DPU_V7M3_PIPE] |165| 
        LDR       A1, [A1, #0]          ; [DPU_V7M3_PIPE] |165| 
$C$DW$161	.dwtag  DW_TAG_TI_branch
	.dwattr $C$DW$161, DW_AT_low_pc(0x00)
	.dwattr $C$DW$161, DW_AT_name("__aeabi_ui2d")
	.dwattr $C$DW$161, DW_AT_TI_call

        BL        __aeabi_ui2d          ; [DPU_V7M3_PIPE] |165| 
        ; CALL OCCURS {__aeabi_ui2d }    ; [] |165| 
        ADR       A3, $C$FL2            ; [DPU_V7M3_PIPE] |165| 
        LDMIA     A3, {A3,A4}           ; [DPU_V7M3_PIPE] |165| 
$C$DW$162	.dwtag  DW_TAG_TI_branch
	.dwattr $C$DW$162, DW_AT_low_pc(0x00)
	.dwattr $C$DW$162, DW_AT_name("__aeabi_dsub")
	.dwattr $C$DW$162, DW_AT_TI_call

        BL        __aeabi_dsub          ; [DPU_V7M3_PIPE] |165| 
        ; CALL OCCURS {__aeabi_dsub }    ; [] |165| 
$C$DW$163	.dwtag  DW_TAG_TI_branch
	.dwattr $C$DW$163, DW_AT_low_pc(0x00)
	.dwattr $C$DW$163, DW_AT_name("__aeabi_d2iz")
	.dwattr $C$DW$163, DW_AT_TI_call

        BL        __aeabi_d2iz          ; [DPU_V7M3_PIPE] |165| 
        ; CALL OCCURS {__aeabi_d2iz }    ; [] |165| 
        LDR       A2, $C$CON27          ; [DPU_V7M3_PIPE] |165| 
        STR       A1, [A2, #0]          ; [DPU_V7M3_PIPE] |165| 
	.dwpsn	file "../MAIN.c",line 166,column 9,is_stmt,isa 1
;----------------------------------------------------------------------
; 166 | PWM1_1_CMPA_R = (800000/FREQ_PWM)*(DUTY)-1;                            
; 167 | // REF=angulo0;                                                        
;----------------------------------------------------------------------
        LDR       A1, $C$CON10          ; [DPU_V7M3_PIPE] |166| 
        LDR       A2, $C$CON12          ; [DPU_V7M3_PIPE] |166| 
        LDR       A1, [A1, #0]          ; [DPU_V7M3_PIPE] |166| 
        SDIV      A1, A2, A1            ; [DPU_V7M3_PIPE] |166| 
        VMOV      S0, A1                ; [DPU_MERLIN_PIPE] |166| 
        LDR       A1, $C$CON11          ; [DPU_V7M3_PIPE] |166| 
        VLDR.32   S2, [A1, #0]          ; [DPU_MERLIN_PIPE] |166| 
        VCVT.F32.S32 S0, S0             ; [DPU_MERLIN_PIPE] |166| 
        VMOV.F32  S1, #1.00000000000000000000e+00 ; [DPU_MERLIN_PIPE] |166| 
        VNMLS.F32 S1, S2, S0            ; [DPU_MERLIN_PIPE] |166| 
        VCVT.U32.F32 S0, S1             ; [DPU_MERLIN_PIPE] |166| 
        LDR       A2, $C$CON28          ; [DPU_V7M3_PIPE] |166| 
        VMOV      A1, S0                ; [DPU_MERLIN_PIPE] |166| 
        STR       A1, [A2, #0]          ; [DPU_V7M3_PIPE] |166| 
	.dwpsn	file "../MAIN.c",line 168,column 9,is_stmt,isa 1
;----------------------------------------------------------------------
; 168 | REF=180;                                                               
;----------------------------------------------------------------------
        LDR       A1, $C$FL3            ; [DPU_V7M3_PIPE] |168| 
        LDR       A2, $C$CON29          ; [DPU_V7M3_PIPE] |168| 
        STR       A1, [A2, #0]          ; [DPU_V7M3_PIPE] |168| 
	.dwpsn	file "../MAIN.c",line 169,column 9,is_stmt,isa 1
;----------------------------------------------------------------------
; 169 | if(ENEABLE == 1){GPIO_PORTE_DATA_R |= 0x02;}                           
;----------------------------------------------------------------------
        LDR       A1, $C$CON30          ; [DPU_V7M3_PIPE] |169| 
        LDRB      A1, [A1, #0]          ; [DPU_V7M3_PIPE] |169| 
        CMP       A1, #1                ; [DPU_V7M3_PIPE] |169| 
        BNE       ||$C$L61||            ; [DPU_V7M3_PIPE] |169| 
        ; BRANCHCC OCCURS {||$C$L61||}   ; [] |169| 
;* --------------------------------------------------------------------------*
	.dwpsn	file "../MAIN.c",line 169,column 26,is_stmt,isa 1
        LDR       A2, $C$CON31          ; [DPU_V7M3_PIPE] |169| 
        LDR       A1, [A2, #0]          ; [DPU_V7M3_PIPE] |169| 
        ORR       A1, A1, #2            ; [DPU_V7M3_PIPE] |169| 
        STR       A1, [A2, #0]          ; [DPU_V7M3_PIPE] |169| 
;* --------------------------------------------------------------------------*
||$C$L61||:    
	.dwpsn	file "../MAIN.c",line 170,column 9,is_stmt,isa 1
;----------------------------------------------------------------------
; 170 | if(ENEABLE == 0){GPIO_PORTE_DATA_R &= ~0x02;}                          
;----------------------------------------------------------------------
        LDR       A1, $C$CON30          ; [DPU_V7M3_PIPE] |170| 
        LDRB      A1, [A1, #0]          ; [DPU_V7M3_PIPE] |170| 
        CMP       A1, #0                ; [DPU_V7M3_PIPE] |170| 
        BNE       ||$C$L60||            ; [DPU_V7M3_PIPE] |170| 
        ; BRANCHCC OCCURS {||$C$L60||}   ; [] |170| 
;* --------------------------------------------------------------------------*
	.dwpsn	file "../MAIN.c",line 170,column 26,is_stmt,isa 1
;----------------------------------------------------------------------
; 171 | //RPM=QEI1_SPEED_R*1.5;                                                
;----------------------------------------------------------------------
        LDR       A2, $C$CON31          ; [DPU_V7M3_PIPE] |170| 
        LDR       A1, [A2, #0]          ; [DPU_V7M3_PIPE] |170| 
        BIC       A1, A1, #2            ; [DPU_V7M3_PIPE] |170| 
        STR       A1, [A2, #0]          ; [DPU_V7M3_PIPE] |170| 
	.dwpsn	file "../MAIN.c",line 164,column 11,is_stmt,isa 1
        B         ||$C$L60||            ; [DPU_V7M3_PIPE] |164| 
        ; BRANCH OCCURS {||$C$L60||}     ; [] |164| 
;* --------------------------------------------------------------------------*
	.dwattr $C$DW$146, DW_AT_TI_end_file("../MAIN.c")
	.dwattr $C$DW$146, DW_AT_TI_end_line(0xad)
	.dwattr $C$DW$146, DW_AT_TI_end_column(0x01)
	.dwendentry
	.dwendtag $C$DW$146

;******************************************************************************
;* FLOATING-POINT CONSTANTS                                                   *
;******************************************************************************
	.sect	".text"
	.align	4
||$C$FL1||:	.word	043c80000h	; 400
	.align	4
||$C$FL2||:	.word	000000000h
	.word	04090aa00h	; 1066.5
	.align	4
||$C$FL3||:	.word	043340000h	; 180
;******************************************************************************
;* CONSTANT TABLE                                                             *
;******************************************************************************
	.sect	".text"
	.align	4
||$C$CON7||:	.bits		0x400fe644,32

	.align	4
||$C$CON8||:	.bits		0x400fe608,32

	.align	4
||$C$CON9||:	.bits		0x4c4b400,32

	.align	4
||$C$CON10||:	.bits	FREQ_PWM,32
	.align	4
||$C$CON12||:	.bits		0xc3500,32

	.align	4
||$C$CON13||:	.bits	FREQ_AD,32
	.align	4
||$C$CON14||:	.bits	comando,32
	.align	4
||$C$CON15||:	.bits		0x40029080,32

	.align	4
||$C$CON16||:	.bits		0x4003000c,32

	.align	4
||$C$CON17||:	.bits		0x4002c000,32

	.align	4
||$C$CON18||:	.bits		0x4002d000,32

	.align	4
||$C$CON20||:	.bits		0x4002c008,32

	.align	4
||$C$CON22||:	.bits	wc,32
	.align	4
||$C$CON23||:	.bits	a,32
	.align	4
||$C$CON27||:	.bits	angulo0,32
	.align	4
||$C$CON28||:	.bits		0x40029098,32

	.align	4
||$C$CON30||:	.bits	ENEABLE,32
	.sect	".text"
	.clink
	.thumbfunc Timer0A_Handler
	.thumb
	.global	Timer0A_Handler

$C$DW$164	.dwtag  DW_TAG_subprogram
	.dwattr $C$DW$164, DW_AT_name("Timer0A_Handler")
	.dwattr $C$DW$164, DW_AT_low_pc(Timer0A_Handler)
	.dwattr $C$DW$164, DW_AT_high_pc(0x00)
	.dwattr $C$DW$164, DW_AT_TI_symbol_name("Timer0A_Handler")
	.dwattr $C$DW$164, DW_AT_external
	.dwattr $C$DW$164, DW_AT_TI_begin_file("../MAIN.c")
	.dwattr $C$DW$164, DW_AT_TI_begin_line(0xaf)
	.dwattr $C$DW$164, DW_AT_TI_begin_column(0x06)
	.dwattr $C$DW$164, DW_AT_decl_file("../MAIN.c")
	.dwattr $C$DW$164, DW_AT_decl_line(0xaf)
	.dwattr $C$DW$164, DW_AT_decl_column(0x06)
	.dwattr $C$DW$164, DW_AT_TI_max_frame_size(0x08)
	.dwpsn	file "../MAIN.c",line 175,column 27,is_stmt,address Timer0A_Handler,isa 1

	.dwfde $C$DW$CIE, Timer0A_Handler
;----------------------------------------------------------------------
; 175 | void Timer0A_Handler(void){                                            
;----------------------------------------------------------------------

;*****************************************************************************
;* FUNCTION NAME: Timer0A_Handler                                            *
;*                                                                           *
;*   Regs Modified     : A1,A2,A3,A4,V9,SP,LR,SR,D0,D0_hi,D1,D1_hi,D2,D2_hi, *
;*                           D3,D3_hi,D4,D4_hi,D5,D5_hi,D6,D6_hi,D7,D7_hi,   *
;*                           FPEXC,FPSCR                                     *
;*   Regs Used         : A1,A2,A3,A4,V9,SP,LR,SR,D0,D0_hi,D1,D1_hi,D2,D2_hi, *
;*                           D3,D3_hi,D4,D4_hi,D5,D5_hi,D6,D6_hi,D7,D7_hi,   *
;*                           FPEXC,FPSCR                                     *
;*   Local Frame Size  : 0 Args + 0 Auto + 4 Save = 4 byte                   *
;*****************************************************************************
Timer0A_Handler:
;* --------------------------------------------------------------------------*
	.dwcfi	cfa_offset, 0
        PUSH      {A4, LR}              ; [DPU_V7M3_PIPE] 
	.dwcfi	cfa_offset, 8
	.dwcfi	save_reg_to_mem, 14, -4
	.dwcfi	save_reg_to_mem, 3, -8
	.dwpsn	file "../MAIN.c",line 176,column 5,is_stmt,isa 1
;----------------------------------------------------------------------
; 176 | ADC0_PSSI_R=0x8;                                                       
; 177 | // ADC1_PSSI_R=0x8;                                                    
;----------------------------------------------------------------------
        LDR       A2, $C$CON32          ; [DPU_V7M3_PIPE] |176| 
        MOVS      A1, #8                ; [DPU_V7M3_PIPE] |176| 
        STR       A1, [A2, #0]          ; [DPU_V7M3_PIPE] |176| 
	.dwpsn	file "../MAIN.c",line 179,column 5,is_stmt,isa 1
;----------------------------------------------------------------------
; 179 | while(ADC0_RIS_R==0 && ADC1_RIS_R==0){}                                
;----------------------------------------------------------------------
;* --------------------------------------------------------------------------*
;*   BEGIN LOOP ||$C$L62||
;*
;*   Loop source line                : 179
;*   Loop closing brace source line  : 179
;*   Known Minimum Trip Count        : 1
;*   Known Maximum Trip Count        : 4294967295
;*   Known Max Trip Count Factor     : 1
;* --------------------------------------------------------------------------*
||$C$L62||:    
	.dwpsn	file "../MAIN.c",line 179,column 11,is_stmt,isa 1
        LDR       A1, $C$CON33          ; [DPU_V7M3_PIPE] |179| 
        LDR       A1, [A1, #0]          ; [DPU_V7M3_PIPE] |179| 
        CBNZ      A1, ||$C$L63||        ; [] 
        ; BRANCHCC OCCURS {||$C$L63||}   ; [] |179| 
;* --------------------------------------------------------------------------*
        LDR       A1, $C$CON34          ; [DPU_V7M3_PIPE] |179| 
        LDR       A1, [A1, #0]          ; [DPU_V7M3_PIPE] |179| 
        CMP       A1, #0                ; [DPU_V7M3_PIPE] |179| 
        BEQ       ||$C$L62||            ; [DPU_V7M3_PIPE] |179| 
        ; BRANCHCC OCCURS {||$C$L62||}   ; [] |179| 
;* --------------------------------------------------------------------------*
||$C$L63||:    
	.dwpsn	file "../MAIN.c",line 180,column 5,is_stmt,isa 1
;----------------------------------------------------------------------
; 180 | V0=(ADC0_SSFIFO3_R*(float)0.001)-2;                                    
; 181 | // V1=ADC1_SSFIFO3_R;//)*3.3/4096;                                     
;----------------------------------------------------------------------
        LDR       A1, $C$CON36          ; [DPU_V7M3_PIPE] |180| 
        LDR       A1, [A1, #0]          ; [DPU_V7M3_PIPE] |180| 
        VMOV      S0, A1                ; [DPU_MERLIN_PIPE] |180| 
        LDR       A1, $C$FL4            ; [DPU_V7M3_PIPE] |180| 
        VMOV      S2, A1                ; [DPU_MERLIN_PIPE] |180| 
        VCVT.F32.U32 S1, S0             ; [DPU_MERLIN_PIPE] |180| 
        VMOV.F32  S0, #2.00000000000000000000e+00 ; [DPU_MERLIN_PIPE] |180| 
        VNMLS.F32 S0, S2, S1            ; [DPU_MERLIN_PIPE] |180| 
        LDR       A1, $C$CON35          ; [DPU_V7M3_PIPE] |180| 
        VSTR.32   S0, [A1, #0]          ; [DPU_MERLIN_PIPE] |180| 
	.dwpsn	file "../MAIN.c",line 183,column 5,is_stmt,isa 1
;----------------------------------------------------------------------
; 183 | angulo1aux = (QEI1_POS_R-32000);  // graus                             
;----------------------------------------------------------------------
        LDR       A1, $C$CON19          ; [DPU_V7M3_PIPE] |183| 
        LDR       A2, $C$CON37          ; [DPU_V7M3_PIPE] |183| 
        LDR       A1, [A1, #0]          ; [DPU_V7M3_PIPE] |183| 
        SUB       A1, A1, #32000        ; [DPU_V7M3_PIPE] |183| 
        STR       A1, [A2, #0]          ; [DPU_V7M3_PIPE] |183| 
	.dwpsn	file "../MAIN.c",line 184,column 5,is_stmt,isa 1
;----------------------------------------------------------------------
; 184 | angulo1 = (angulo1aux*0.045);  // graus                                
;----------------------------------------------------------------------
        LDR       A1, $C$CON37          ; [DPU_V7M3_PIPE] |184| 
        LDR       A1, [A1, #0]          ; [DPU_V7M3_PIPE] |184| 
$C$DW$165	.dwtag  DW_TAG_TI_branch
	.dwattr $C$DW$165, DW_AT_low_pc(0x00)
	.dwattr $C$DW$165, DW_AT_name("__aeabi_i2d")
	.dwattr $C$DW$165, DW_AT_TI_call

        BL        __aeabi_i2d           ; [DPU_V7M3_PIPE] |184| 
        ; CALL OCCURS {__aeabi_i2d }     ; [] |184| 
        ADR       A3, $C$FL5            ; [DPU_V7M3_PIPE] |184| 
        LDMIA     A3, {A3,A4}           ; [DPU_V7M3_PIPE] |184| 
$C$DW$166	.dwtag  DW_TAG_TI_branch
	.dwattr $C$DW$166, DW_AT_low_pc(0x00)
	.dwattr $C$DW$166, DW_AT_name("__aeabi_dmul")
	.dwattr $C$DW$166, DW_AT_TI_call

        BL        __aeabi_dmul          ; [DPU_V7M3_PIPE] |184| 
        ; CALL OCCURS {__aeabi_dmul }    ; [] |184| 
$C$DW$167	.dwtag  DW_TAG_TI_branch
	.dwattr $C$DW$167, DW_AT_low_pc(0x00)
	.dwattr $C$DW$167, DW_AT_name("__aeabi_d2f")
	.dwattr $C$DW$167, DW_AT_TI_call

        BL        __aeabi_d2f           ; [DPU_V7M3_PIPE] |184| 
        ; CALL OCCURS {__aeabi_d2f }     ; [] |184| 
        VMOV      S0, A1                ; [DPU_MERLIN_PIPE] |184| 
        LDR       A1, $C$CON38          ; [DPU_V7M3_PIPE] |184| 
        VSTR.32   S0, [A1, #0]          ; [DPU_MERLIN_PIPE] |184| 
	.dwpsn	file "../MAIN.c",line 187,column 5,is_stmt,isa 1
;----------------------------------------------------------------------
; 187 | switch(CONTROLE_ON){                                                   
; 188 | case 0:                                                                
;----------------------------------------------------------------------
        B         ||$C$L90||            ; [DPU_V7M3_PIPE] |187| 
        ; BRANCH OCCURS {||$C$L90||}     ; [] |187| 
;* --------------------------------------------------------------------------*
||$C$L64||:    
	.dwpsn	file "../MAIN.c",line 189,column 9,is_stmt,isa 1
;----------------------------------------------------------------------
; 189 | GPIO_PORTE_DATA_R &= ~0x02;                                            
;----------------------------------------------------------------------
        LDR       A2, $C$CON31          ; [DPU_V7M3_PIPE] |189| 
        LDR       A1, [A2, #0]          ; [DPU_V7M3_PIPE] |189| 
        BIC       A1, A1, #2            ; [DPU_V7M3_PIPE] |189| 
        STR       A1, [A2, #0]          ; [DPU_V7M3_PIPE] |189| 
	.dwpsn	file "../MAIN.c",line 190,column 9,is_stmt,isa 1
;----------------------------------------------------------------------
; 190 | PWM1_ENABLE_R &= ~0xC;                                                 
;----------------------------------------------------------------------
        LDR       A2, $C$CON21          ; [DPU_V7M3_PIPE] |190| 
        LDR       A1, [A2, #0]          ; [DPU_V7M3_PIPE] |190| 
        BIC       A1, A1, #12           ; [DPU_V7M3_PIPE] |190| 
        STR       A1, [A2, #0]          ; [DPU_V7M3_PIPE] |190| 
	.dwpsn	file "../MAIN.c",line 191,column 9,is_stmt,isa 1
;----------------------------------------------------------------------
; 191 | primeira=1;                                                            
;----------------------------------------------------------------------
        LDR       A2, $C$CON39          ; [DPU_V7M3_PIPE] |191| 
        MOVS      A1, #1                ; [DPU_V7M3_PIPE] |191| 
        STR       A1, [A2, #0]          ; [DPU_V7M3_PIPE] |191| 
	.dwpsn	file "../MAIN.c",line 192,column 9,is_stmt,isa 1
;----------------------------------------------------------------------
; 192 | ii=0;                                                                  
;----------------------------------------------------------------------
        LDR       A2, $C$CON40          ; [DPU_V7M3_PIPE] |192| 
        MOVS      A1, #0                ; [DPU_V7M3_PIPE] |192| 
        STR       A1, [A2, #0]          ; [DPU_V7M3_PIPE] |192| 
	.dwpsn	file "../MAIN.c",line 193,column 9,is_stmt,isa 1
;----------------------------------------------------------------------
; 193 | i=0;                                                                   
;----------------------------------------------------------------------
        LDR       A2, $C$CON41          ; [DPU_V7M3_PIPE] |193| 
        MOVS      A1, #0                ; [DPU_V7M3_PIPE] |193| 
        STR       A1, [A2, #0]          ; [DPU_V7M3_PIPE] |193| 
	.dwpsn	file "../MAIN.c",line 194,column 9,is_stmt,isa 1
;----------------------------------------------------------------------
; 194 | REF_controle=0;                                                        
;----------------------------------------------------------------------
        LDR       A1, $C$FL6            ; [DPU_V7M3_PIPE] |194| 
        LDR       A2, $C$CON42          ; [DPU_V7M3_PIPE] |194| 
        STR       A1, [A2, #0]          ; [DPU_V7M3_PIPE] |194| 
	.dwpsn	file "../MAIN.c",line 195,column 9,is_stmt,isa 1
;----------------------------------------------------------------------
; 195 | INICIO=0;                                                              
;----------------------------------------------------------------------
        LDR       A2, $C$CON43          ; [DPU_V7M3_PIPE] |195| 
        MOVS      A1, #0                ; [DPU_V7M3_PIPE] |195| 
        STR       A1, [A2, #0]          ; [DPU_V7M3_PIPE] |195| 
	.dwpsn	file "../MAIN.c",line 196,column 9,is_stmt,isa 1
;----------------------------------------------------------------------
; 196 | DUTY=50;                                                               
;----------------------------------------------------------------------
        LDR       A1, $C$FL7            ; [DPU_V7M3_PIPE] |196| 
        LDR       A2, $C$CON11          ; [DPU_V7M3_PIPE] |196| 
        STR       A1, [A2, #0]          ; [DPU_V7M3_PIPE] |196| 
	.dwpsn	file "../MAIN.c",line 197,column 9,is_stmt,isa 1
;----------------------------------------------------------------------
; 197 | angulo1_ant=angulo1;                                                   
;----------------------------------------------------------------------
        LDR       A1, $C$CON38          ; [DPU_V7M3_PIPE] |197| 
        LDR       A2, $C$CON44          ; [DPU_V7M3_PIPE] |197| 
        LDR       A1, [A1, #0]          ; [DPU_V7M3_PIPE] |197| 
        STR       A1, [A2, #0]          ; [DPU_V7M3_PIPE] |197| 
	.dwpsn	file "../MAIN.c",line 199,column 9,is_stmt,isa 1
;----------------------------------------------------------------------
; 199 | break;                                                                 
; 201 | case 1:                                                                
;----------------------------------------------------------------------
        B         ||$C$L91||            ; [DPU_V7M3_PIPE] |199| 
        ; BRANCH OCCURS {||$C$L91||}     ; [] |199| 
;* --------------------------------------------------------------------------*
||$C$L65||:    
	.dwpsn	file "../MAIN.c",line 203,column 9,is_stmt,isa 1
;----------------------------------------------------------------------
; 203 | if(primeira==1){                                                       
;----------------------------------------------------------------------
        LDR       A1, $C$CON39          ; [DPU_V7M3_PIPE] |203| 
        LDR       A1, [A1, #0]          ; [DPU_V7M3_PIPE] |203| 
        CMP       A1, #1                ; [DPU_V7M3_PIPE] |203| 
        BNE       ||$C$L66||            ; [DPU_V7M3_PIPE] |203| 
        ; BRANCHCC OCCURS {||$C$L66||}   ; [] |203| 
;* --------------------------------------------------------------------------*
	.dwpsn	file "../MAIN.c",line 204,column 13,is_stmt,isa 1
;----------------------------------------------------------------------
; 204 | GPIO_PORTE_DATA_R |= 0x02;                                             
;----------------------------------------------------------------------
        LDR       A2, $C$CON31          ; [DPU_V7M3_PIPE] |204| 
        LDR       A1, [A2, #0]          ; [DPU_V7M3_PIPE] |204| 
        ORR       A1, A1, #2            ; [DPU_V7M3_PIPE] |204| 
        STR       A1, [A2, #0]          ; [DPU_V7M3_PIPE] |204| 
	.dwpsn	file "../MAIN.c",line 205,column 13,is_stmt,isa 1
;----------------------------------------------------------------------
; 205 | PWM1_ENABLE_R |= 0xC;                                                  
;----------------------------------------------------------------------
        LDR       A2, $C$CON21          ; [DPU_V7M3_PIPE] |205| 
        LDR       A1, [A2, #0]          ; [DPU_V7M3_PIPE] |205| 
        ORR       A1, A1, #12           ; [DPU_V7M3_PIPE] |205| 
        STR       A1, [A2, #0]          ; [DPU_V7M3_PIPE] |205| 
	.dwpsn	file "../MAIN.c",line 206,column 13,is_stmt,isa 1
;----------------------------------------------------------------------
; 206 | Ui=0;                                                                  
;----------------------------------------------------------------------
        LDR       A1, $C$FL6            ; [DPU_V7M3_PIPE] |206| 
        LDR       A2, $C$CON45          ; [DPU_V7M3_PIPE] |206| 
        STR       A1, [A2, #0]          ; [DPU_V7M3_PIPE] |206| 
	.dwpsn	file "../MAIN.c",line 207,column 13,is_stmt,isa 1
;----------------------------------------------------------------------
; 207 | Ud=0;                                                                  
;----------------------------------------------------------------------
        LDR       A1, $C$FL6            ; [DPU_V7M3_PIPE] |207| 
        LDR       A2, $C$CON46          ; [DPU_V7M3_PIPE] |207| 
        STR       A1, [A2, #0]          ; [DPU_V7M3_PIPE] |207| 
	.dwpsn	file "../MAIN.c",line 208,column 13,is_stmt,isa 1
;----------------------------------------------------------------------
; 208 | Up=0;                                                                  
;----------------------------------------------------------------------
        LDR       A1, $C$FL6            ; [DPU_V7M3_PIPE] |208| 
        LDR       A2, $C$CON47          ; [DPU_V7M3_PIPE] |208| 
        STR       A1, [A2, #0]          ; [DPU_V7M3_PIPE] |208| 
	.dwpsn	file "../MAIN.c",line 209,column 13,is_stmt,isa 1
;----------------------------------------------------------------------
; 209 | Ui_ant = 0;                                                            
;----------------------------------------------------------------------
        LDR       A1, $C$FL6            ; [DPU_V7M3_PIPE] |209| 
        LDR       A2, $C$CON48          ; [DPU_V7M3_PIPE] |209| 
        STR       A1, [A2, #0]          ; [DPU_V7M3_PIPE] |209| 
	.dwpsn	file "../MAIN.c",line 210,column 13,is_stmt,isa 1
;----------------------------------------------------------------------
; 210 | Ud_ant = 0;                                                            
;----------------------------------------------------------------------
        LDR       A1, $C$FL6            ; [DPU_V7M3_PIPE] |210| 
        LDR       A2, $C$CON49          ; [DPU_V7M3_PIPE] |210| 
        STR       A1, [A2, #0]          ; [DPU_V7M3_PIPE] |210| 
	.dwpsn	file "../MAIN.c",line 211,column 13,is_stmt,isa 1
;----------------------------------------------------------------------
; 211 | erro_ant=0;                                                            
;----------------------------------------------------------------------
        LDR       A1, $C$FL6            ; [DPU_V7M3_PIPE] |211| 
        LDR       A2, $C$CON50          ; [DPU_V7M3_PIPE] |211| 
        STR       A1, [A2, #0]          ; [DPU_V7M3_PIPE] |211| 
	.dwpsn	file "../MAIN.c",line 212,column 13,is_stmt,isa 1
;----------------------------------------------------------------------
; 212 | primeira=0;                                                            
;----------------------------------------------------------------------
        LDR       A2, $C$CON39          ; [DPU_V7M3_PIPE] |212| 
        MOVS      A1, #0                ; [DPU_V7M3_PIPE] |212| 
        STR       A1, [A2, #0]          ; [DPU_V7M3_PIPE] |212| 
	.dwpsn	file "../MAIN.c",line 213,column 13,is_stmt,isa 1
;----------------------------------------------------------------------
; 213 | Vsaida_ant=0;                                                          
;----------------------------------------------------------------------
        LDR       A2, $C$CON51          ; [DPU_V7M3_PIPE] |213| 
        MOVS      A1, #0                ; [DPU_V7M3_PIPE] |213| 
        STR       A1, [A2, #0]          ; [DPU_V7M3_PIPE] |213| 
	.dwpsn	file "../MAIN.c",line 214,column 13,is_stmt,isa 1
;----------------------------------------------------------------------
; 214 | e_aw=0;                                                                
;----------------------------------------------------------------------
        LDR       A1, $C$FL6            ; [DPU_V7M3_PIPE] |214| 
        LDR       A2, $C$CON52          ; [DPU_V7M3_PIPE] |214| 
        STR       A1, [A2, #0]          ; [DPU_V7M3_PIPE] |214| 
	.dwpsn	file "../MAIN.c",line 215,column 13,is_stmt,isa 1
;----------------------------------------------------------------------
; 215 | erro=0;                                                                
;----------------------------------------------------------------------
        LDR       A1, $C$FL6            ; [DPU_V7M3_PIPE] |215| 
        LDR       A2, $C$CON53          ; [DPU_V7M3_PIPE] |215| 
        STR       A1, [A2, #0]          ; [DPU_V7M3_PIPE] |215| 
	.dwpsn	file "../MAIN.c",line 216,column 13,is_stmt,isa 1
;----------------------------------------------------------------------
; 216 | DUTY=50;                                                               
;----------------------------------------------------------------------
        LDR       A1, $C$FL7            ; [DPU_V7M3_PIPE] |216| 
        LDR       A2, $C$CON11          ; [DPU_V7M3_PIPE] |216| 
        STR       A1, [A2, #0]          ; [DPU_V7M3_PIPE] |216| 
	.dwpsn	file "../MAIN.c",line 217,column 13,is_stmt,isa 1
;----------------------------------------------------------------------
; 217 | Vsaida=0;                                                              
;----------------------------------------------------------------------
        LDR       A1, $C$FL6            ; [DPU_V7M3_PIPE] |217| 
        LDR       A2, $C$CON54          ; [DPU_V7M3_PIPE] |217| 
        STR       A1, [A2, #0]          ; [DPU_V7M3_PIPE] |217| 
;* --------------------------------------------------------------------------*
||$C$L66||:    
	.dwpsn	file "../MAIN.c",line 220,column 9,is_stmt,isa 1
;----------------------------------------------------------------------
; 220 | REF_controle=REF;                                                      
;----------------------------------------------------------------------
        LDR       A1, $C$CON29          ; [DPU_V7M3_PIPE] |220| 
        LDR       A2, $C$CON42          ; [DPU_V7M3_PIPE] |220| 
        LDR       A1, [A1, #0]          ; [DPU_V7M3_PIPE] |220| 
        STR       A1, [A2, #0]          ; [DPU_V7M3_PIPE] |220| 
	.dwpsn	file "../MAIN.c",line 221,column 9,is_stmt,isa 1
;----------------------------------------------------------------------
; 221 | erro=REF-angulo1;                                                      
;----------------------------------------------------------------------
        LDR       A1, $C$CON38          ; [DPU_V7M3_PIPE] |221| 
        VLDR.32   S0, [A1, #0]          ; [DPU_MERLIN_PIPE] |221| 
        LDR       A1, $C$CON29          ; [DPU_V7M3_PIPE] |221| 
        VLDR.32   S1, [A1, #0]          ; [DPU_MERLIN_PIPE] |221| 
        LDR       A1, $C$CON53          ; [DPU_V7M3_PIPE] |221| 
        VSUB.F32  S0, S1, S0            ; [DPU_MERLIN_PIPE] |221| 
        VSTR.32   S0, [A1, #0]          ; [DPU_MERLIN_PIPE] |221| 
	.dwpsn	file "../MAIN.c",line 223,column 9,is_stmt,isa 1
;----------------------------------------------------------------------
; 223 | if (Vsaida_ant >= 12 || Vsaida_ant <= -12){e_aw = 0;}                  
;----------------------------------------------------------------------
        LDR       A1, $C$CON51          ; [DPU_V7M3_PIPE] |223| 
        LDR       A1, [A1, #0]          ; [DPU_V7M3_PIPE] |223| 
        CMP       A1, #12               ; [DPU_V7M3_PIPE] |223| 
        BGE       ||$C$L67||            ; [DPU_V7M3_PIPE] |223| 
        ; BRANCHCC OCCURS {||$C$L67||}   ; [] |223| 
;* --------------------------------------------------------------------------*
        LDR       A1, $C$CON51          ; [DPU_V7M3_PIPE] |223| 
        LDR       A1, [A1, #0]          ; [DPU_V7M3_PIPE] |223| 
        CMN       A1, #12               ; [DPU_V7M3_PIPE] |223| 
        BGT       ||$C$L68||            ; [DPU_V7M3_PIPE] |223| 
        ; BRANCHCC OCCURS {||$C$L68||}   ; [] |223| 
;* --------------------------------------------------------------------------*
||$C$L67||:    
	.dwpsn	file "../MAIN.c",line 223,column 52,is_stmt,isa 1
        LDR       A1, $C$FL6            ; [DPU_V7M3_PIPE] |223| 
        LDR       A2, $C$CON52          ; [DPU_V7M3_PIPE] |223| 
        STR       A1, [A2, #0]          ; [DPU_V7M3_PIPE] |223| 
        B         ||$C$L69||            ; [DPU_V7M3_PIPE] 
        ; BRANCH OCCURS {||$C$L69||}     ; [] 
;******************************************************************************
;* CONSTANT TABLE                                                             *
;******************************************************************************
	.sect	".text"
	.align	4
||$C$CON11||:	.bits	DUTY,32
	.align	4
||$C$CON19||:	.bits		0x4002d008,32

	.align	4
||$C$CON21||:	.bits		0x40029008,32

;* --------------------------------------------------------------------------*
||$C$L68||:    
	.dwpsn	file "../MAIN.c",line 224,column 14,is_stmt,isa 1
;----------------------------------------------------------------------
; 224 | else{e_aw = erro;}                                                     
;----------------------------------------------------------------------
        LDR       A1, $C$CON53          ; [DPU_V7M3_PIPE] |224| 
        LDR       A2, $C$CON52          ; [DPU_V7M3_PIPE] |224| 
        LDR       A1, [A1, #0]          ; [DPU_V7M3_PIPE] |224| 
        STR       A1, [A2, #0]          ; [DPU_V7M3_PIPE] |224| 
;* --------------------------------------------------------------------------*
||$C$L69||:    
	.dwpsn	file "../MAIN.c",line 226,column 9,is_stmt,isa 1
;----------------------------------------------------------------------
; 226 | Up = Kp * e_aw;                                                        
;----------------------------------------------------------------------
        LDR       A1, $C$CON55          ; [] |226| 
        VLDR.32   S0, [A1, #0]          ; [] |226| 
        LDR       A1, $C$CON52          ; [] |226| 
        VLDR.32   S1, [A1, #0]          ; [] |226| 
        LDR       A1, $C$CON47          ; [] |226| 
        VMUL.F32  S0, S1, S0            ; [] |226| 
        VSTR.32   S0, [A1, #0]          ; [] |226| 
	.dwpsn	file "../MAIN.c",line 227,column 9,is_stmt,isa 1
;----------------------------------------------------------------------
; 227 | Ui = Ui_ant + (Kp*Ts/Ti)*e_aw;                                         
;----------------------------------------------------------------------
        LDR       A1, $C$CON55          ; [] |227| 
        VLDR.32   S0, [A1, #0]          ; [] |227| 
        LDR       A1, $C$CON24          ; [] |227| 
        VLDR.32   S1, [A1, #0]          ; [] |227| 
        LDR       A1, $C$CON56          ; [] |227| 
        VLDR.32   S2, [A1, #0]          ; [] |227| 
        VMUL.F32  S0, S1, S0            ; [] |227| 
        VDIV.F32  S0, S0, S2            ; [] |227| 
        LDR       A1, $C$CON52          ; [] |227| 
        VLDR.32   S2, [A1, #0]          ; [] |227| 
        LDR       A1, $C$CON48          ; [] |227| 
        VLDR.32   S1, [A1, #0]          ; [] |227| 
        VMLA.F32  S1, S2, S0            ; [] |227| 
        LDR       A1, $C$CON45          ; [] |227| 
        VSTR.32   S1, [A1, #0]          ; [] |227| 
	.dwpsn	file "../MAIN.c",line 228,column 9,is_stmt,isa 1
;----------------------------------------------------------------------
; 228 | Ud = (Td / (Td + N * Ts)) * Ud_ant-(Kp*Td*N) / ((Td + N * Ts)) * (angul
;     | o1-angulo1_ant);                                                       
;----------------------------------------------------------------------
        LDR       A1, $C$CON58          ; [] |228| 
        VLDR.32   S1, [A1, #0]          ; [] |228| 
        LDR       A1, $C$CON24          ; [] |228| 
        VLDR.32   S2, [A1, #0]          ; [] |228| 
        LDR       A1, $C$CON57          ; [] |228| 
        VLDR.32   S0, [A1, #0]          ; [] |228| 
        VMLA.F32  S0, S2, S1            ; [] |228| 
        LDR       A1, $C$CON55          ; [] |228| 
        VLDR.32   S1, [A1, #0]          ; [] |228| 
        LDR       A1, $C$CON57          ; [] |228| 
        VLDR.32   S2, [A1, #0]          ; [] |228| 
        LDR       A1, $C$CON58          ; [] |228| 
        VLDR.32   S3, [A1, #0]          ; [] |228| 
        VMUL.F32  S1, S2, S1            ; [] |228| 
        VMUL.F32  S1, S3, S1            ; [] |228| 
        VDIV.F32  S0, S1, S0            ; [] |228| 
        LDR       A1, $C$CON58          ; [] |228| 
        VLDR.32   S1, [A1, #0]          ; [] |228| 
        LDR       A1, $C$CON24          ; [] |228| 
        VLDR.32   S3, [A1, #0]          ; [] |228| 
        LDR       A1, $C$CON57          ; [] |228| 
        VLDR.32   S2, [A1, #0]          ; [] |228| 
        VMLA.F32  S2, S3, S1            ; [] |228| 
        LDR       A1, $C$CON57          ; [] |228| 
        VLDR.32   S1, [A1, #0]          ; [] |228| 
        VDIV.F32  S1, S1, S2            ; [] |228| 
        LDR       A1, $C$CON44          ; [] |228| 
        VLDR.32   S2, [A1, #0]          ; [] |228| 
        LDR       A1, $C$CON38          ; [] |228| 
        VLDR.32   S3, [A1, #0]          ; [] |228| 
        LDR       A1, $C$CON49          ; [] |228| 
        VLDR.32   S4, [A1, #0]          ; [] |228| 
        B         ||$C$L70||            ; [] 
        ; BRANCH OCCURS {||$C$L70||}     ; [] 
;******************************************************************************
;* CONSTANT TABLE                                                             *
;******************************************************************************
	.sect	".text"
	.align	4
||$C$CON24||:	.bits	Ts,32
;* --------------------------------------------------------------------------*
||$C$L70||:    
        VSUB.F32  S2, S3, S2            ; [] |228| 
        VMUL.F32  S0, S2, S0            ; [] |228| 
        VNMLS.F32 S0, S4, S1            ; [] |228| 
        LDR       A1, $C$CON46          ; [] |228| 
        VSTR.32   S0, [A1, #0]          ; [] |228| 
	.dwpsn	file "../MAIN.c",line 230,column 9,is_stmt,isa 1
;----------------------------------------------------------------------
; 230 | e_filtro = Ud;                                                         
;----------------------------------------------------------------------
        LDR       A1, $C$CON46          ; [] |230| 
        LDR       A2, $C$CON59          ; [] |230| 
        LDR       A1, [A1, #0]          ; [] |230| 
        STR       A1, [A2, #0]          ; [] |230| 
	.dwpsn	file "../MAIN.c",line 231,column 9,is_stmt,isa 1
;----------------------------------------------------------------------
; 231 | u_filtro = e_filtro_ant*A + e_filtro*A - B*u_filtro_ant;               
;----------------------------------------------------------------------
        LDR       A1, $C$CON77          ; [] |231| 
        VLDR.32   S0, [A1, #0]          ; [] |231| 
        LDR       A1, $C$CON59          ; [] |231| 
        B         ||$C$L71||            ; [] 
        ; BRANCH OCCURS {||$C$L71||}     ; [] 
;******************************************************************************
;* CONSTANT TABLE                                                             *
;******************************************************************************
	.sect	".text"
	.align	4
||$C$CON25||:	.bits	A,32
;* --------------------------------------------------------------------------*
||$C$L71||:    
        VLDR.32   S1, [A1, #0]          ; [] |231| 
        LDR       A1, $C$CON61          ; [] |231| 
        VLDR.32   S2, [A1, #0]          ; [] |231| 
        LDR       A1, $C$CON77          ; [] |231| 
        VLDR.32   S3, [A1, #0]          ; [] |231| 
        VMUL.F32  S0, S0, S1            ; [] |231| 
        VMLA.F32  S0, S3, S2            ; [] |231| 
        LDR       A1, $C$CON78          ; [] |231| 
        VLDR.32   S1, [A1, #0]          ; [] |231| 
        LDR       A1, $C$CON62          ; [] |231| 
        VLDR.32   S2, [A1, #0]          ; [] |231| 
        VMLS.F32  S0, S2, S1            ; [] |231| 
        LDR       A1, $C$CON60          ; [] |231| 
        VSTR.32   S0, [A1, #0]          ; [] |231| 
        B         ||$C$L72||            ; [] 
        ; BRANCH OCCURS {||$C$L72||}     ; [] 
	.dwpsn	file "../MAIN.c",line 232,column 9,is_stmt,isa 1
;----------------------------------------------------------------------
; 232 | e_filtro_ant = e_filtro;                                               
;----------------------------------------------------------------------
;******************************************************************************
;* CONSTANT TABLE                                                             *
;******************************************************************************
	.sect	".text"
	.align	4
||$C$CON26||:	.bits	B,32
	.align	4
||$C$CON29||:	.bits	REF,32
	.align	4
||$C$CON31||:	.bits		0x400243fc,32

	.align	4
||$C$CON32||:	.bits		0x40038028,32

	.align	4
||$C$CON33||:	.bits		0x40038004,32

	.align	4
||$C$CON34||:	.bits		0x40039004,32

	.align	4
||$C$CON36||:	.bits		0x400380a8,32

;* --------------------------------------------------------------------------*
||$C$L72||:    
        LDR       A1, $C$CON59          ; [] |232| 
        LDR       A2, $C$CON61          ; [] |232| 
        LDR       A1, [A1, #0]          ; [] |232| 
        STR       A1, [A2, #0]          ; [] |232| 
	.dwpsn	file "../MAIN.c",line 233,column 9,is_stmt,isa 1
;----------------------------------------------------------------------
; 233 | u_filtro_ant = u_filtro;                                               
;----------------------------------------------------------------------
        LDR       A1, $C$CON60          ; [] |233| 
        LDR       A2, $C$CON62          ; [] |233| 
        LDR       A1, [A1, #0]          ; [] |233| 
        STR       A1, [A2, #0]          ; [] |233| 
	.dwpsn	file "../MAIN.c",line 236,column 9,is_stmt,isa 1
;----------------------------------------------------------------------
; 236 | Vsaida = Up+Ui+u_filtro;                                               
; 237 | // Vsaida=erro;                                                        
;----------------------------------------------------------------------
        LDR       A1, $C$CON47          ; [] |236| 
        VLDR.32   S0, [A1, #0]          ; [] |236| 
        LDR       A1, $C$CON45          ; [] |236| 
        VLDR.32   S1, [A1, #0]          ; [] |236| 
        LDR       A1, $C$CON60          ; [] |236| 
        VADD.F32  S0, S1, S0            ; [] |236| 
        VLDR.32   S2, [A1, #0]          ; [] |236| 
        LDR       A1, $C$CON54          ; [] |236| 
        VADD.F32  S0, S2, S0            ; [] |236| 
        VSTR.32   S0, [A1, #0]          ; [] |236| 
	.dwpsn	file "../MAIN.c",line 239,column 9,is_stmt,isa 1
;----------------------------------------------------------------------
; 239 | Ui_ant = Ui;                                                           
;----------------------------------------------------------------------
        LDR       A1, $C$CON45          ; [] |239| 
        LDR       A2, $C$CON48          ; [] |239| 
        LDR       A1, [A1, #0]          ; [] |239| 
        STR       A1, [A2, #0]          ; [] |239| 
	.dwpsn	file "../MAIN.c",line 240,column 9,is_stmt,isa 1
;----------------------------------------------------------------------
; 240 | Ud_ant = Ud;                                                           
;----------------------------------------------------------------------
        LDR       A1, $C$CON46          ; [] |240| 
        LDR       A2, $C$CON49          ; [] |240| 
        LDR       A1, [A1, #0]          ; [] |240| 
        STR       A1, [A2, #0]          ; [] |240| 
	.dwpsn	file "../MAIN.c",line 241,column 9,is_stmt,isa 1
;----------------------------------------------------------------------
; 241 | Vsaida_ant=Vsaida;                                                     
;----------------------------------------------------------------------
        LDR       A1, $C$CON54          ; [] |241| 
        VLDR.32   S0, [A1, #0]          ; [] |241| 
        VCVT.S32.F32 S0, S0             ; [] |241| 
        LDR       A2, $C$CON51          ; [] |241| 
        VMOV      A1, S0                ; [] |241| 
        STR       A1, [A2, #0]          ; [] |241| 
	.dwpsn	file "../MAIN.c",line 242,column 9,is_stmt,isa 1
;----------------------------------------------------------------------
; 242 | erro_ant=erro;                                                         
;----------------------------------------------------------------------
        LDR       A1, $C$CON53          ; [] |242| 
        LDR       A2, $C$CON50          ; [] |242| 
        LDR       A1, [A1, #0]          ; [] |242| 
        STR       A1, [A2, #0]          ; [] |242| 
	.dwpsn	file "../MAIN.c",line 243,column 9,is_stmt,isa 1
;----------------------------------------------------------------------
; 243 | angulo1_ant=angulo1;                                                   
;----------------------------------------------------------------------
        LDR       A1, $C$CON38          ; [] |243| 
        LDR       A2, $C$CON44          ; [] |243| 
        LDR       A1, [A1, #0]          ; [] |243| 
        STR       A1, [A2, #0]          ; [] |243| 
	.dwpsn	file "../MAIN.c",line 245,column 9,is_stmt,isa 1
;----------------------------------------------------------------------
; 245 | if(Vsaida > 12){Vsaida=12;}  //saturador                               
;----------------------------------------------------------------------
        LDR       A1, $C$CON54          ; [] |245| 
        VLDR.32   S0, [A1, #0]          ; [] |245| 
        VMOV.F32  S1, #1.20000000000000000000e+01 ; [] |245| 
        VCMPE.F32 S0, S1                ; [] |245| 
        VMRS APSR_nzcv, FPSCR ; [] |245| 
        BLE       ||$C$L73||            ; [] |245| 
        ; BRANCHCC OCCURS {||$C$L73||}   ; [] |245| 
;* --------------------------------------------------------------------------*
	.dwpsn	file "../MAIN.c",line 245,column 25,is_stmt,isa 1
        LDR       A1, $C$CON54          ; [DPU_V7M3_PIPE] |245| 
        VMOV.F32  S0, #1.20000000000000000000e+01 ; [DPU_MERLIN_PIPE] |245| 
        VSTR.32   S0, [A1, #0]          ; [DPU_MERLIN_PIPE] |245| 
;* --------------------------------------------------------------------------*
||$C$L73||:    
	.dwpsn	file "../MAIN.c",line 246,column 9,is_stmt,isa 1
;----------------------------------------------------------------------
; 246 | if(Vsaida < -12){Vsaida= -12;}  //saturador                            
;----------------------------------------------------------------------
        LDR       A1, $C$CON54          ; [DPU_V7M3_PIPE] |246| 
        VLDR.32   S0, [A1, #0]          ; [DPU_MERLIN_PIPE] |246| 
        VMOV.F32  S1, #-1.20000000000000000000e+01 ; [DPU_MERLIN_PIPE] |246| 
        VCMPE.F32 S0, S1                ; [DPU_MERLIN_PIPE] |246| 
        VMRS APSR_nzcv, FPSCR ; [DPU_MERLIN_PIPE] |246| 
        BCS       ||$C$L74||            ; [DPU_V7M3_PIPE] |246| 
        ; BRANCHCC OCCURS {||$C$L74||}   ; [] |246| 
;* --------------------------------------------------------------------------*
	.dwpsn	file "../MAIN.c",line 246,column 26,is_stmt,isa 1
        LDR       A1, $C$CON54          ; [DPU_V7M3_PIPE] |246| 
        VMOV.F32  S0, #-1.20000000000000000000e+01 ; [DPU_MERLIN_PIPE] |246| 
        VSTR.32   S0, [A1, #0]          ; [DPU_MERLIN_PIPE] |246| 
;* --------------------------------------------------------------------------*
||$C$L74||:    
	.dwpsn	file "../MAIN.c",line 248,column 9,is_stmt,isa 1
;----------------------------------------------------------------------
; 248 | DUTY=(Vsaida*(float)4.1666666666666666666)+50; //4.1666 = 50/12        
;----------------------------------------------------------------------
        LDR       A1, $C$CON54          ; [DPU_V7M3_PIPE] |248| 
        VLDR.32   S0, [A1, #0]          ; [DPU_MERLIN_PIPE] |248| 
        LDR       A1, $C$FL8            ; [DPU_V7M3_PIPE] |248| 
        VMOV      S2, A1                ; [DPU_MERLIN_PIPE] |248| 
        LDR       A1, $C$FL7            ; [DPU_V7M3_PIPE] |248| 
        VMOV      S1, A1                ; [DPU_MERLIN_PIPE] |248| 
        VMLA.F32  S1, S2, S0            ; [DPU_MERLIN_PIPE] |248| 
        LDR       A1, $C$CON70          ; [DPU_V7M3_PIPE] |248| 
        VSTR.32   S1, [A1, #0]          ; [DPU_MERLIN_PIPE] |248| 
	.dwpsn	file "../MAIN.c",line 250,column 9,is_stmt,isa 1
;----------------------------------------------------------------------
; 250 | switch(dado_escolhido){                                                
; 251 | case 1:                                                                
;----------------------------------------------------------------------
        B         ||$C$L83||            ; [DPU_V7M3_PIPE] |250| 
        ; BRANCH OCCURS {||$C$L83||}     ; [] |250| 
;******************************************************************************
;* FLOATING-POINT CONSTANTS                                                   *
;******************************************************************************
	.sect	".text"
	.align	4
||$C$FL4||:	.word	03a83126fh	; 0.00100000004749745131
;* --------------------------------------------------------------------------*
||$C$L75||:    
	.dwpsn	file "../MAIN.c",line 252,column 9,is_stmt,isa 1
;----------------------------------------------------------------------
; 252 | DADOOO=angulo1;                                                        
;----------------------------------------------------------------------
        LDR       A1, $C$CON38          ; [DPU_V7M3_PIPE] |252| 
        LDR       A2, $C$CON63          ; [DPU_V7M3_PIPE] |252| 
        LDR       A1, [A1, #0]          ; [DPU_V7M3_PIPE] |252| 
        STR       A1, [A2, #0]          ; [DPU_V7M3_PIPE] |252| 
	.dwpsn	file "../MAIN.c",line 253,column 9,is_stmt,isa 1
;----------------------------------------------------------------------
; 253 | break;                                                                 
; 254 | case 2:                                                                
;----------------------------------------------------------------------
        B         ||$C$L84||            ; [DPU_V7M3_PIPE] |253| 
        ; BRANCH OCCURS {||$C$L84||}     ; [] |253| 
;******************************************************************************
;* CONSTANT TABLE                                                             *
;******************************************************************************
	.sect	".text"
	.align	4
||$C$CON35||:	.bits	||V0||,32
	.align	4
||$C$CON37||:	.bits	angulo1aux,32
;* --------------------------------------------------------------------------*
||$C$L76||:    
	.dwpsn	file "../MAIN.c",line 255,column 9,is_stmt,isa 1
;----------------------------------------------------------------------
; 255 | DADOOO=Vsaida;                                                         
;----------------------------------------------------------------------
        LDR       A1, $C$CON54          ; [DPU_V7M3_PIPE] |255| 
        LDR       A2, $C$CON63          ; [DPU_V7M3_PIPE] |255| 
        LDR       A1, [A1, #0]          ; [DPU_V7M3_PIPE] |255| 
        STR       A1, [A2, #0]          ; [DPU_V7M3_PIPE] |255| 
	.dwpsn	file "../MAIN.c",line 256,column 9,is_stmt,isa 1
;----------------------------------------------------------------------
; 256 | break;                                                                 
; 257 | case 3:                                                                
;----------------------------------------------------------------------
        B         ||$C$L84||            ; [DPU_V7M3_PIPE] |256| 
        ; BRANCH OCCURS {||$C$L84||}     ; [] |256| 
;******************************************************************************
;* FLOATING-POINT CONSTANTS                                                   *
;******************************************************************************
	.sect	".text"
	.align	4
||$C$FL5||:	.word	070a3d70ah
	.word	03fa70a3dh	; 0.04499999999999999833
;* --------------------------------------------------------------------------*
||$C$L77||:    
	.dwpsn	file "../MAIN.c",line 258,column 9,is_stmt,isa 1
;----------------------------------------------------------------------
; 258 | DADOOO=e_aw;                                                           
;----------------------------------------------------------------------
        LDR       A1, $C$CON52          ; [DPU_V7M3_PIPE] |258| 
        LDR       A2, $C$CON63          ; [DPU_V7M3_PIPE] |258| 
        LDR       A1, [A1, #0]          ; [DPU_V7M3_PIPE] |258| 
        STR       A1, [A2, #0]          ; [DPU_V7M3_PIPE] |258| 
	.dwpsn	file "../MAIN.c",line 259,column 9,is_stmt,isa 1
;----------------------------------------------------------------------
; 259 | break;                                                                 
; 260 | case 4:                                                                
;----------------------------------------------------------------------
        B         ||$C$L84||            ; [DPU_V7M3_PIPE] |259| 
        ; BRANCH OCCURS {||$C$L84||}     ; [] |259| 
;******************************************************************************
;* CONSTANT TABLE                                                             *
;******************************************************************************
	.sect	".text"
	.align	4
||$C$CON38||:	.bits	angulo1,32
;* --------------------------------------------------------------------------*
||$C$L78||:    
	.dwpsn	file "../MAIN.c",line 261,column 9,is_stmt,isa 1
;----------------------------------------------------------------------
; 261 | DADOOO=Up;                                                             
;----------------------------------------------------------------------
        LDR       A1, $C$CON47          ; [DPU_V7M3_PIPE] |261| 
        LDR       A2, $C$CON63          ; [DPU_V7M3_PIPE] |261| 
        LDR       A1, [A1, #0]          ; [DPU_V7M3_PIPE] |261| 
        STR       A1, [A2, #0]          ; [DPU_V7M3_PIPE] |261| 
	.dwpsn	file "../MAIN.c",line 262,column 9,is_stmt,isa 1
;----------------------------------------------------------------------
; 262 | break;                                                                 
; 263 | case 5:                                                                
;----------------------------------------------------------------------
        B         ||$C$L84||            ; [DPU_V7M3_PIPE] |262| 
        ; BRANCH OCCURS {||$C$L84||}     ; [] |262| 
;******************************************************************************
;* CONSTANT TABLE                                                             *
;******************************************************************************
	.sect	".text"
	.align	4
||$C$CON39||:	.bits	primeira,32
	.align	4
||$C$CON40||:	.bits	ii,32
	.align	4
||$C$CON41||:	.bits	i,32
;* --------------------------------------------------------------------------*
||$C$L79||:    
	.dwpsn	file "../MAIN.c",line 264,column 9,is_stmt,isa 1
;----------------------------------------------------------------------
; 264 | DADOOO=Ud;                                                             
;----------------------------------------------------------------------
        LDR       A1, $C$CON46          ; [DPU_V7M3_PIPE] |264| 
        LDR       A2, $C$CON63          ; [DPU_V7M3_PIPE] |264| 
        LDR       A1, [A1, #0]          ; [DPU_V7M3_PIPE] |264| 
        STR       A1, [A2, #0]          ; [DPU_V7M3_PIPE] |264| 
	.dwpsn	file "../MAIN.c",line 265,column 9,is_stmt,isa 1
;----------------------------------------------------------------------
; 265 | break;                                                                 
; 266 | case 6:                                                                
;----------------------------------------------------------------------
        B         ||$C$L84||            ; [DPU_V7M3_PIPE] |265| 
        ; BRANCH OCCURS {||$C$L84||}     ; [] |265| 
;******************************************************************************
;* FLOATING-POINT CONSTANTS                                                   *
;******************************************************************************
	.sect	".text"
	.align	4
||$C$FL6||:	.word	000000000h	; 0
	.align	4
||$C$FL7||:	.word	042480000h	; 50
;******************************************************************************
;* CONSTANT TABLE                                                             *
;******************************************************************************
	.sect	".text"
	.align	4
||$C$CON42||:	.bits	REF_controle,32
	.align	4
||$C$CON43||:	.bits	INICIO,32
	.align	4
||$C$CON44||:	.bits	angulo1_ant,32
;* --------------------------------------------------------------------------*
||$C$L80||:    
	.dwpsn	file "../MAIN.c",line 267,column 9,is_stmt,isa 1
;----------------------------------------------------------------------
; 267 | DADOOO=Ui;                                                             
;----------------------------------------------------------------------
        LDR       A1, $C$CON45          ; [DPU_V7M3_PIPE] |267| 
        LDR       A2, $C$CON63          ; [DPU_V7M3_PIPE] |267| 
        LDR       A1, [A1, #0]          ; [DPU_V7M3_PIPE] |267| 
        STR       A1, [A2, #0]          ; [DPU_V7M3_PIPE] |267| 
	.dwpsn	file "../MAIN.c",line 268,column 9,is_stmt,isa 1
;----------------------------------------------------------------------
; 268 | break;                                                                 
; 269 | case 7:                                                                
;----------------------------------------------------------------------
        B         ||$C$L84||            ; [DPU_V7M3_PIPE] |268| 
        ; BRANCH OCCURS {||$C$L84||}     ; [] |268| 
;* --------------------------------------------------------------------------*
||$C$L81||:    
	.dwpsn	file "../MAIN.c",line 270,column 9,is_stmt,isa 1
;----------------------------------------------------------------------
; 270 | DADOOO=V0;                                                             
;----------------------------------------------------------------------
        LDR       A1, $C$CON71          ; [DPU_V7M3_PIPE] |270| 
        LDR       A2, $C$CON63          ; [DPU_V7M3_PIPE] |270| 
        LDR       A1, [A1, #0]          ; [DPU_V7M3_PIPE] |270| 
        STR       A1, [A2, #0]          ; [DPU_V7M3_PIPE] |270| 
	.dwpsn	file "../MAIN.c",line 271,column 9,is_stmt,isa 1
;----------------------------------------------------------------------
; 271 | break;                                                                 
; 272 | case 8:                                                                
;----------------------------------------------------------------------
        B         ||$C$L84||            ; [DPU_V7M3_PIPE] |271| 
        ; BRANCH OCCURS {||$C$L84||}     ; [] |271| 
;* --------------------------------------------------------------------------*
||$C$L82||:    
	.dwpsn	file "../MAIN.c",line 273,column 9,is_stmt,isa 1
;----------------------------------------------------------------------
; 273 | DADOOO=u_filtro;                                                       
;----------------------------------------------------------------------
        LDR       A1, $C$CON60          ; [DPU_V7M3_PIPE] |273| 
        LDR       A2, $C$CON63          ; [DPU_V7M3_PIPE] |273| 
        LDR       A1, [A1, #0]          ; [DPU_V7M3_PIPE] |273| 
        STR       A1, [A2, #0]          ; [DPU_V7M3_PIPE] |273| 
	.dwpsn	file "../MAIN.c",line 274,column 9,is_stmt,isa 1
;----------------------------------------------------------------------
; 274 | break;                                                                 
;----------------------------------------------------------------------
        B         ||$C$L84||            ; [DPU_V7M3_PIPE] |274| 
        ; BRANCH OCCURS {||$C$L84||}     ; [] |274| 
;******************************************************************************
;* CONSTANT TABLE                                                             *
;******************************************************************************
	.sect	".text"
	.align	4
||$C$CON45||:	.bits	Ui,32
	.align	4
||$C$CON46||:	.bits	Ud,32
	.align	4
||$C$CON47||:	.bits	Up,32
	.align	4
||$C$CON48||:	.bits	Ui_ant,32
	.align	4
||$C$CON49||:	.bits	Ud_ant,32
	.align	4
||$C$CON50||:	.bits	erro_ant,32
	.align	4
||$C$CON51||:	.bits	Vsaida_ant,32
	.align	4
||$C$CON52||:	.bits	e_aw,32
	.align	4
||$C$CON53||:	.bits	erro,32
;* --------------------------------------------------------------------------*
;* --------------------------------------------------------------------------*
||$C$L83||:    
	.dwpsn	file "../MAIN.c",line 250,column 9,is_stmt,isa 1
        LDR       A1, $C$CON64          ; [DPU_V7M3_PIPE] |250| 
        LDR       A1, [A1, #0]          ; [DPU_V7M3_PIPE] |250| 
        SUBS      A1, A1, #1            ; [DPU_V7M3_PIPE] |250| 
        CMP       A1, #7                ; [DPU_V7M3_PIPE] |250| 
        BHI       ||$C$L84||            ; [DPU_V7M3_PIPE] |250| 
        ; BRANCHCC OCCURS {||$C$L84||}   ; [] |250| 
;* --------------------------------------------------------------------------*
        ADR       A2, ||$C$SW1||        ; [DPU_V7M3_PIPE] |250| 
        LDR       A1, [A2, +A1, LSL #2] ; [DPU_V7M3_PIPE] |250| 
        MOV       PC, A1                ; [DPU_V7M3_PIPE] |250| 
        ; BRANCH OCCURS                  ; [] |250| 
||$C$SW1||:	.word	||$C$L75||	; 1
	.word	||$C$L76||	; 2
	.word	||$C$L77||	; 3
	.word	||$C$L78||	; 4
	.word	||$C$L79||	; 5
	.word	||$C$L80||	; 6
	.word	||$C$L81||	; 7
	.word	||$C$L82||	; 8
;******************************************************************************
;* CONSTANT TABLE                                                             *
;******************************************************************************
	.sect	".text"
	.align	4
||$C$CON54||:	.bits	Vsaida,32
;* --------------------------------------------------------------------------*
||$C$L84||:    
	.dwpsn	file "../MAIN.c",line 276,column 16,is_stmt,isa 1
;----------------------------------------------------------------------
; 276 | if(i==10 & ii<4001){                                                   
;----------------------------------------------------------------------
        LDR       A1, $C$CON72          ; [DPU_V7M3_PIPE] |276| 
        LDR       A2, [A1, #0]          ; [DPU_V7M3_PIPE] |276| 
        MOV       A3, #4001             ; [DPU_V7M3_PIPE] |276| 
        MOVS      A1, #0                ; [DPU_V7M3_PIPE] |276| 
        CMP       A3, A2                ; [DPU_V7M3_PIPE] |276| 
        BLE       ||$C$L85||            ; [DPU_V7M3_PIPE] |276| 
        ; BRANCHCC OCCURS {||$C$L85||}   ; [] |276| 
;* --------------------------------------------------------------------------*
        MOVS      A1, #1                ; [DPU_V7M3_PIPE] |276| 
;* --------------------------------------------------------------------------*
||$C$L85||:    
        LDR       A2, $C$CON73          ; [DPU_V7M3_PIPE] |276| 
        LDR       A3, [A2, #0]          ; [DPU_V7M3_PIPE] |276| 
        CMP       A3, #10               ; [DPU_V7M3_PIPE] |276| 
        MOV       A2, #0                ; [DPU_V7M3_PIPE] |276| 
        BNE       ||$C$L86||            ; [DPU_V7M3_PIPE] |276| 
        ; BRANCHCC OCCURS {||$C$L86||}   ; [] |276| 
;* --------------------------------------------------------------------------*
        MOVS      A2, #1                ; [DPU_V7M3_PIPE] |276| 
;* --------------------------------------------------------------------------*
||$C$L86||:    
        TST       A1, A2                ; [DPU_V7M3_PIPE] |276| 
        BEQ       ||$C$L87||            ; [DPU_V7M3_PIPE] |276| 
        ; BRANCHCC OCCURS {||$C$L87||}   ; [] |276| 
;* --------------------------------------------------------------------------*
	.dwpsn	file "../MAIN.c",line 277,column 20,is_stmt,isa 1
;----------------------------------------------------------------------
; 277 | vet1[ii]=DADOOO;                                                       
;----------------------------------------------------------------------
        LDR       A2, $C$CON72          ; [DPU_V7M3_PIPE] |277| 
        LDR       A1, $C$CON63          ; [DPU_V7M3_PIPE] |277| 
        LDR       A3, $C$CON65          ; [DPU_V7M3_PIPE] |277| 
        LDR       A2, [A2, #0]          ; [DPU_V7M3_PIPE] |277| 
        LDR       A1, [A1, #0]          ; [DPU_V7M3_PIPE] |277| 
        STR       A1, [A3, +A2, LSL #2] ; [DPU_V7M3_PIPE] |277| 
	.dwpsn	file "../MAIN.c",line 278,column 20,is_stmt,isa 1
;----------------------------------------------------------------------
; 278 | ii++;                                                                  
;----------------------------------------------------------------------
        LDR       A2, $C$CON72          ; [DPU_V7M3_PIPE] |278| 
        LDR       A1, [A2, #0]          ; [DPU_V7M3_PIPE] |278| 
        ADDS      A1, A1, #1            ; [DPU_V7M3_PIPE] |278| 
        STR       A1, [A2, #0]          ; [DPU_V7M3_PIPE] |278| 
	.dwpsn	file "../MAIN.c",line 279,column 20,is_stmt,isa 1
;----------------------------------------------------------------------
; 279 | i=0;                                                                   
;----------------------------------------------------------------------
        LDR       A2, $C$CON73          ; [DPU_V7M3_PIPE] |279| 
        MOVS      A1, #0                ; [DPU_V7M3_PIPE] |279| 
        STR       A1, [A2, #0]          ; [DPU_V7M3_PIPE] |279| 
;* --------------------------------------------------------------------------*
||$C$L87||:    
	.dwpsn	file "../MAIN.c",line 281,column 16,is_stmt,isa 1
;----------------------------------------------------------------------
; 281 | i++;                                                                   
;----------------------------------------------------------------------
        LDR       A2, $C$CON73          ; [DPU_V7M3_PIPE] |281| 
        LDR       A1, [A2, #0]          ; [DPU_V7M3_PIPE] |281| 
        ADDS      A1, A1, #1            ; [DPU_V7M3_PIPE] |281| 
        STR       A1, [A2, #0]          ; [DPU_V7M3_PIPE] |281| 
	.dwpsn	file "../MAIN.c",line 283,column 9,is_stmt,isa 1
;----------------------------------------------------------------------
; 283 | break;                                                                 
; 285 | case 2:                                                                
;----------------------------------------------------------------------
        B         ||$C$L91||            ; [DPU_V7M3_PIPE] |283| 
        ; BRANCH OCCURS {||$C$L91||}     ; [] |283| 
;******************************************************************************
;* CONSTANT TABLE                                                             *
;******************************************************************************
	.sect	".text"
	.align	4
||$C$CON55||:	.bits	Kp,32
	.align	4
||$C$CON56||:	.bits	Ti,32
	.align	4
||$C$CON57||:	.bits	Td,32
	.align	4
||$C$CON58||:	.bits	N,32
;* --------------------------------------------------------------------------*
||$C$L88||:    
	.dwpsn	file "../MAIN.c",line 286,column 9,is_stmt,isa 1
;----------------------------------------------------------------------
; 286 | angulo1_ant=angulo1;                                                   
;----------------------------------------------------------------------
