TI ARM Assembler PC v20.2.7 Wed Feb 19 20:53:45 2025

Copyright (c) 1996-2018 Texas Instruments Incorporated
MAIN.asm                                                             PAGE    1

       1                    ;******************************************************************************
       2                    ;* TI ARM G3 C/C++ Codegen                                              PC v20.2.7.LTS *
       3                    ;* Date/Time created: Wed Feb 19 20:53:44 2025                                *
       4                    ;******************************************************************************
       5                            .compiler_opts --abi=eabi --arm_vmrs_si_workaround=off --code_state=16 --diag_wrap=off --embed
       6 00000000                   .thumb
       7                    
       8                    $C$DW$CU        .dwtag  DW_TAG_compile_unit
       9                            .dwattr $C$DW$CU, DW_AT_name("../MAIN.c")
      10                            .dwattr $C$DW$CU, DW_AT_producer("TI TI ARM G3 C/C++ Codegen PC v20.2.7.LTS Copyright (c) 1996
      11                            .dwattr $C$DW$CU, DW_AT_TI_version(0x01)
      12                            .dwattr $C$DW$CU, DW_AT_comp_dir("C:\Users\dimit\workspace_v12\Controle_Digital_Trabalho_Final
      13                            .global comando
      14                            .common comando,1,1
      15                    $C$DW$1 .dwtag  DW_TAG_variable
      16                            .dwattr $C$DW$1, DW_AT_name("comando")
      17                            .dwattr $C$DW$1, DW_AT_TI_symbol_name("comando")
      18                            .dwattr $C$DW$1, DW_AT_location[DW_OP_addr comando]
      19                            .dwattr $C$DW$1, DW_AT_type(*$C$DW$T$6)
      20                            .dwattr $C$DW$1, DW_AT_external
      21                            .dwattr $C$DW$1, DW_AT_decl_file("..\UART.h")
      22                            .dwattr $C$DW$1, DW_AT_decl_line(0x6f)
      23                            .dwattr $C$DW$1, DW_AT_decl_column(0x06)
      24                    
      25                            .global confirmacao
      26                            .common confirmacao,1,1
      27                    $C$DW$2 .dwtag  DW_TAG_variable
      28                            .dwattr $C$DW$2, DW_AT_name("confirmacao")
      29                            .dwattr $C$DW$2, DW_AT_TI_symbol_name("confirmacao")
      30                            .dwattr $C$DW$2, DW_AT_location[DW_OP_addr confirmacao]
      31                            .dwattr $C$DW$2, DW_AT_type(*$C$DW$T$6)
      32                            .dwattr $C$DW$2, DW_AT_external
      33                            .dwattr $C$DW$2, DW_AT_decl_file("..\UART.h")
      34                            .dwattr $C$DW$2, DW_AT_decl_line(0x70)
      35                            .dwattr $C$DW$2, DW_AT_decl_column(0x06)
      36                    
      37                            .global confirmacao2
      38                            .common confirmacao2,1,1
      39                    $C$DW$3 .dwtag  DW_TAG_variable
      40                            .dwattr $C$DW$3, DW_AT_name("confirmacao2")
      41                            .dwattr $C$DW$3, DW_AT_TI_symbol_name("confirmacao2")
      42                            .dwattr $C$DW$3, DW_AT_location[DW_OP_addr confirmacao2]
      43                            .dwattr $C$DW$3, DW_AT_type(*$C$DW$T$6)
      44                            .dwattr $C$DW$3, DW_AT_external
      45                            .dwattr $C$DW$3, DW_AT_decl_file("..\UART.h")
      46                            .dwattr $C$DW$3, DW_AT_decl_line(0x71)
      47                            .dwattr $C$DW$3, DW_AT_decl_column(0x06)
      48                    
      49                            .global CONTROLE_ON
      50 00000000                   .data
      51                            .align  4
      52                            .elfsym CONTROLE_ON,SYM_SIZE(4)
      53 00000000           CONTROLE_ON:
      54 00000000 00000000          .bits           0,32
      55                                            ; CONTROLE_ON @ 0
TI ARM Assembler PC v20.2.7 Wed Feb 19 20:53:45 2025

Copyright (c) 1996-2018 Texas Instruments Incorporated
MAIN.asm                                                             PAGE    2

      56                    
      57                    $C$DW$4 .dwtag  DW_TAG_variable
      58                            .dwattr $C$DW$4, DW_AT_name("CONTROLE_ON")
      59                            .dwattr $C$DW$4, DW_AT_TI_symbol_name("CONTROLE_ON")
      60                            .dwattr $C$DW$4, DW_AT_location[DW_OP_addr CONTROLE_ON]
      61                            .dwattr $C$DW$4, DW_AT_type(*$C$DW$T$10)
      62                            .dwattr $C$DW$4, DW_AT_external
      63                            .dwattr $C$DW$4, DW_AT_decl_file("../MAIN.c")
      64                            .dwattr $C$DW$4, DW_AT_decl_line(0x33)
      65                            .dwattr $C$DW$4, DW_AT_decl_column(0x05)
      66                    
      67                            .global count_display
      68 00000004                   .data
      69                            .align  4
      70                            .elfsym count_display,SYM_SIZE(4)
      71 00000004           count_display:
      72 00000004 00000000          .bits           0,32
      73                                            ; count_display @ 0
      74                    
      75                    $C$DW$5 .dwtag  DW_TAG_variable
      76                            .dwattr $C$DW$5, DW_AT_name("count_display")
      77                            .dwattr $C$DW$5, DW_AT_TI_symbol_name("count_display")
      78                            .dwattr $C$DW$5, DW_AT_location[DW_OP_addr count_display]
      79                            .dwattr $C$DW$5, DW_AT_type(*$C$DW$T$10)
      80                            .dwattr $C$DW$5, DW_AT_external
      81                            .dwattr $C$DW$5, DW_AT_decl_file("../MAIN.c")
      82                            .dwattr $C$DW$5, DW_AT_decl_line(0x33)
      83                            .dwattr $C$DW$5, DW_AT_decl_column(0x14)
      84                    
      85                            .global angulo0
      86 00000008                   .data
      87                            .align  4
      88                            .elfsym angulo0,SYM_SIZE(4)
      89 00000008           angulo0:
      90 00000008 00000000          .bits           0,32
      91                                            ; angulo0 @ 0
      92                    
      93                    $C$DW$6 .dwtag  DW_TAG_variable
      94                            .dwattr $C$DW$6, DW_AT_name("angulo0")
      95                            .dwattr $C$DW$6, DW_AT_TI_symbol_name("angulo0")
      96                            .dwattr $C$DW$6, DW_AT_location[DW_OP_addr angulo0]
      97                            .dwattr $C$DW$6, DW_AT_type(*$C$DW$T$10)
      98                            .dwattr $C$DW$6, DW_AT_external
      99                            .dwattr $C$DW$6, DW_AT_decl_file("../MAIN.c")
     100                            .dwattr $C$DW$6, DW_AT_decl_line(0x33)
     101                            .dwattr $C$DW$6, DW_AT_decl_column(0x25)
     102                    
     103                            .global angulo1_aux
     104 0000000c                   .data
     105                            .align  4
     106                            .elfsym angulo1_aux,SYM_SIZE(4)
     107 0000000c           angulo1_aux:
     108 0000000c 00000000          .bits           0,32
     109                                            ; angulo1_aux @ 0
     110                    
TI ARM Assembler PC v20.2.7 Wed Feb 19 20:53:45 2025

Copyright (c) 1996-2018 Texas Instruments Incorporated
MAIN.asm                                                             PAGE    3

     111                    $C$DW$7 .dwtag  DW_TAG_variable
     112                            .dwattr $C$DW$7, DW_AT_name("angulo1_aux")
     113                            .dwattr $C$DW$7, DW_AT_TI_symbol_name("angulo1_aux")
     114                            .dwattr $C$DW$7, DW_AT_location[DW_OP_addr angulo1_aux]
     115                            .dwattr $C$DW$7, DW_AT_type(*$C$DW$T$10)
     116                            .dwattr $C$DW$7, DW_AT_external
     117                            .dwattr $C$DW$7, DW_AT_decl_file("../MAIN.c")
     118                            .dwattr $C$DW$7, DW_AT_decl_line(0x33)
     119                            .dwattr $C$DW$7, DW_AT_decl_column(0x30)
     120                    
     121                            .global dado_escolhido
     122 00000010                   .data
     123                            .align  4
     124                            .elfsym dado_escolhido,SYM_SIZE(4)
     125 00000010           dado_escolhido:
     126 00000010 00000000          .bits           0,32
     127                                            ; dado_escolhido @ 0
     128                    
     129                    $C$DW$8 .dwtag  DW_TAG_variable
     130                            .dwattr $C$DW$8, DW_AT_name("dado_escolhido")
     131                            .dwattr $C$DW$8, DW_AT_TI_symbol_name("dado_escolhido")
     132                            .dwattr $C$DW$8, DW_AT_location[DW_OP_addr dado_escolhido]
     133                            .dwattr $C$DW$8, DW_AT_type(*$C$DW$T$10)
     134                            .dwattr $C$DW$8, DW_AT_external
     135                            .dwattr $C$DW$8, DW_AT_decl_file("../MAIN.c")
     136                            .dwattr $C$DW$8, DW_AT_decl_line(0x33)
     137                            .dwattr $C$DW$8, DW_AT_decl_column(0x3e)
     138                    
     139                            .global INICIO
     140 00000014                   .data
     141                            .align  4
     142                            .elfsym INICIO,SYM_SIZE(4)
     143 00000014           INICIO:
     144 00000014 00000000          .bits           0,32
     145                                            ; INICIO @ 0
     146                    
     147                    $C$DW$9 .dwtag  DW_TAG_variable
     148                            .dwattr $C$DW$9, DW_AT_name("INICIO")
     149                            .dwattr $C$DW$9, DW_AT_TI_symbol_name("INICIO")
     150                            .dwattr $C$DW$9, DW_AT_location[DW_OP_addr INICIO]
     151                            .dwattr $C$DW$9, DW_AT_type(*$C$DW$T$10)
     152                            .dwattr $C$DW$9, DW_AT_external
     153                            .dwattr $C$DW$9, DW_AT_decl_file("../MAIN.c")
     154                            .dwattr $C$DW$9, DW_AT_decl_line(0x33)
     155                            .dwattr $C$DW$9, DW_AT_decl_column(0x4f)
     156                    
     157                            .global acao_controle
     158 00000018                   .data
     159                            .align  4
     160                            .elfsym acao_controle,SYM_SIZE(4)
     161 00000018           acao_controle:
     162 00000018 00000000          .bits           0,32
     163                                            ; acao_controle @ 0
     164                    
     165                    $C$DW$10        .dwtag  DW_TAG_variable
TI ARM Assembler PC v20.2.7 Wed Feb 19 20:53:45 2025

Copyright (c) 1996-2018 Texas Instruments Incorporated
MAIN.asm                                                             PAGE    4

     166                            .dwattr $C$DW$10, DW_AT_name("acao_controle")
     167                            .dwattr $C$DW$10, DW_AT_TI_symbol_name("acao_controle")
     168                            .dwattr $C$DW$10, DW_AT_location[DW_OP_addr acao_controle]
     169                            .dwattr $C$DW$10, DW_AT_type(*$C$DW$T$10)
     170                            .dwattr $C$DW$10, DW_AT_external
     171                            .dwattr $C$DW$10, DW_AT_decl_file("../MAIN.c")
     172                            .dwattr $C$DW$10, DW_AT_decl_line(0x34)
     173                            .dwattr $C$DW$10, DW_AT_decl_column(0x05)
     174                    
     175                            .global buffer
     176                            .common buffer,400,4
     177                    $C$DW$11        .dwtag  DW_TAG_variable
     178                            .dwattr $C$DW$11, DW_AT_name("buffer")
     179                            .dwattr $C$DW$11, DW_AT_TI_symbol_name("buffer")
     180                            .dwattr $C$DW$11, DW_AT_location[DW_OP_addr buffer]
     181                            .dwattr $C$DW$11, DW_AT_type(*$C$DW$T$78)
     182                            .dwattr $C$DW$11, DW_AT_external
     183                            .dwattr $C$DW$11, DW_AT_decl_file("../MAIN.c")
     184                            .dwattr $C$DW$11, DW_AT_decl_line(0x34)
     185                            .dwattr $C$DW$11, DW_AT_decl_column(0x16)
     186                    
     187                            .global length
     188 0000001c                   .data
     189                            .align  4
     190                            .elfsym length,SYM_SIZE(4)
     191 0000001c           length:
     192 0000001c 00000000          .bits           0,32
     193                                            ; length @ 0
     194                    
     195                    $C$DW$12        .dwtag  DW_TAG_variable
     196                            .dwattr $C$DW$12, DW_AT_name("length")
     197                            .dwattr $C$DW$12, DW_AT_TI_symbol_name("length")
     198                            .dwattr $C$DW$12, DW_AT_location[DW_OP_addr length]
     199                            .dwattr $C$DW$12, DW_AT_type(*$C$DW$T$10)
     200                            .dwattr $C$DW$12, DW_AT_external
     201                            .dwattr $C$DW$12, DW_AT_decl_file("../MAIN.c")
     202                            .dwattr $C$DW$12, DW_AT_decl_line(0x34)
     203                            .dwattr $C$DW$12, DW_AT_decl_column(0x23)
     204                    
     205                            .global numero_de_pontos_acao_controle
     206 00000020                   .data
     207                            .align  4
     208                            .elfsym numero_de_pontos_acao_controle,SYM_SIZE(4)
     209 00000020           numero_de_pontos_acao_controle:
     210 00000020 00000000          .bits           0,32
     211                                            ; numero_de_pontos_acao_controle @ 0
     212                    
     213                    $C$DW$13        .dwtag  DW_TAG_variable
     214                            .dwattr $C$DW$13, DW_AT_name("numero_de_pontos_acao_controle")
     215                            .dwattr $C$DW$13, DW_AT_TI_symbol_name("numero_de_pontos_acao_controle")
     216                            .dwattr $C$DW$13, DW_AT_location[DW_OP_addr numero_de_pontos_acao_controle]
     217                            .dwattr $C$DW$13, DW_AT_type(*$C$DW$T$10)
     218                            .dwattr $C$DW$13, DW_AT_external
     219                            .dwattr $C$DW$13, DW_AT_decl_file("../MAIN.c")
     220                            .dwattr $C$DW$13, DW_AT_decl_line(0x34)
TI ARM Assembler PC v20.2.7 Wed Feb 19 20:53:45 2025

Copyright (c) 1996-2018 Texas Instruments Incorporated
MAIN.asm                                                             PAGE    5

     221                            .dwattr $C$DW$13, DW_AT_decl_column(0x2d)
     222                    
     223                            .global REF
     224 00000024                   .data
     225                            .align  4
     226                            .elfsym REF,SYM_SIZE(4)
     227 00000024           REF:
     228 00000024 00000000          .word   000000000h      ; REF @ 0 (0)
     229                    
     230                    $C$DW$14        .dwtag  DW_TAG_variable
     231                            .dwattr $C$DW$14, DW_AT_name("REF")
     232                            .dwattr $C$DW$14, DW_AT_TI_symbol_name("REF")
     233                            .dwattr $C$DW$14, DW_AT_location[DW_OP_addr REF]
     234                            .dwattr $C$DW$14, DW_AT_type(*$C$DW$T$16)
     235                            .dwattr $C$DW$14, DW_AT_external
     236                            .dwattr $C$DW$14, DW_AT_decl_file("../MAIN.c")
     237                            .dwattr $C$DW$14, DW_AT_decl_line(0x35)
     238                            .dwattr $C$DW$14, DW_AT_decl_column(0x07)
     239                    
     240                            .global REF_controle
     241 00000028                   .data
     242                            .align  4
     243                            .elfsym REF_controle,SYM_SIZE(4)
     244 00000028           REF_controle:
     245 00000028 00000000          .word   000000000h      ; REF_controle @ 0 (0)
     246                    
     247                    $C$DW$15        .dwtag  DW_TAG_variable
     248                            .dwattr $C$DW$15, DW_AT_name("REF_controle")
     249                            .dwattr $C$DW$15, DW_AT_TI_symbol_name("REF_controle")
     250                            .dwattr $C$DW$15, DW_AT_location[DW_OP_addr REF_controle]
     251                            .dwattr $C$DW$15, DW_AT_type(*$C$DW$T$16)
     252                            .dwattr $C$DW$15, DW_AT_external
     253                            .dwattr $C$DW$15, DW_AT_decl_file("../MAIN.c")
     254                            .dwattr $C$DW$15, DW_AT_decl_line(0x35)
     255                            .dwattr $C$DW$15, DW_AT_decl_column(0x0e)
     256                    
     257                            .global ||V0||
     258 0000002c                   .data
     259                            .align  4
     260                            .elfsym ||V0||,SYM_SIZE(4)
     261 0000002c           ||V0||:
     262 0000002c 00000000          .word   000000000h      ; V0 @ 0 (0)
     263                    
     264                    $C$DW$16        .dwtag  DW_TAG_variable
     265                            .dwattr $C$DW$16, DW_AT_name("V0")
     266                            .dwattr $C$DW$16, DW_AT_TI_symbol_name("V0")
     267                            .dwattr $C$DW$16, DW_AT_location[DW_OP_addr ||V0||]
     268                            .dwattr $C$DW$16, DW_AT_type(*$C$DW$T$16)
     269                            .dwattr $C$DW$16, DW_AT_external
     270                            .dwattr $C$DW$16, DW_AT_decl_file("../MAIN.c")
     271                            .dwattr $C$DW$16, DW_AT_decl_line(0x35)
     272                            .dwattr $C$DW$16, DW_AT_decl_column(0x1e)
     273                    
     274                            .global ||V1||
     275 00000030                   .data
TI ARM Assembler PC v20.2.7 Wed Feb 19 20:53:45 2025

Copyright (c) 1996-2018 Texas Instruments Incorporated
MAIN.asm                                                             PAGE    6

     276                            .align  4
     277                            .elfsym ||V1||,SYM_SIZE(4)
     278 00000030           ||V1||:
     279 00000030 00000000          .word   000000000h      ; V1 @ 0 (0)
     280                    
     281                    $C$DW$17        .dwtag  DW_TAG_variable
     282                            .dwattr $C$DW$17, DW_AT_name("V1")
     283                            .dwattr $C$DW$17, DW_AT_TI_symbol_name("V1")
     284                            .dwattr $C$DW$17, DW_AT_location[DW_OP_addr ||V1||]
     285                            .dwattr $C$DW$17, DW_AT_type(*$C$DW$T$16)
     286                            .dwattr $C$DW$17, DW_AT_external
     287                            .dwattr $C$DW$17, DW_AT_decl_file("../MAIN.c")
     288                            .dwattr $C$DW$17, DW_AT_decl_line(0x35)
     289                            .dwattr $C$DW$17, DW_AT_decl_column(0x24)
     290                    
     291                            .global Vsaida_antigo
     292 00000034                   .data
     293                            .align  4
     294                            .elfsym Vsaida_antigo,SYM_SIZE(4)
     295 00000034           Vsaida_antigo:
     296 00000034 00000000          .word   000000000h      ; Vsaida_antigo @ 0 (0)
     297                    
     298                    $C$DW$18        .dwtag  DW_TAG_variable
     299                            .dwattr $C$DW$18, DW_AT_name("Vsaida_antigo")
     300                            .dwattr $C$DW$18, DW_AT_TI_symbol_name("Vsaida_antigo")
     301                            .dwattr $C$DW$18, DW_AT_location[DW_OP_addr Vsaida_antigo]
     302                            .dwattr $C$DW$18, DW_AT_type(*$C$DW$T$16)
     303                            .dwattr $C$DW$18, DW_AT_external
     304                            .dwattr $C$DW$18, DW_AT_decl_file("../MAIN.c")
     305                            .dwattr $C$DW$18, DW_AT_decl_line(0x35)
     306                            .dwattr $C$DW$18, DW_AT_decl_column(0x2a)
     307                    
     308                            .global angulo1_normalizado
     309 00000038                   .data
     310                            .align  4
     311                            .elfsym angulo1_normalizado,SYM_SIZE(4)
     312 00000038           angulo1_normalizado:
     313 00000038 00000000          .word   000000000h      ; angulo1_normalizado @ 0 (0)
     314                    
     315                    $C$DW$19        .dwtag  DW_TAG_variable
     316                            .dwattr $C$DW$19, DW_AT_name("angulo1_normalizado")
     317                            .dwattr $C$DW$19, DW_AT_TI_symbol_name("angulo1_normalizado")
     318                            .dwattr $C$DW$19, DW_AT_location[DW_OP_addr angulo1_normalizado]
     319                            .dwattr $C$DW$19, DW_AT_type(*$C$DW$T$16)
     320                            .dwattr $C$DW$19, DW_AT_external
     321                            .dwattr $C$DW$19, DW_AT_decl_file("../MAIN.c")
     322                            .dwattr $C$DW$19, DW_AT_decl_line(0x35)
     323                            .dwattr $C$DW$19, DW_AT_decl_column(0x3b)
     324                    
     325                            .global Vsaida
     326 0000003c                   .data
     327                            .align  4
     328                            .elfsym Vsaida,SYM_SIZE(4)
     329 0000003c           Vsaida:
     330 0000003c 00000000          .word   000000000h      ; Vsaida @ 0 (0)
TI ARM Assembler PC v20.2.7 Wed Feb 19 20:53:45 2025

Copyright (c) 1996-2018 Texas Instruments Incorporated
MAIN.asm                                                             PAGE    7

     331                    
     332                    $C$DW$20        .dwtag  DW_TAG_variable
     333                            .dwattr $C$DW$20, DW_AT_name("Vsaida")
     334                            .dwattr $C$DW$20, DW_AT_TI_symbol_name("Vsaida")
     335                            .dwattr $C$DW$20, DW_AT_location[DW_OP_addr Vsaida]
     336                            .dwattr $C$DW$20, DW_AT_type(*$C$DW$T$16)
     337                            .dwattr $C$DW$20, DW_AT_external
     338                            .dwattr $C$DW$20, DW_AT_decl_file("../MAIN.c")
     339                            .dwattr $C$DW$20, DW_AT_decl_line(0x35)
     340                            .dwattr $C$DW$20, DW_AT_decl_column(0x52)
     341                    
     342                            .global angulo0_normalizado
     343 00000040                   .data
     344                            .align  4
     345                            .elfsym angulo0_normalizado,SYM_SIZE(4)
     346 00000040           angulo0_normalizado:
     347 00000040 00000000          .word   000000000h      ; angulo0_normalizado @ 0 (0)
     348                    
     349                    $C$DW$21        .dwtag  DW_TAG_variable
     350                            .dwattr $C$DW$21, DW_AT_name("angulo0_normalizado")
     351                            .dwattr $C$DW$21, DW_AT_TI_symbol_name("angulo0_normalizado")
     352                            .dwattr $C$DW$21, DW_AT_location[DW_OP_addr angulo0_normalizado]
     353                            .dwattr $C$DW$21, DW_AT_type(*$C$DW$T$16)
     354                            .dwattr $C$DW$21, DW_AT_external
     355                            .dwattr $C$DW$21, DW_AT_decl_file("../MAIN.c")
     356                            .dwattr $C$DW$21, DW_AT_decl_line(0x35)
     357                            .dwattr $C$DW$21, DW_AT_decl_column(0x5c)
     358                    
     359                            .global zerar_var
     360 00000044                   .data
     361                            .align  4
     362                            .elfsym zerar_var,SYM_SIZE(4)
     363 00000044           zerar_var:
     364 00000044 00000000          .word   000000000h      ; zerar_var @ 0 (0)
     365                    
     366                    $C$DW$22        .dwtag  DW_TAG_variable
     367                            .dwattr $C$DW$22, DW_AT_name("zerar_var")
     368                            .dwattr $C$DW$22, DW_AT_TI_symbol_name("zerar_var")
     369                            .dwattr $C$DW$22, DW_AT_location[DW_OP_addr zerar_var]
     370                            .dwattr $C$DW$22, DW_AT_type(*$C$DW$T$16)
     371                            .dwattr $C$DW$22, DW_AT_external
     372                            .dwattr $C$DW$22, DW_AT_decl_file("../MAIN.c")
     373                            .dwattr $C$DW$22, DW_AT_decl_line(0x35)
     374                            .dwattr $C$DW$22, DW_AT_decl_column(0x73)
     375                    
     376                            .global RPM
     377 00000048                   .data
     378                            .align  4
     379                            .elfsym RPM,SYM_SIZE(4)
     380 00000048           RPM:
     381 00000048 00000000          .word   000000000h      ; RPM @ 0 (0)
     382                    
     383                    $C$DW$23        .dwtag  DW_TAG_variable
     384                            .dwattr $C$DW$23, DW_AT_name("RPM")
     385                            .dwattr $C$DW$23, DW_AT_TI_symbol_name("RPM")
TI ARM Assembler PC v20.2.7 Wed Feb 19 20:53:45 2025

Copyright (c) 1996-2018 Texas Instruments Incorporated
MAIN.asm                                                             PAGE    8

     386                            .dwattr $C$DW$23, DW_AT_location[DW_OP_addr RPM]
     387                            .dwattr $C$DW$23, DW_AT_type(*$C$DW$T$16)
     388                            .dwattr $C$DW$23, DW_AT_external
     389                            .dwattr $C$DW$23, DW_AT_decl_file("../MAIN.c")
     390                            .dwattr $C$DW$23, DW_AT_decl_line(0x35)
     391                            .dwattr $C$DW$23, DW_AT_decl_column(0x7f)
     392                    
     393                            .global DADOOO
     394 0000004c                   .data
     395                            .align  4
     396                            .elfsym DADOOO,SYM_SIZE(4)
     397 0000004c           DADOOO:
     398 0000004c 00000000          .word   000000000h      ; DADOOO @ 0 (0)
     399                    
     400                    $C$DW$24        .dwtag  DW_TAG_variable
     401                            .dwattr $C$DW$24, DW_AT_name("DADOOO")
     402                            .dwattr $C$DW$24, DW_AT_TI_symbol_name("DADOOO")
     403                            .dwattr $C$DW$24, DW_AT_location[DW_OP_addr DADOOO]
     404                            .dwattr $C$DW$24, DW_AT_type(*$C$DW$T$16)
     405                            .dwattr $C$DW$24, DW_AT_external
     406                            .dwattr $C$DW$24, DW_AT_decl_file("../MAIN.c")
     407                            .dwattr $C$DW$24, DW_AT_decl_line(0x35)
     408                            .dwattr $C$DW$24, DW_AT_decl_column(0x87)
     409                    
     410                            .global angulo0aux
     411 00000050                   .data
     412                            .align  4
     413                            .elfsym angulo0aux,SYM_SIZE(4)
     414 00000050           angulo0aux:
     415 00000050 00000000          .bits           0,32
     416                                            ; angulo0aux @ 0
     417                    
     418                    $C$DW$25        .dwtag  DW_TAG_variable
     419                            .dwattr $C$DW$25, DW_AT_name("angulo0aux")
     420                            .dwattr $C$DW$25, DW_AT_TI_symbol_name("angulo0aux")
     421                            .dwattr $C$DW$25, DW_AT_location[DW_OP_addr angulo0aux]
     422                            .dwattr $C$DW$25, DW_AT_type(*$C$DW$T$10)
     423                            .dwattr $C$DW$25, DW_AT_external
     424                            .dwattr $C$DW$25, DW_AT_decl_file("../MAIN.c")
     425                            .dwattr $C$DW$25, DW_AT_decl_line(0x36)
     426                            .dwattr $C$DW$25, DW_AT_decl_column(0x05)
     427                    
     428                            .global angulo1aux
     429 00000054                   .data
     430                            .align  4
     431                            .elfsym angulo1aux,SYM_SIZE(4)
     432 00000054           angulo1aux:
     433 00000054 00000000          .bits           0,32
     434                                            ; angulo1aux @ 0
     435                    
     436                    $C$DW$26        .dwtag  DW_TAG_variable
     437                            .dwattr $C$DW$26, DW_AT_name("angulo1aux")
     438                            .dwattr $C$DW$26, DW_AT_TI_symbol_name("angulo1aux")
     439                            .dwattr $C$DW$26, DW_AT_location[DW_OP_addr angulo1aux]
     440                            .dwattr $C$DW$26, DW_AT_type(*$C$DW$T$10)
TI ARM Assembler PC v20.2.7 Wed Feb 19 20:53:45 2025

Copyright (c) 1996-2018 Texas Instruments Incorporated
MAIN.asm                                                             PAGE    9

     441                            .dwattr $C$DW$26, DW_AT_external
     442                            .dwattr $C$DW$26, DW_AT_decl_file("../MAIN.c")
     443                            .dwattr $C$DW$26, DW_AT_decl_line(0x36)
     444                            .dwattr $C$DW$26, DW_AT_decl_column(0x13)
     445                    
     446                            .global primeira
     447 00000058                   .data
     448                            .align  4
     449                            .elfsym primeira,SYM_SIZE(4)
     450 00000058           primeira:
     451 00000058 00000001          .bits           0x1,32
     452                                            ; primeira @ 0
     453                    
     454                    $C$DW$27        .dwtag  DW_TAG_variable
     455                            .dwattr $C$DW$27, DW_AT_name("primeira")
     456                            .dwattr $C$DW$27, DW_AT_TI_symbol_name("primeira")
     457                            .dwattr $C$DW$27, DW_AT_location[DW_OP_addr primeira]
     458                            .dwattr $C$DW$27, DW_AT_type(*$C$DW$T$10)
     459                            .dwattr $C$DW$27, DW_AT_external
     460                            .dwattr $C$DW$27, DW_AT_decl_file("../MAIN.c")
     461                            .dwattr $C$DW$27, DW_AT_decl_line(0x36)
     462                            .dwattr $C$DW$27, DW_AT_decl_column(0x21)
     463                    
     464                            .global i
     465 0000005c                   .data
     466                            .align  4
     467                            .elfsym i,SYM_SIZE(4)
     468 0000005c           i:
     469 0000005c 00000000          .bits           0,32
     470                                            ; i @ 0
     471                    
     472                    $C$DW$28        .dwtag  DW_TAG_variable
     473                            .dwattr $C$DW$28, DW_AT_name("i")
     474                            .dwattr $C$DW$28, DW_AT_TI_symbol_name("i")
     475                            .dwattr $C$DW$28, DW_AT_location[DW_OP_addr i]
     476                            .dwattr $C$DW$28, DW_AT_type(*$C$DW$T$10)
     477                            .dwattr $C$DW$28, DW_AT_external
     478                            .dwattr $C$DW$28, DW_AT_decl_file("../MAIN.c")
     479                            .dwattr $C$DW$28, DW_AT_decl_line(0x36)
     480                            .dwattr $C$DW$28, DW_AT_decl_column(0x2d)
     481                    
     482                            .global ii
     483 00000060                   .data
     484                            .align  4
     485                            .elfsym ii,SYM_SIZE(4)
     486 00000060           ii:
     487 00000060 00000000          .bits           0,32
     488                                            ; ii @ 0
     489                    
     490                    $C$DW$29        .dwtag  DW_TAG_variable
     491                            .dwattr $C$DW$29, DW_AT_name("ii")
     492                            .dwattr $C$DW$29, DW_AT_TI_symbol_name("ii")
     493                            .dwattr $C$DW$29, DW_AT_location[DW_OP_addr ii]
     494                            .dwattr $C$DW$29, DW_AT_type(*$C$DW$T$10)
     495                            .dwattr $C$DW$29, DW_AT_external
TI ARM Assembler PC v20.2.7 Wed Feb 19 20:53:45 2025

Copyright (c) 1996-2018 Texas Instruments Incorporated
MAIN.asm                                                             PAGE   10

     496                            .dwattr $C$DW$29, DW_AT_decl_file("../MAIN.c")
     497                            .dwattr $C$DW$29, DW_AT_decl_line(0x36)
     498                            .dwattr $C$DW$29, DW_AT_decl_column(0x32)
     499                    
     500                            .global dado_a_ser_enviado
     501 00000064                   .data
     502                            .align  4
     503                            .elfsym dado_a_ser_enviado,SYM_SIZE(4)
     504 00000064           dado_a_ser_enviado:
     505 00000064 00000000          .bits           0,32
     506                                            ; dado_a_ser_enviado @ 0
     507                    
     508                    $C$DW$30        .dwtag  DW_TAG_variable
     509                            .dwattr $C$DW$30, DW_AT_name("dado_a_ser_enviado")
     510                            .dwattr $C$DW$30, DW_AT_TI_symbol_name("dado_a_ser_enviado")
     511                            .dwattr $C$DW$30, DW_AT_location[DW_OP_addr dado_a_ser_enviado]
     512                            .dwattr $C$DW$30, DW_AT_type(*$C$DW$T$10)
     513                            .dwattr $C$DW$30, DW_AT_external
     514                            .dwattr $C$DW$30, DW_AT_decl_file("../MAIN.c")
     515                            .dwattr $C$DW$30, DW_AT_decl_line(0x36)
     516                            .dwattr $C$DW$30, DW_AT_decl_column(0x38)
     517                    
     518                            .global dado_a_ser_enviado2
     519 00000068                   .data
     520                            .align  4
     521                            .elfsym dado_a_ser_enviado2,SYM_SIZE(4)
     522 00000068           dado_a_ser_enviado2:
     523 00000068 00000000          .bits           0,32
     524                                            ; dado_a_ser_enviado2 @ 0
     525                    
     526                    $C$DW$31        .dwtag  DW_TAG_variable
     527                            .dwattr $C$DW$31, DW_AT_name("dado_a_ser_enviado2")
     528                            .dwattr $C$DW$31, DW_AT_TI_symbol_name("dado_a_ser_enviado2")
     529                            .dwattr $C$DW$31, DW_AT_location[DW_OP_addr dado_a_ser_enviado2]
     530                            .dwattr $C$DW$31, DW_AT_type(*$C$DW$T$10)
     531                            .dwattr $C$DW$31, DW_AT_external
     532                            .dwattr $C$DW$31, DW_AT_decl_file("../MAIN.c")
     533                            .dwattr $C$DW$31, DW_AT_decl_line(0x36)
     534                            .dwattr $C$DW$31, DW_AT_decl_column(0x4d)
     535                    
     536                            .global comando_decimal
     537 0000006c                   .data
     538                            .align  4
     539                            .elfsym comando_decimal,SYM_SIZE(4)
     540 0000006c           comando_decimal:
     541 0000006c 00000000          .bits           0,32
     542                                            ; comando_decimal @ 0
     543                    
     544                    $C$DW$32        .dwtag  DW_TAG_variable
     545                            .dwattr $C$DW$32, DW_AT_name("comando_decimal")
     546                            .dwattr $C$DW$32, DW_AT_TI_symbol_name("comando_decimal")
     547                            .dwattr $C$DW$32, DW_AT_location[DW_OP_addr comando_decimal]
     548                            .dwattr $C$DW$32, DW_AT_type(*$C$DW$T$10)
     549                            .dwattr $C$DW$32, DW_AT_external
     550                            .dwattr $C$DW$32, DW_AT_decl_file("../MAIN.c")
TI ARM Assembler PC v20.2.7 Wed Feb 19 20:53:45 2025

Copyright (c) 1996-2018 Texas Instruments Incorporated
MAIN.asm                                                             PAGE   11

     551                            .dwattr $C$DW$32, DW_AT_decl_line(0x36)
     552                            .dwattr $C$DW$32, DW_AT_decl_column(0x63)
     553                    
     554                            .global Vsaida_ant
     555 00000070                   .data
     556                            .align  4
     557                            .elfsym Vsaida_ant,SYM_SIZE(4)
     558 00000070           Vsaida_ant:
     559 00000070 00000000          .bits           0,32
     560                                            ; Vsaida_ant @ 0
     561                    
     562                    $C$DW$33        .dwtag  DW_TAG_variable
     563                            .dwattr $C$DW$33, DW_AT_name("Vsaida_ant")
     564                            .dwattr $C$DW$33, DW_AT_TI_symbol_name("Vsaida_ant")
     565                            .dwattr $C$DW$33, DW_AT_location[DW_OP_addr Vsaida_ant]
     566                            .dwattr $C$DW$33, DW_AT_type(*$C$DW$T$10)
     567                            .dwattr $C$DW$33, DW_AT_external
     568                            .dwattr $C$DW$33, DW_AT_decl_file("../MAIN.c")
     569                            .dwattr $C$DW$33, DW_AT_decl_line(0x36)
     570                            .dwattr $C$DW$33, DW_AT_decl_column(0x76)
     571                    
     572                            .global vet1
     573                            .common vet1,16000,4
     574                    $C$DW$34        .dwtag  DW_TAG_variable
     575                            .dwattr $C$DW$34, DW_AT_name("vet1")
     576                            .dwattr $C$DW$34, DW_AT_TI_symbol_name("vet1")
     577                            .dwattr $C$DW$34, DW_AT_location[DW_OP_addr vet1]
     578                            .dwattr $C$DW$34, DW_AT_type(*$C$DW$T$171)
     579                            .dwattr $C$DW$34, DW_AT_external
     580                            .dwattr $C$DW$34, DW_AT_decl_file("../MAIN.c")
     581                            .dwattr $C$DW$34, DW_AT_decl_line(0x37)
     582                            .dwattr $C$DW$34, DW_AT_decl_column(0x07)
     583                    
     584                            .global auxiliar
     585 00000074                   .data
     586                            .align  4
     587                            .elfsym auxiliar,SYM_SIZE(4)
     588 00000074           auxiliar:
     589 00000074 00000000          .bits           0,32
     590                                            ; auxiliar @ 0
     591                    
     592                    $C$DW$35        .dwtag  DW_TAG_variable
     593                            .dwattr $C$DW$35, DW_AT_name("auxiliar")
     594                            .dwattr $C$DW$35, DW_AT_TI_symbol_name("auxiliar")
     595                            .dwattr $C$DW$35, DW_AT_location[DW_OP_addr auxiliar]
     596                            .dwattr $C$DW$35, DW_AT_type(*$C$DW$T$10)
     597                            .dwattr $C$DW$35, DW_AT_external
     598                            .dwattr $C$DW$35, DW_AT_decl_file("../MAIN.c")
     599                            .dwattr $C$DW$35, DW_AT_decl_line(0x38)
     600                            .dwattr $C$DW$35, DW_AT_decl_column(0x05)
     601                    
     602                            .global Kp
     603 00000078                   .data
     604                            .align  4
     605                            .elfsym Kp,SYM_SIZE(4)
TI ARM Assembler PC v20.2.7 Wed Feb 19 20:53:45 2025

Copyright (c) 1996-2018 Texas Instruments Incorporated
MAIN.asm                                                             PAGE   12

     606 00000078           Kp:
     607 00000078 3F59999A          .word   03f59999ah      ; Kp @ 0 (0.85000002384185791016)
     608                    
     609                    $C$DW$36        .dwtag  DW_TAG_variable
     610                            .dwattr $C$DW$36, DW_AT_name("Kp")
     611                            .dwattr $C$DW$36, DW_AT_TI_symbol_name("Kp")
     612                            .dwattr $C$DW$36, DW_AT_location[DW_OP_addr Kp]
     613                            .dwattr $C$DW$36, DW_AT_type(*$C$DW$T$16)
     614                            .dwattr $C$DW$36, DW_AT_external
     615                            .dwattr $C$DW$36, DW_AT_decl_file("../MAIN.c")
     616                            .dwattr $C$DW$36, DW_AT_decl_line(0x39)
     617                            .dwattr $C$DW$36, DW_AT_decl_column(0x07)
     618                    
     619                            .global Ki
     620 0000007c                   .data
     621                            .align  4
     622                            .elfsym Ki,SYM_SIZE(4)
     623 0000007c           Ki:
     624 0000007c 00000000          .word   000000000h      ; Ki @ 0 (0)
     625                    
     626                    $C$DW$37        .dwtag  DW_TAG_variable
     627                            .dwattr $C$DW$37, DW_AT_name("Ki")
     628                            .dwattr $C$DW$37, DW_AT_TI_symbol_name("Ki")
     629                            .dwattr $C$DW$37, DW_AT_location[DW_OP_addr Ki]
     630                            .dwattr $C$DW$37, DW_AT_type(*$C$DW$T$16)
     631                            .dwattr $C$DW$37, DW_AT_external
     632                            .dwattr $C$DW$37, DW_AT_decl_file("../MAIN.c")
     633                            .dwattr $C$DW$37, DW_AT_decl_line(0x3a)
     634                            .dwattr $C$DW$37, DW_AT_decl_column(0x07)
     635                    
     636                            .global Kd
     637 00000080                   .data
     638                            .align  4
     639                            .elfsym Kd,SYM_SIZE(4)
     640 00000080           Kd:
     641 00000080 00000000          .word   000000000h      ; Kd @ 0 (0)
     642                    
     643                    $C$DW$38        .dwtag  DW_TAG_variable
     644                            .dwattr $C$DW$38, DW_AT_name("Kd")
     645                            .dwattr $C$DW$38, DW_AT_TI_symbol_name("Kd")
     646                            .dwattr $C$DW$38, DW_AT_location[DW_OP_addr Kd]
     647                            .dwattr $C$DW$38, DW_AT_type(*$C$DW$T$16)
     648                            .dwattr $C$DW$38, DW_AT_external
     649                            .dwattr $C$DW$38, DW_AT_decl_file("../MAIN.c")
     650                            .dwattr $C$DW$38, DW_AT_decl_line(0x3b)
     651                            .dwattr $C$DW$38, DW_AT_decl_column(0x07)
     652                    
     653                            .global Ti
     654 00000084                   .data
     655                            .align  4
     656                            .elfsym Ti,SYM_SIZE(4)
     657 00000084           Ti:
     658 00000084 3E99999A          .word   03e99999ah      ; Ti @ 0 (0.30000001192092895508)
     659                    
     660                    $C$DW$39        .dwtag  DW_TAG_variable
TI ARM Assembler PC v20.2.7 Wed Feb 19 20:53:45 2025

Copyright (c) 1996-2018 Texas Instruments Incorporated
MAIN.asm                                                             PAGE   13

     661                            .dwattr $C$DW$39, DW_AT_name("Ti")
     662                            .dwattr $C$DW$39, DW_AT_TI_symbol_name("Ti")
     663                            .dwattr $C$DW$39, DW_AT_location[DW_OP_addr Ti]
     664                            .dwattr $C$DW$39, DW_AT_type(*$C$DW$T$16)
     665                            .dwattr $C$DW$39, DW_AT_external
     666                            .dwattr $C$DW$39, DW_AT_decl_file("../MAIN.c")
     667                            .dwattr $C$DW$39, DW_AT_decl_line(0x3d)
     668                            .dwattr $C$DW$39, DW_AT_decl_column(0x07)
     669                    
     670                            .global Td
     671 00000088                   .data
     672                            .align  4
     673                            .elfsym Td,SYM_SIZE(4)
     674 00000088           Td:
     675 00000088 3DE147AE          .word   03de147aeh      ; Td @ 0 (0.10999999940395355225)
     676                    
     677                    $C$DW$40        .dwtag  DW_TAG_variable
     678                            .dwattr $C$DW$40, DW_AT_name("Td")
     679                            .dwattr $C$DW$40, DW_AT_TI_symbol_name("Td")
     680                            .dwattr $C$DW$40, DW_AT_location[DW_OP_addr Td]
     681                            .dwattr $C$DW$40, DW_AT_type(*$C$DW$T$16)
     682                            .dwattr $C$DW$40, DW_AT_external
     683                            .dwattr $C$DW$40, DW_AT_decl_file("../MAIN.c")
     684                            .dwattr $C$DW$40, DW_AT_decl_line(0x3e)
     685                            .dwattr $C$DW$40, DW_AT_decl_column(0x07)
     686                    
     687                            .global N
     688 0000008c                   .data
     689                            .align  4
     690                            .elfsym N,SYM_SIZE(4)
     691 0000008c           N:
     692 0000008c 41C80000          .word   041c80000h      ; N @ 0 (25)
     693                    
     694                    $C$DW$41        .dwtag  DW_TAG_variable
     695                            .dwattr $C$DW$41, DW_AT_name("N")
     696                            .dwattr $C$DW$41, DW_AT_TI_symbol_name("N")
     697                            .dwattr $C$DW$41, DW_AT_location[DW_OP_addr N]
     698                            .dwattr $C$DW$41, DW_AT_type(*$C$DW$T$16)
     699                            .dwattr $C$DW$41, DW_AT_external
     700                            .dwattr $C$DW$41, DW_AT_decl_file("../MAIN.c")
     701                            .dwattr $C$DW$41, DW_AT_decl_line(0x3f)
     702                            .dwattr $C$DW$41, DW_AT_decl_column(0x07)
     703                    
     704                            .global e_aw
     705 00000090                   .data
     706                            .align  4
     707                            .elfsym e_aw,SYM_SIZE(4)
     708 00000090           e_aw:
     709 00000090 00000000          .word   000000000h      ; e_aw @ 0 (0)
     710                    
     711                    $C$DW$42        .dwtag  DW_TAG_variable
     712                            .dwattr $C$DW$42, DW_AT_name("e_aw")
     713                            .dwattr $C$DW$42, DW_AT_TI_symbol_name("e_aw")
     714                            .dwattr $C$DW$42, DW_AT_location[DW_OP_addr e_aw]
     715                            .dwattr $C$DW$42, DW_AT_type(*$C$DW$T$16)
TI ARM Assembler PC v20.2.7 Wed Feb 19 20:53:45 2025

Copyright (c) 1996-2018 Texas Instruments Incorporated
MAIN.asm                                                             PAGE   14

     716                            .dwattr $C$DW$42, DW_AT_external
     717                            .dwattr $C$DW$42, DW_AT_decl_file("../MAIN.c")
     718                            .dwattr $C$DW$42, DW_AT_decl_line(0x40)
     719                            .dwattr $C$DW$42, DW_AT_decl_column(0x07)
     720                    
     721                            .global A
     722 00000094                   .data
     723                            .align  4
     724                            .elfsym A,SYM_SIZE(4)
     725 00000094           A:
     726 00000094 00000000          .word   000000000h      ; A @ 0 (0)
     727                    
     728                    $C$DW$43        .dwtag  DW_TAG_variable
     729                            .dwattr $C$DW$43, DW_AT_name("A")
     730                            .dwattr $C$DW$43, DW_AT_TI_symbol_name("A")
     731                            .dwattr $C$DW$43, DW_AT_location[DW_OP_addr A]
     732                            .dwattr $C$DW$43, DW_AT_type(*$C$DW$T$16)
     733                            .dwattr $C$DW$43, DW_AT_external
     734                            .dwattr $C$DW$43, DW_AT_decl_file("../MAIN.c")
     735                            .dwattr $C$DW$43, DW_AT_decl_line(0x42)
     736                            .dwattr $C$DW$43, DW_AT_decl_column(0x07)
     737                    
     738                            .global B
     739 00000098                   .data
     740                            .align  4
     741                            .elfsym B,SYM_SIZE(4)
     742 00000098           B:
     743 00000098 00000000          .word   000000000h      ; B @ 0 (0)
     744                    
     745                    $C$DW$44        .dwtag  DW_TAG_variable
     746                            .dwattr $C$DW$44, DW_AT_name("B")
     747                            .dwattr $C$DW$44, DW_AT_TI_symbol_name("B")
     748                            .dwattr $C$DW$44, DW_AT_location[DW_OP_addr B]
     749                            .dwattr $C$DW$44, DW_AT_type(*$C$DW$T$16)
     750                            .dwattr $C$DW$44, DW_AT_external
     751                            .dwattr $C$DW$44, DW_AT_decl_file("../MAIN.c")
     752                            .dwattr $C$DW$44, DW_AT_decl_line(0x42)
     753                            .dwattr $C$DW$44, DW_AT_decl_column(0x0c)
     754                    
     755                            .global a
     756 0000009c                   .data
     757                            .align  4
     758                            .elfsym a,SYM_SIZE(4)
     759 0000009c           a:
     760 0000009c 00000000          .word   000000000h      ; a @ 0 (0)
     761                    
     762                    $C$DW$45        .dwtag  DW_TAG_variable
     763                            .dwattr $C$DW$45, DW_AT_name("a")
     764                            .dwattr $C$DW$45, DW_AT_TI_symbol_name("a")
     765                            .dwattr $C$DW$45, DW_AT_location[DW_OP_addr a]
     766                            .dwattr $C$DW$45, DW_AT_type(*$C$DW$T$16)
     767                            .dwattr $C$DW$45, DW_AT_external
     768                            .dwattr $C$DW$45, DW_AT_decl_file("../MAIN.c")
     769                            .dwattr $C$DW$45, DW_AT_decl_line(0x42)
     770                            .dwattr $C$DW$45, DW_AT_decl_column(0x11)
TI ARM Assembler PC v20.2.7 Wed Feb 19 20:53:45 2025

Copyright (c) 1996-2018 Texas Instruments Incorporated
MAIN.asm                                                             PAGE   15

     771                    
     772                            .global wc
     773 000000a0                   .data
     774                            .align  4
     775                            .elfsym wc,SYM_SIZE(4)
     776 000000a0           wc:
     777 000000a0 00000000          .word   000000000h      ; wc @ 0 (0)
     778                    
     779                    $C$DW$46        .dwtag  DW_TAG_variable
     780                            .dwattr $C$DW$46, DW_AT_name("wc")
     781                            .dwattr $C$DW$46, DW_AT_TI_symbol_name("wc")
     782                            .dwattr $C$DW$46, DW_AT_location[DW_OP_addr wc]
     783                            .dwattr $C$DW$46, DW_AT_type(*$C$DW$T$16)
     784                            .dwattr $C$DW$46, DW_AT_external
     785                            .dwattr $C$DW$46, DW_AT_decl_file("../MAIN.c")
     786                            .dwattr $C$DW$46, DW_AT_decl_line(0x42)
     787                            .dwattr $C$DW$46, DW_AT_decl_column(0x16)
     788                    
     789                            .global pi
     790 000000a4                   .data
     791                            .align  4
     792                            .elfsym pi,SYM_SIZE(4)
     793 000000a4           pi:
     794 000000a4 40490FDB          .word   040490fdbh      ; pi @ 0 (3.14159274101257324219)
     795                    
     796                    $C$DW$47        .dwtag  DW_TAG_variable
     797                            .dwattr $C$DW$47, DW_AT_name("pi")
     798                            .dwattr $C$DW$47, DW_AT_TI_symbol_name("pi")
     799                            .dwattr $C$DW$47, DW_AT_location[DW_OP_addr pi]
     800                            .dwattr $C$DW$47, DW_AT_type(*$C$DW$T$16)
     801                            .dwattr $C$DW$47, DW_AT_external
     802                            .dwattr $C$DW$47, DW_AT_decl_file("../MAIN.c")
     803                            .dwattr $C$DW$47, DW_AT_decl_line(0x42)
     804                            .dwattr $C$DW$47, DW_AT_decl_column(0x1c)
     805                    
     806                            .global Ud_ant
     807 000000a8                   .data
     808                            .align  4
     809                            .elfsym Ud_ant,SYM_SIZE(4)
     810 000000a8           Ud_ant:
     811 000000a8 00000000          .word   000000000h      ; Ud_ant @ 0 (0)
     812                    
     813                    $C$DW$48        .dwtag  DW_TAG_variable
     814                            .dwattr $C$DW$48, DW_AT_name("Ud_ant")
     815                            .dwattr $C$DW$48, DW_AT_TI_symbol_name("Ud_ant")
     816                            .dwattr $C$DW$48, DW_AT_location[DW_OP_addr Ud_ant]
     817                            .dwattr $C$DW$48, DW_AT_type(*$C$DW$T$16)
     818                            .dwattr $C$DW$48, DW_AT_external
     819                            .dwattr $C$DW$48, DW_AT_decl_file("../MAIN.c")
     820                            .dwattr $C$DW$48, DW_AT_decl_line(0x44)
     821                            .dwattr $C$DW$48, DW_AT_decl_column(0x07)
     822                    
     823                            .global Ud
     824 000000ac                   .data
     825                            .align  4
TI ARM Assembler PC v20.2.7 Wed Feb 19 20:53:45 2025

Copyright (c) 1996-2018 Texas Instruments Incorporated
MAIN.asm                                                             PAGE   16

     826                            .elfsym Ud,SYM_SIZE(4)
     827 000000ac           Ud:
     828 000000ac 00000000          .word   000000000h      ; Ud @ 0 (0)
     829                    
     830                    $C$DW$49        .dwtag  DW_TAG_variable
     831                            .dwattr $C$DW$49, DW_AT_name("Ud")
     832                            .dwattr $C$DW$49, DW_AT_TI_symbol_name("Ud")
     833                            .dwattr $C$DW$49, DW_AT_location[DW_OP_addr Ud]
     834                            .dwattr $C$DW$49, DW_AT_type(*$C$DW$T$16)
     835                            .dwattr $C$DW$49, DW_AT_external
     836                            .dwattr $C$DW$49, DW_AT_decl_file("../MAIN.c")
     837                            .dwattr $C$DW$49, DW_AT_decl_line(0x44)
     838                            .dwattr $C$DW$49, DW_AT_decl_column(0x11)
     839                    
     840                            .global Ui
     841 000000b0                   .data
     842                            .align  4
     843                            .elfsym Ui,SYM_SIZE(4)
     844 000000b0           Ui:
     845 000000b0 00000000          .word   000000000h      ; Ui @ 0 (0)
     846                    
     847                    $C$DW$50        .dwtag  DW_TAG_variable
     848                            .dwattr $C$DW$50, DW_AT_name("Ui")
     849                            .dwattr $C$DW$50, DW_AT_TI_symbol_name("Ui")
     850                            .dwattr $C$DW$50, DW_AT_location[DW_OP_addr Ui]
     851                            .dwattr $C$DW$50, DW_AT_type(*$C$DW$T$16)
     852                            .dwattr $C$DW$50, DW_AT_external
     853                            .dwattr $C$DW$50, DW_AT_decl_file("../MAIN.c")
     854                            .dwattr $C$DW$50, DW_AT_decl_line(0x44)
     855                            .dwattr $C$DW$50, DW_AT_decl_column(0x17)
     856                    
     857                            .global Ui_ant
     858 000000b4                   .data
     859                            .align  4
     860                            .elfsym Ui_ant,SYM_SIZE(4)
     861 000000b4           Ui_ant:
     862 000000b4 00000000          .word   000000000h      ; Ui_ant @ 0 (0)
     863                    
     864                    $C$DW$51        .dwtag  DW_TAG_variable
     865                            .dwattr $C$DW$51, DW_AT_name("Ui_ant")
     866                            .dwattr $C$DW$51, DW_AT_TI_symbol_name("Ui_ant")
     867                            .dwattr $C$DW$51, DW_AT_location[DW_OP_addr Ui_ant]
     868                            .dwattr $C$DW$51, DW_AT_type(*$C$DW$T$16)
     869                            .dwattr $C$DW$51, DW_AT_external
     870                            .dwattr $C$DW$51, DW_AT_decl_file("../MAIN.c")
     871                            .dwattr $C$DW$51, DW_AT_decl_line(0x44)
     872                            .dwattr $C$DW$51, DW_AT_decl_column(0x1d)
     873                    
     874                            .global angulo1_ant
     875 000000b8                   .data
     876                            .align  4
     877                            .elfsym angulo1_ant,SYM_SIZE(4)
     878 000000b8           angulo1_ant:
     879 000000b8 00000000          .word   000000000h      ; angulo1_ant @ 0 (0)
     880                    
TI ARM Assembler PC v20.2.7 Wed Feb 19 20:53:45 2025

Copyright (c) 1996-2018 Texas Instruments Incorporated
MAIN.asm                                                             PAGE   17

     881                    $C$DW$52        .dwtag  DW_TAG_variable
     882                            .dwattr $C$DW$52, DW_AT_name("angulo1_ant")
     883                            .dwattr $C$DW$52, DW_AT_TI_symbol_name("angulo1_ant")
     884                            .dwattr $C$DW$52, DW_AT_location[DW_OP_addr angulo1_ant]
     885                            .dwattr $C$DW$52, DW_AT_type(*$C$DW$T$16)
     886                            .dwattr $C$DW$52, DW_AT_external
     887                            .dwattr $C$DW$52, DW_AT_decl_file("../MAIN.c")
     888                            .dwattr $C$DW$52, DW_AT_decl_line(0x44)
     889                            .dwattr $C$DW$52, DW_AT_decl_column(0x27)
     890                    
     891                            .global Up
     892 000000bc                   .data
     893                            .align  4
     894                            .elfsym Up,SYM_SIZE(4)
     895 000000bc           Up:
     896 000000bc 00000000          .word   000000000h      ; Up @ 0 (0)
     897                    
     898                    $C$DW$53        .dwtag  DW_TAG_variable
     899                            .dwattr $C$DW$53, DW_AT_name("Up")
     900                            .dwattr $C$DW$53, DW_AT_TI_symbol_name("Up")
     901                            .dwattr $C$DW$53, DW_AT_location[DW_OP_addr Up]
     902                            .dwattr $C$DW$53, DW_AT_type(*$C$DW$T$16)
     903                            .dwattr $C$DW$53, DW_AT_external
     904                            .dwattr $C$DW$53, DW_AT_decl_file("../MAIN.c")
     905                            .dwattr $C$DW$53, DW_AT_decl_line(0x44)
     906                            .dwattr $C$DW$53, DW_AT_decl_column(0x36)
     907                    
     908                            .global angulo1
     909 000000c0                   .data
     910                            .align  4
     911                            .elfsym angulo1,SYM_SIZE(4)
     912 000000c0           angulo1:
     913 000000c0 00000000          .word   000000000h      ; angulo1 @ 0 (0)
     914                    
     915                    $C$DW$54        .dwtag  DW_TAG_variable
     916                            .dwattr $C$DW$54, DW_AT_name("angulo1")
     917                            .dwattr $C$DW$54, DW_AT_TI_symbol_name("angulo1")
     918                            .dwattr $C$DW$54, DW_AT_location[DW_OP_addr angulo1]
     919                            .dwattr $C$DW$54, DW_AT_type(*$C$DW$T$16)
     920                            .dwattr $C$DW$54, DW_AT_external
     921                            .dwattr $C$DW$54, DW_AT_decl_file("../MAIN.c")
     922                            .dwattr $C$DW$54, DW_AT_decl_line(0x44)
     923                            .dwattr $C$DW$54, DW_AT_decl_column(0x3c)
     924                    
     925                            .global erro
     926 000000c4                   .data
     927                            .align  4
     928                            .elfsym erro,SYM_SIZE(4)
     929 000000c4           erro:
     930 000000c4 00000000          .word   000000000h      ; erro @ 0 (0)
     931                    
     932                    $C$DW$55        .dwtag  DW_TAG_variable
     933                            .dwattr $C$DW$55, DW_AT_name("erro")
     934                            .dwattr $C$DW$55, DW_AT_TI_symbol_name("erro")
     935                            .dwattr $C$DW$55, DW_AT_location[DW_OP_addr erro]
TI ARM Assembler PC v20.2.7 Wed Feb 19 20:53:45 2025

Copyright (c) 1996-2018 Texas Instruments Incorporated
MAIN.asm                                                             PAGE   18

     936                            .dwattr $C$DW$55, DW_AT_type(*$C$DW$T$16)
     937                            .dwattr $C$DW$55, DW_AT_external
     938                            .dwattr $C$DW$55, DW_AT_decl_file("../MAIN.c")
     939                            .dwattr $C$DW$55, DW_AT_decl_line(0x44)
     940                            .dwattr $C$DW$55, DW_AT_decl_column(0x47)
     941                    
     942                            .global erro_ant
     943 000000c8                   .data
     944                            .align  4
     945                            .elfsym erro_ant,SYM_SIZE(4)
     946 000000c8           erro_ant:
     947 000000c8 00000000          .word   000000000h      ; erro_ant @ 0 (0)
     948                    
     949                    $C$DW$56        .dwtag  DW_TAG_variable
     950                            .dwattr $C$DW$56, DW_AT_name("erro_ant")
     951                            .dwattr $C$DW$56, DW_AT_TI_symbol_name("erro_ant")
     952                            .dwattr $C$DW$56, DW_AT_location[DW_OP_addr erro_ant]
     953                            .dwattr $C$DW$56, DW_AT_type(*$C$DW$T$16)
     954                            .dwattr $C$DW$56, DW_AT_external
     955                            .dwattr $C$DW$56, DW_AT_decl_file("../MAIN.c")
     956                            .dwattr $C$DW$56, DW_AT_decl_line(0x44)
     957                            .dwattr $C$DW$56, DW_AT_decl_column(0x4f)
     958                    
     959                            .global angulo1_ant_2
     960 000000cc                   .data
     961                            .align  4
     962                            .elfsym angulo1_ant_2,SYM_SIZE(4)
     963 000000cc           angulo1_ant_2:
     964 000000cc 00000000          .word   000000000h      ; angulo1_ant_2 @ 0 (0)
     965                    
     966                    $C$DW$57        .dwtag  DW_TAG_variable
     967                            .dwattr $C$DW$57, DW_AT_name("angulo1_ant_2")
     968                            .dwattr $C$DW$57, DW_AT_TI_symbol_name("angulo1_ant_2")
     969                            .dwattr $C$DW$57, DW_AT_location[DW_OP_addr angulo1_ant_2]
     970                            .dwattr $C$DW$57, DW_AT_type(*$C$DW$T$16)
     971                            .dwattr $C$DW$57, DW_AT_external
     972                            .dwattr $C$DW$57, DW_AT_decl_file("../MAIN.c")
     973                            .dwattr $C$DW$57, DW_AT_decl_line(0x44)
     974                            .dwattr $C$DW$57, DW_AT_decl_column(0x5a)
     975                    
     976                            .global e_filtro
     977 000000d0                   .data
     978                            .align  4
     979                            .elfsym e_filtro,SYM_SIZE(4)
     980 000000d0           e_filtro:
     981 000000d0 00000000          .word   000000000h      ; e_filtro @ 0 (0)
     982                    
     983                    $C$DW$58        .dwtag  DW_TAG_variable
     984                            .dwattr $C$DW$58, DW_AT_name("e_filtro")
     985                            .dwattr $C$DW$58, DW_AT_TI_symbol_name("e_filtro")
     986                            .dwattr $C$DW$58, DW_AT_location[DW_OP_addr e_filtro]
     987                            .dwattr $C$DW$58, DW_AT_type(*$C$DW$T$16)
     988                            .dwattr $C$DW$58, DW_AT_external
     989                            .dwattr $C$DW$58, DW_AT_decl_file("../MAIN.c")
     990                            .dwattr $C$DW$58, DW_AT_decl_line(0x44)
TI ARM Assembler PC v20.2.7 Wed Feb 19 20:53:45 2025

Copyright (c) 1996-2018 Texas Instruments Incorporated
MAIN.asm                                                             PAGE   19

     991                            .dwattr $C$DW$58, DW_AT_decl_column(0x6b)
     992                    
     993                            .global u_filtro
     994 000000d4                   .data
     995                            .align  4
     996                            .elfsym u_filtro,SYM_SIZE(4)
     997 000000d4           u_filtro:
     998 000000d4 00000000          .word   000000000h      ; u_filtro @ 0 (0)
     999                    
    1000                    $C$DW$59        .dwtag  DW_TAG_variable
    1001                            .dwattr $C$DW$59, DW_AT_name("u_filtro")
    1002                            .dwattr $C$DW$59, DW_AT_TI_symbol_name("u_filtro")
    1003                            .dwattr $C$DW$59, DW_AT_location[DW_OP_addr u_filtro]
    1004                            .dwattr $C$DW$59, DW_AT_type(*$C$DW$T$16)
    1005                            .dwattr $C$DW$59, DW_AT_external
    1006                            .dwattr $C$DW$59, DW_AT_decl_file("../MAIN.c")
    1007                            .dwattr $C$DW$59, DW_AT_decl_line(0x44)
    1008                            .dwattr $C$DW$59, DW_AT_decl_column(0x77)
    1009                    
    1010                            .global u_filtro_ant
    1011 000000d8                   .data
    1012                            .align  4
    1013                            .elfsym u_filtro_ant,SYM_SIZE(4)
    1014 000000d8           u_filtro_ant:
    1015 000000d8 00000000          .word   000000000h      ; u_filtro_ant @ 0 (0)
    1016                    
    1017                    $C$DW$60        .dwtag  DW_TAG_variable
    1018                            .dwattr $C$DW$60, DW_AT_name("u_filtro_ant")
    1019                            .dwattr $C$DW$60, DW_AT_TI_symbol_name("u_filtro_ant")
    1020                            .dwattr $C$DW$60, DW_AT_location[DW_OP_addr u_filtro_ant]
    1021                            .dwattr $C$DW$60, DW_AT_type(*$C$DW$T$16)
    1022                            .dwattr $C$DW$60, DW_AT_external
    1023                            .dwattr $C$DW$60, DW_AT_decl_file("../MAIN.c")
    1024                            .dwattr $C$DW$60, DW_AT_decl_line(0x44)
    1025                            .dwattr $C$DW$60, DW_AT_decl_column(0x83)
    1026                    
    1027                            .global e_filtro_ant
    1028 000000dc                   .data
    1029                            .align  4
    1030                            .elfsym e_filtro_ant,SYM_SIZE(4)
    1031 000000dc           e_filtro_ant:
    1032 000000dc 00000000          .word   000000000h      ; e_filtro_ant @ 0 (0)
    1033                    
    1034                    $C$DW$61        .dwtag  DW_TAG_variable
    1035                            .dwattr $C$DW$61, DW_AT_name("e_filtro_ant")
    1036                            .dwattr $C$DW$61, DW_AT_TI_symbol_name("e_filtro_ant")
    1037                            .dwattr $C$DW$61, DW_AT_location[DW_OP_addr e_filtro_ant]
    1038                            .dwattr $C$DW$61, DW_AT_type(*$C$DW$T$16)
    1039                            .dwattr $C$DW$61, DW_AT_external
    1040                            .dwattr $C$DW$61, DW_AT_decl_file("../MAIN.c")
    1041                            .dwattr $C$DW$61, DW_AT_decl_line(0x44)
    1042                            .dwattr $C$DW$61, DW_AT_decl_column(0x93)
    1043                    
    1044                            .global DUTY
    1045 000000e0                   .data
TI ARM Assembler PC v20.2.7 Wed Feb 19 20:53:45 2025

Copyright (c) 1996-2018 Texas Instruments Incorporated
MAIN.asm                                                             PAGE   20

    1046                            .align  4
    1047                            .elfsym DUTY,SYM_SIZE(4)
    1048 000000e0           DUTY:
    1049 000000e0 42480000          .word   042480000h      ; DUTY @ 0 (50)
    1050                    
    1051                    $C$DW$62        .dwtag  DW_TAG_variable
    1052                            .dwattr $C$DW$62, DW_AT_name("DUTY")
    1053                            .dwattr $C$DW$62, DW_AT_TI_symbol_name("DUTY")
    1054                            .dwattr $C$DW$62, DW_AT_location[DW_OP_addr DUTY]
    1055                            .dwattr $C$DW$62, DW_AT_type(*$C$DW$T$16)
    1056                            .dwattr $C$DW$62, DW_AT_external
    1057                            .dwattr $C$DW$62, DW_AT_decl_file("../MAIN.c")
    1058                            .dwattr $C$DW$62, DW_AT_decl_line(0x46)
    1059                            .dwattr $C$DW$62, DW_AT_decl_column(0x07)
    1060                    
    1061                            .global Dado
    1062 000000e4                   .data
    1063                            .align  4
    1064                            .elfsym Dado,SYM_SIZE(4)
    1065 000000e4           Dado:
    1066 000000e4 00000000          .word   000000000h      ; Dado @ 0 (0)
    1067                    
    1068                    $C$DW$63        .dwtag  DW_TAG_variable
    1069                            .dwattr $C$DW$63, DW_AT_name("Dado")
    1070                            .dwattr $C$DW$63, DW_AT_TI_symbol_name("Dado")
    1071                            .dwattr $C$DW$63, DW_AT_location[DW_OP_addr Dado]
    1072                            .dwattr $C$DW$63, DW_AT_type(*$C$DW$T$16)
    1073                            .dwattr $C$DW$63, DW_AT_external
    1074                            .dwattr $C$DW$63, DW_AT_decl_file("../MAIN.c")
    1075                            .dwattr $C$DW$63, DW_AT_decl_line(0x47)
    1076                            .dwattr $C$DW$63, DW_AT_decl_column(0x07)
    1077                    
    1078                            .global FREQ_AD
    1079 000000e8                   .data
    1080                            .align  4
    1081                            .elfsym FREQ_AD,SYM_SIZE(4)
    1082 000000e8           FREQ_AD:
    1083 000000e8 00002710          .bits           0x2710,32
    1084                                            ; FREQ_AD @ 0
    1085                    
    1086                    $C$DW$64        .dwtag  DW_TAG_variable
    1087                            .dwattr $C$DW$64, DW_AT_name("FREQ_AD")
    1088                            .dwattr $C$DW$64, DW_AT_TI_symbol_name("FREQ_AD")
    1089                            .dwattr $C$DW$64, DW_AT_location[DW_OP_addr FREQ_AD]
    1090                            .dwattr $C$DW$64, DW_AT_type(*$C$DW$T$10)
    1091                            .dwattr $C$DW$64, DW_AT_external
    1092                            .dwattr $C$DW$64, DW_AT_decl_file("../MAIN.c")
    1093                            .dwattr $C$DW$64, DW_AT_decl_line(0x48)
    1094                            .dwattr $C$DW$64, DW_AT_decl_column(0x05)
    1095                    
    1096                            .global FREQ_PWM
    1097 000000ec                   .data
    1098                            .align  4
    1099                            .elfsym FREQ_PWM,SYM_SIZE(4)
    1100 000000ec           FREQ_PWM:
TI ARM Assembler PC v20.2.7 Wed Feb 19 20:53:45 2025

Copyright (c) 1996-2018 Texas Instruments Incorporated
MAIN.asm                                                             PAGE   21

    1101 000000ec 00004E20          .bits           0x4e20,32
    1102                                            ; FREQ_PWM @ 0
    1103                    
    1104                    $C$DW$65        .dwtag  DW_TAG_variable
    1105                            .dwattr $C$DW$65, DW_AT_name("FREQ_PWM")
    1106                            .dwattr $C$DW$65, DW_AT_TI_symbol_name("FREQ_PWM")
    1107                            .dwattr $C$DW$65, DW_AT_location[DW_OP_addr FREQ_PWM]
    1108                            .dwattr $C$DW$65, DW_AT_type(*$C$DW$T$10)
    1109                            .dwattr $C$DW$65, DW_AT_external
    1110                            .dwattr $C$DW$65, DW_AT_decl_file("../MAIN.c")
    1111                            .dwattr $C$DW$65, DW_AT_decl_line(0x49)
    1112                            .dwattr $C$DW$65, DW_AT_decl_column(0x05)
    1113                    
    1114                            .global ENEABLE
    1115 000000f0                   .data
    1116                            .align  1
    1117                            .elfsym ENEABLE,SYM_SIZE(1)
    1118 000000f0           ENEABLE:
    1119 000000f0 00000001          .bits           0x1,8
    1120                                            ; ENEABLE @ 0
    1121                    
    1122                    $C$DW$66        .dwtag  DW_TAG_variable
    1123                            .dwattr $C$DW$66, DW_AT_name("ENEABLE")
    1124                            .dwattr $C$DW$66, DW_AT_TI_symbol_name("ENEABLE")
    1125                            .dwattr $C$DW$66, DW_AT_location[DW_OP_addr ENEABLE]
    1126                            .dwattr $C$DW$66, DW_AT_type(*$C$DW$T$55)
    1127                            .dwattr $C$DW$66, DW_AT_external
    1128                            .dwattr $C$DW$66, DW_AT_decl_file("../MAIN.c")
    1129                            .dwattr $C$DW$66, DW_AT_decl_line(0x4a)
    1130                            .dwattr $C$DW$66, DW_AT_decl_column(0x09)
    1131                    
    1132                            .global novas_constantes
    1133 000000f1                   .data
    1134                            .align  1
    1135                            .elfsym novas_constantes,SYM_SIZE(1)
    1136 000000f1           novas_constantes:
    1137 000000f0 00000001          .bits           0,8
    1138                                            ; novas_constantes @ 0
    1139                    
    1140                    $C$DW$67        .dwtag  DW_TAG_variable
    1141                            .dwattr $C$DW$67, DW_AT_name("novas_constantes")
    1142                            .dwattr $C$DW$67, DW_AT_TI_symbol_name("novas_constantes")
    1143                            .dwattr $C$DW$67, DW_AT_location[DW_OP_addr novas_constantes]
    1144                            .dwattr $C$DW$67, DW_AT_type(*$C$DW$T$55)
    1145                            .dwattr $C$DW$67, DW_AT_external
    1146                            .dwattr $C$DW$67, DW_AT_decl_file("../MAIN.c")
    1147                            .dwattr $C$DW$67, DW_AT_decl_line(0x4a)
    1148                            .dwattr $C$DW$67, DW_AT_decl_column(0x14)
    1149                    
    1150                            .global Ts
    1151 000000f2                   .data
    1152                            .align  4
    1153                            .elfsym Ts,SYM_SIZE(4)
    1154 000000f4           Ts:
    1155 000000f4 38D1B717          .word   038d1b717h      ; Ts @ 0 (0.00009999999747378752)
TI ARM Assembler PC v20.2.7 Wed Feb 19 20:53:45 2025

Copyright (c) 1996-2018 Texas Instruments Incorporated
MAIN.asm                                                             PAGE   22

    1156                    
    1157                    $C$DW$68        .dwtag  DW_TAG_variable
    1158                            .dwattr $C$DW$68, DW_AT_name("Ts")
    1159                            .dwattr $C$DW$68, DW_AT_TI_symbol_name("Ts")
    1160                            .dwattr $C$DW$68, DW_AT_location[DW_OP_addr Ts]
    1161                            .dwattr $C$DW$68, DW_AT_type(*$C$DW$T$16)
    1162                            .dwattr $C$DW$68, DW_AT_external
    1163                            .dwattr $C$DW$68, DW_AT_decl_file("../MAIN.c")
    1164                            .dwattr $C$DW$68, DW_AT_decl_line(0x4b)
    1165                            .dwattr $C$DW$68, DW_AT_decl_column(0x07)
    1166                    
    1167                            .global digit_to_binary
    1168 00000000                   .sect   ".const:.string:digit_to_binary"
    1169                            .align  1
    1170                            .elfsym digit_to_binary,SYM_SIZE(12)
    1171 00000000           digit_to_binary:
    1172 00000000 00000000          .bits           0,8
    1173                                            ; digit_to_binary[0] @ 0
    1174 00000000 00000100          .bits           0x1,8
    1175                                            ; digit_to_binary[1] @ 8
    1176 00000000 00020100          .bits           0x2,8
    1177                                            ; digit_to_binary[2] @ 16
    1178 00000000 03020100          .bits           0x3,8
    1179                                            ; digit_to_binary[3] @ 24
    1180 00000004 00000004          .bits           0x4,8
    1181                                            ; digit_to_binary[4] @ 32
    1182 00000004 00000504          .bits           0x5,8
    1183                                            ; digit_to_binary[5] @ 40
    1184 00000004 00060504          .bits           0x6,8
    1185                                            ; digit_to_binary[6] @ 48
    1186 00000004 07060504          .bits           0x7,8
    1187                                            ; digit_to_binary[7] @ 56
    1188 00000008 00000008          .bits           0x8,8
    1189                                            ; digit_to_binary[8] @ 64
    1190 00000008 00000908          .bits           0x9,8
    1191                                            ; digit_to_binary[9] @ 72
    1192                    
    1193                    $C$DW$69        .dwtag  DW_TAG_variable
    1194                            .dwattr $C$DW$69, DW_AT_name("digit_to_binary")
    1195                            .dwattr $C$DW$69, DW_AT_TI_symbol_name("digit_to_binary")
    1196                            .dwattr $C$DW$69, DW_AT_location[DW_OP_addr digit_to_binary]
    1197                            .dwattr $C$DW$69, DW_AT_type(*$C$DW$T$59)
    1198                            .dwattr $C$DW$69, DW_AT_external
    1199                            .dwattr $C$DW$69, DW_AT_decl_file("../MAIN.c")
    1200                            .dwattr $C$DW$69, DW_AT_decl_line(0x63)
    1201                            .dwattr $C$DW$69, DW_AT_decl_column(0x0f)
    1202                    
    1203                    
    1204                    $C$DW$70        .dwtag  DW_TAG_subprogram
    1205                            .dwattr $C$DW$70, DW_AT_name("StartCritical")
    1206                            .dwattr $C$DW$70, DW_AT_TI_symbol_name("StartCritical")
    1207                            .dwattr $C$DW$70, DW_AT_declaration
    1208                            .dwattr $C$DW$70, DW_AT_external
    1209                            .dwattr $C$DW$70, DW_AT_decl_file("../MAIN.c")
    1210                            .dwattr $C$DW$70, DW_AT_decl_line(0x54)
TI ARM Assembler PC v20.2.7 Wed Feb 19 20:53:45 2025

Copyright (c) 1996-2018 Texas Instruments Incorporated
MAIN.asm                                                             PAGE   23

    1211                            .dwattr $C$DW$70, DW_AT_decl_column(0x06)
    1212                            .dwendtag $C$DW$70
    1213                    
    1214                    
    1215                    $C$DW$71        .dwtag  DW_TAG_subprogram
    1216                            .dwattr $C$DW$71, DW_AT_name("EnableInterrupts")
    1217                            .dwattr $C$DW$71, DW_AT_TI_symbol_name("EnableInterrupts")
    1218                            .dwattr $C$DW$71, DW_AT_declaration
    1219                            .dwattr $C$DW$71, DW_AT_external
    1220                            .dwattr $C$DW$71, DW_AT_decl_file("../MAIN.c")
    1221                            .dwattr $C$DW$71, DW_AT_decl_line(0x56)
    1222                            .dwattr $C$DW$71, DW_AT_decl_column(0x06)
    1223                            .dwendtag $C$DW$71
    1224                    
    1225                    
    1226                    $C$DW$72        .dwtag  DW_TAG_subprogram
    1227                            .dwattr $C$DW$72, DW_AT_name("EndCritical")
    1228                            .dwattr $C$DW$72, DW_AT_TI_symbol_name("EndCritical")
    1229                            .dwattr $C$DW$72, DW_AT_declaration
    1230                            .dwattr $C$DW$72, DW_AT_external
    1231                            .dwattr $C$DW$72, DW_AT_decl_file("../MAIN.c")
    1232                            .dwattr $C$DW$72, DW_AT_decl_line(0x55)
    1233                            .dwattr $C$DW$72, DW_AT_decl_column(0x06)
    1234                            .dwendtag $C$DW$72
    1235                    
    1236                    
    1237                    $C$DW$73        .dwtag  DW_TAG_subprogram
    1238                            .dwattr $C$DW$73, DW_AT_name("UART_InChar")
    1239                            .dwattr $C$DW$73, DW_AT_TI_symbol_name("UART_InChar")
    1240                            .dwattr $C$DW$73, DW_AT_type(*$C$DW$T$6)
    1241                            .dwattr $C$DW$73, DW_AT_declaration
    1242                            .dwattr $C$DW$73, DW_AT_external
    1243                            .dwattr $C$DW$73, DW_AT_decl_file("..\UART.h")
    1244                            .dwattr $C$DW$73, DW_AT_decl_line(0x30)
    1245                            .dwattr $C$DW$73, DW_AT_decl_column(0x06)
    1246                            .dwendtag $C$DW$73
    1247                    
    1248 000000f8                   .data
    1249                            .align  1
    1250                            .elfsym current_digit$1,SYM_SIZE(1)
    1251 000000f8           current_digit$1:
    1252 000000f8 00000000          .bits           0,8
    1253                                            ; current_digit$1 @ 0
    1254                    
    1255                    ;       C:\ti\ccs1230\ccs\tools\compiler\ti-cgt-arm_20.2.7.LTS\bin\armacpia.exe -@C:\\Users\\dimit\\Ap
    1256 00000000                   .sect   ".text:__isfinite"
    1257                            .clink
    1258                            .thumbfunc __isfinite
    1259 00000000                   .thumb
    1260                            .global __isfinite
    1261                    
    1262                    $C$DW$74        .dwtag  DW_TAG_subprogram
    1263                            .dwattr $C$DW$74, DW_AT_name("__isfinite")
    1264                            .dwattr $C$DW$74, DW_AT_low_pc(__isfinite)
    1265                            .dwattr $C$DW$74, DW_AT_high_pc(0x00)
TI ARM Assembler PC v20.2.7 Wed Feb 19 20:53:45 2025

Copyright (c) 1996-2018 Texas Instruments Incorporated
MAIN.asm                                                             PAGE   24

    1266                            .dwattr $C$DW$74, DW_AT_TI_symbol_name("__isfinite")
    1267                            .dwattr $C$DW$74, DW_AT_external
    1268                            .dwattr $C$DW$74, DW_AT_type(*$C$DW$T$10)
    1269                            .dwattr $C$DW$74, DW_AT_TI_begin_file("C:/ti/ccs1230/ccs/tools/compiler/ti-cgt-arm_20.2.7.LTS/
    1270                            .dwattr $C$DW$74, DW_AT_TI_begin_line(0x14e)
    1271                            .dwattr $C$DW$74, DW_AT_TI_begin_column(0x25)
    1272                            .dwattr $C$DW$74, DW_AT_decl_file("C:/ti/ccs1230/ccs/tools/compiler/ti-cgt-arm_20.2.7.LTS/incl
    1273                            .dwattr $C$DW$74, DW_AT_decl_line(0x14e)
    1274                            .dwattr $C$DW$74, DW_AT_decl_column(0x25)
    1275                            .dwattr $C$DW$74, DW_AT_TI_max_frame_size(0x10)
    1276                            .dwpsn  file "C:/ti/ccs1230/ccs/tools/compiler/ti-cgt-arm_20.2.7.LTS/include/_defs.h",line 335
    1277                    
    1278                            .dwfde $C$DW$CIE, __isfinite
    1279                    $C$DW$75        .dwtag  DW_TAG_formal_parameter
    1280                            .dwattr $C$DW$75, DW_AT_name("d")
    1281                            .dwattr $C$DW$75, DW_AT_TI_symbol_name("d")
    1282                            .dwattr $C$DW$75, DW_AT_type(*$C$DW$T$17)
    1283                            .dwattr $C$DW$75, DW_AT_location[DW_OP_regx 0x40]
    1284                    
    1285                    ;----------------------------------------------------------------------
    1286                    ; 334 | _CODE_ACCESS _INLINE_DEFINITION int __isfinite(double d)               
    1287                    ;----------------------------------------------------------------------
    1288                    
    1289                    ;*****************************************************************************
    1290                    ;* FUNCTION NAME: __isfinite                                                 *
    1291                    ;*                                                                           *
    1292                    ;*   Regs Modified     : A1,A2,A3,A4,V4,SP,SR                                *
    1293                    ;*   Regs Used         : A1,A2,A3,A4,V4,SP,LR,SR,D0,D0_hi                    *
    1294                    ;*   Local Frame Size  : 0 Args + 8 Auto + 8 Save = 16 byte                  *
    1295                    ;*****************************************************************************
    1296 00000000           __isfinite:
    1297                    ;* --------------------------------------------------------------------------*
    1298                            .dwcfi  cfa_offset, 0
    1299 00000000 B58C              PUSH      {A3, A4, V4, LR}      ; [DPU_V7M3_PIPE]  ; [ORIG 16-BIT INS]
    1300                            .dwcfi  cfa_offset, 16
    1301                            .dwcfi  save_reg_to_mem, 14, -4
    1302                            .dwcfi  save_reg_to_mem, 7, -8
    1303                            .dwcfi  save_reg_to_mem, 3, -12
    1304                            .dwcfi  save_reg_to_mem, 2, -16
    1305                    $C$DW$76        .dwtag  DW_TAG_variable
    1306                            .dwattr $C$DW$76, DW_AT_name("d")
    1307                            .dwattr $C$DW$76, DW_AT_TI_symbol_name("d")
    1308                            .dwattr $C$DW$76, DW_AT_type(*$C$DW$T$17)
    1309                            .dwattr $C$DW$76, DW_AT_location[DW_OP_breg13 0]
    1310                    
    1311                    ;----------------------------------------------------------------------
    1312                    ; 335 | { return __DOUBLE_BIASED_EXP_IS_MAX(d) == 0; }                         
    1313                    ;----------------------------------------------------------------------
    1314 00000002 0B10EC51          VMOV      A1,A2, D0             ; [DPU_MERLIN_PIPE] |335|  ; [KEEP 32-BIT INS]
    1315 00000006 0003E88D          STMIA     SP, {A1,A2}           ; [DPU_V7M3_PIPE] |335|  ; [KEEP 32-BIT INS]
    1316                            .dwpsn  file "C:/ti/ccs1230/ccs/tools/compiler/ti-cgt-arm_20.2.7.LTS/include/_defs.h",line 335
    1317 0000000a 0006E89D          LDMIA     SP, {A2,A3}           ; [DPU_V7M3_PIPE] |335|  ; [KEEP 32-BIT INS]
    1318 0000000e 2700              MOVS      V4, #0                ; [DPU_V7M3_PIPE] |335|  ; [ORIG 16-BIT INS]
    1319 00000010 2000              MOVS      A1, #0                ; [DPU_V7M3_PIPE] |335|  ; [ORIG 16-BIT INS]
    1320 00000012 4611              MOV       A2, A3                ; [DPU_V7M3_PIPE] |335|  ; [ORIG 16-BIT INS]
TI ARM Assembler PC v20.2.7 Wed Feb 19 20:53:45 2025

Copyright (c) 1996-2018 Texas Instruments Incorporated
MAIN.asm                                                             PAGE   25

    1321 00000014 000A              LSLS      A3, A2, #0            ; [DPU_V7M3_PIPE] |335|  ; [ORIG 16-BIT INS]
    1322 00000016 2100              MOVS      A2, #0                ; [DPU_V7M3_PIPE] |335|  ; [ORIG 16-BIT INS]
    1323 00000018 4311              ORRS      A2, A2, A3            ; [DPU_V7M3_PIPE] |335|  ; [ORIG 16-BIT INS]
    1324 0000001a 0C0A              LSRS      A3, A2, #16           ; [DPU_V7M3_PIPE] |335|  ; [ORIG 16-BIT INS]
    1325 0000001c 71F0F647          MOV       A2, #32752            ; [DPU_V7M3_PIPE] |335|  ; [KEEP 32-BIT INS]
    1326 00000020 4011              ANDS      A2, A2, A3            ; [DPU_V7M3_PIPE] |335|  ; [ORIG 16-BIT INS]
    1327 00000022 72F0F647          MOV       A3, #32752            ; [DPU_V7M3_PIPE] |335|  ; [KEEP 32-BIT INS]
    1328 00000026 428A              CMP       A3, A2                ; [DPU_V7M3_PIPE] |335|  ; [ORIG 16-BIT INS]
    1329 00000028 D100              BNE       ||$C$L1||             ; [DPU_V7M3_PIPE] |335|  ; [ORIG 16-BIT INS]
    1330                            ; BRANCHCC OCCURS {||$C$L1||}    ; [] |335| 
    1331                    ;* --------------------------------------------------------------------------*
    1332 0000002a 2701              MOVS      V4, #1                ; [DPU_V7M3_PIPE] |335|  ; [ORIG 16-BIT INS]
    1333                    ;* --------------------------------------------------------------------------*
    1334 0000002c           ||$C$L1||:    
    1335 0000002c B907              CBNZ      V4, ||$C$L2||         ; []  ; [ORIG 16-BIT INS]
    1336                            ; BRANCHCC OCCURS {||$C$L2||}    ; [] |335| 
    1337                    ;* --------------------------------------------------------------------------*
    1338 0000002e 2001              MOVS      A1, #1                ; [DPU_V7M3_PIPE] |335|  ; [ORIG 16-BIT INS]
    1339                    ;* --------------------------------------------------------------------------*
    1340 00000030           ||$C$L2||:    
    1341                            .dwpsn  file "C:/ti/ccs1230/ccs/tools/compiler/ti-cgt-arm_20.2.7.LTS/include/_defs.h",line 335
    1342                    $C$DW$77        .dwtag  DW_TAG_TI_branch
    1343                            .dwattr $C$DW$77, DW_AT_low_pc(0x00)
    1344                            .dwattr $C$DW$77, DW_AT_TI_return
    1345                    
    1346 00000030 BD8C              POP       {A3, A4, V4, PC}      ; [DPU_V7M3_PIPE]  ; [ORIG 16-BIT INS]
    1347                            .dwcfi  cfa_offset, 0
    1348                            .dwcfi  restore_reg, 7
    1349                            .dwcfi  restore_reg, 3
    1350                            .dwcfi  restore_reg, 2
    1351                            ; BRANCH OCCURS                  ; [] 
    1352                            .dwattr $C$DW$74, DW_AT_TI_end_file("C:/ti/ccs1230/ccs/tools/compiler/ti-cgt-arm_20.2.7.LTS/in
    1353                            .dwattr $C$DW$74, DW_AT_TI_end_line(0x14f)
    1354                            .dwattr $C$DW$74, DW_AT_TI_end_column(0x2e)
    1355                            .dwendentry
    1356                            .dwendtag $C$DW$74
    1357                    
    1358 00000000                   .sect   ".text:__isfinitef"
    1359                            .clink
    1360                            .thumbfunc __isfinitef
    1361 00000000                   .thumb
    1362                            .global __isfinitef
    1363                    
    1364                    $C$DW$78        .dwtag  DW_TAG_subprogram
    1365                            .dwattr $C$DW$78, DW_AT_name("__isfinitef")
    1366                            .dwattr $C$DW$78, DW_AT_low_pc(__isfinitef)
    1367                            .dwattr $C$DW$78, DW_AT_high_pc(0x00)
    1368                            .dwattr $C$DW$78, DW_AT_TI_symbol_name("__isfinitef")
    1369                            .dwattr $C$DW$78, DW_AT_external
    1370                            .dwattr $C$DW$78, DW_AT_type(*$C$DW$T$10)
    1371                            .dwattr $C$DW$78, DW_AT_TI_begin_file("C:/ti/ccs1230/ccs/tools/compiler/ti-cgt-arm_20.2.7.LTS/
    1372                            .dwattr $C$DW$78, DW_AT_TI_begin_line(0x150)
    1373                            .dwattr $C$DW$78, DW_AT_TI_begin_column(0x25)
    1374                            .dwattr $C$DW$78, DW_AT_decl_file("C:/ti/ccs1230/ccs/tools/compiler/ti-cgt-arm_20.2.7.LTS/incl
    1375                            .dwattr $C$DW$78, DW_AT_decl_line(0x150)
TI ARM Assembler PC v20.2.7 Wed Feb 19 20:53:45 2025

Copyright (c) 1996-2018 Texas Instruments Incorporated
MAIN.asm                                                             PAGE   26

    1376                            .dwattr $C$DW$78, DW_AT_decl_column(0x25)
    1377                            .dwattr $C$DW$78, DW_AT_TI_max_frame_size(0x08)
    1378                            .dwpsn  file "C:/ti/ccs1230/ccs/tools/compiler/ti-cgt-arm_20.2.7.LTS/include/_defs.h",line 337
    1379                    
    1380                            .dwfde $C$DW$CIE, __isfinitef
    1381                    $C$DW$79        .dwtag  DW_TAG_formal_parameter
    1382                            .dwattr $C$DW$79, DW_AT_name("f")
    1383                            .dwattr $C$DW$79, DW_AT_TI_symbol_name("f")
    1384                            .dwattr $C$DW$79, DW_AT_type(*$C$DW$T$16)
    1385                            .dwattr $C$DW$79, DW_AT_location[DW_OP_regx 0x40]
    1386                    
    1387                    ;----------------------------------------------------------------------
    1388                    ; 336 | _CODE_ACCESS _INLINE_DEFINITION int __isfinitef(float f)               
    1389                    ;----------------------------------------------------------------------
    1390                    
    1391                    ;*****************************************************************************
    1392                    ;* FUNCTION NAME: __isfinitef                                                *
    1393                    ;*                                                                           *
    1394                    ;*   Regs Modified     : A1,A2,A3,SP,SR                                      *
    1395                    ;*   Regs Used         : A1,A2,A3,SP,LR,SR,D0                                *
    1396                    ;*   Local Frame Size  : 0 Args + 4 Auto + 0 Save = 4 byte                   *
    1397                    ;*****************************************************************************
    1398 00000000           __isfinitef:
    1399                    ;* --------------------------------------------------------------------------*
    1400                            .dwcfi  cfa_offset, 0
    1401 00000000 0D08F1AD          SUB       SP, SP, #8            ; [DPU_V7M3_PIPE]  ; [KEEP 32-BIT INS]
    1402                            .dwcfi  cfa_offset, 8
    1403                    $C$DW$80        .dwtag  DW_TAG_variable
    1404                            .dwattr $C$DW$80, DW_AT_name("f")
    1405                            .dwattr $C$DW$80, DW_AT_TI_symbol_name("f")
    1406                            .dwattr $C$DW$80, DW_AT_type(*$C$DW$T$16)
    1407                            .dwattr $C$DW$80, DW_AT_location[DW_OP_breg13 0]
    1408                    
    1409                    ;----------------------------------------------------------------------
    1410                    ; 337 | { return __FLOAT_BIASED_EXP_IS_MAX(f) == 0; }                          
    1411                    ;----------------------------------------------------------------------
    1412 00000004 0A00ED8D          VSTR.32   S0, [SP, #0]          ; [DPU_MERLIN_PIPE] |337|  ; [KEEP 32-BIT INS]
    1413                            .dwpsn  file "C:/ti/ccs1230/ccs/tools/compiler/ti-cgt-arm_20.2.7.LTS/include/_defs.h",line 337
    1414 00000008 9800              LDR       A1, [SP, #0]          ; [DPU_V7M3_PIPE] |337|  ; [ORIG 16-BIT INS]
    1415 0000000a 2100              MOVS      A2, #0                ; [DPU_V7M3_PIPE] |337|  ; [ORIG 16-BIT INS]
    1416 0000000c 0C00              LSRS      A1, A1, #16           ; [DPU_V7M3_PIPE] |337|  ; [ORIG 16-BIT INS]
    1417 0000000e 42FFF400          AND       A3, A1, #32640        ; [DPU_V7M3_PIPE] |337|  ; [KEEP 32-BIT INS]
    1418 00000012 4FFFF5B2          CMP       A3, #32640            ; [DPU_V7M3_PIPE] |337|  ; [KEEP 32-BIT INS]
    1419 00000016 0000F04F          MOV       A1, #0                ; [DPU_V7M3_PIPE] |337|  ; [KEEP 32-BIT INS]
    1420 0000001a D100              BNE       ||$C$L3||             ; [DPU_V7M3_PIPE] |337|  ; [ORIG 16-BIT INS]
    1421                            ; BRANCHCC OCCURS {||$C$L3||}    ; [] |337| 
    1422                    ;* --------------------------------------------------------------------------*
    1423 0000001c 2101              MOVS      A2, #1                ; [DPU_V7M3_PIPE] |337|  ; [ORIG 16-BIT INS]
    1424                    ;* --------------------------------------------------------------------------*
    1425 0000001e           ||$C$L3||:    
    1426 0000001e B901              CBNZ      A2, ||$C$L4||         ; []  ; [ORIG 16-BIT INS]
    1427                            ; BRANCHCC OCCURS {||$C$L4||}    ; [] |337| 
    1428                    ;* --------------------------------------------------------------------------*
    1429 00000020 2001              MOVS      A1, #1                ; [DPU_V7M3_PIPE] |337|  ; [ORIG 16-BIT INS]
    1430                    ;* --------------------------------------------------------------------------*
TI ARM Assembler PC v20.2.7 Wed Feb 19 20:53:45 2025

Copyright (c) 1996-2018 Texas Instruments Incorporated
MAIN.asm                                                             PAGE   27

    1431 00000022           ||$C$L4||:    
    1432                            .dwpsn  file "C:/ti/ccs1230/ccs/tools/compiler/ti-cgt-arm_20.2.7.LTS/include/_defs.h",line 337
    1433 00000022 B002              ADD       SP, SP, #8            ; [DPU_V7M3_PIPE]  ; [ORIG 16-BIT INS]
    1434                            .dwcfi  cfa_offset, 0
    1435                    $C$DW$81        .dwtag  DW_TAG_TI_branch
    1436                            .dwattr $C$DW$81, DW_AT_low_pc(0x00)
    1437                            .dwattr $C$DW$81, DW_AT_TI_return
    1438                    
    1439 00000024 4770              BX        LR                    ; [DPU_V7M3_PIPE]  ; [ORIG 16-BIT INS]
    1440                            ; BRANCH OCCURS                  ; [] 
    1441                            .dwattr $C$DW$78, DW_AT_TI_end_file("C:/ti/ccs1230/ccs/tools/compiler/ti-cgt-arm_20.2.7.LTS/in
    1442                            .dwattr $C$DW$78, DW_AT_TI_end_line(0x151)
    1443                            .dwattr $C$DW$78, DW_AT_TI_end_column(0x2d)
    1444                            .dwendentry
    1445                            .dwendtag $C$DW$78
    1446                    
    1447 00000000                   .sect   ".text:__isfinitel"
    1448                            .clink
    1449                            .thumbfunc __isfinitel
    1450 00000000                   .thumb
    1451                            .global __isfinitel
    1452                    
    1453                    $C$DW$82        .dwtag  DW_TAG_subprogram
    1454                            .dwattr $C$DW$82, DW_AT_name("__isfinitel")
    1455                            .dwattr $C$DW$82, DW_AT_low_pc(__isfinitel)
    1456                            .dwattr $C$DW$82, DW_AT_high_pc(0x00)
    1457                            .dwattr $C$DW$82, DW_AT_TI_symbol_name("__isfinitel")
    1458                            .dwattr $C$DW$82, DW_AT_external
    1459                            .dwattr $C$DW$82, DW_AT_type(*$C$DW$T$10)
    1460                            .dwattr $C$DW$82, DW_AT_TI_begin_file("C:/ti/ccs1230/ccs/tools/compiler/ti-cgt-arm_20.2.7.LTS/
    1461                            .dwattr $C$DW$82, DW_AT_TI_begin_line(0x152)
    1462                            .dwattr $C$DW$82, DW_AT_TI_begin_column(0x25)
    1463                            .dwattr $C$DW$82, DW_AT_decl_file("C:/ti/ccs1230/ccs/tools/compiler/ti-cgt-arm_20.2.7.LTS/incl
    1464                            .dwattr $C$DW$82, DW_AT_decl_line(0x152)
    1465                            .dwattr $C$DW$82, DW_AT_decl_column(0x25)
    1466                            .dwattr $C$DW$82, DW_AT_TI_max_frame_size(0x10)
    1467                            .dwpsn  file "C:/ti/ccs1230/ccs/tools/compiler/ti-cgt-arm_20.2.7.LTS/include/_defs.h",line 339
    1468                    
    1469                            .dwfde $C$DW$CIE, __isfinitel
    1470                    $C$DW$83        .dwtag  DW_TAG_formal_parameter
    1471                            .dwattr $C$DW$83, DW_AT_name("e")
    1472                            .dwattr $C$DW$83, DW_AT_TI_symbol_name("e")
    1473                            .dwattr $C$DW$83, DW_AT_type(*$C$DW$T$18)
    1474                            .dwattr $C$DW$83, DW_AT_location[DW_OP_regx 0x40]
    1475                    
    1476                    ;----------------------------------------------------------------------
    1477                    ; 338 | _CODE_ACCESS _INLINE_DEFINITION int __isfinitel(long double e)         
    1478                    ;----------------------------------------------------------------------
    1479                    
    1480                    ;*****************************************************************************
    1481                    ;* FUNCTION NAME: __isfinitel                                                *
    1482                    ;*                                                                           *
    1483                    ;*   Regs Modified     : A1,A2,A3,A4,V4,SP,SR                                *
    1484                    ;*   Regs Used         : A1,A2,A3,A4,V4,SP,LR,SR,D0,D0_hi                    *
    1485                    ;*   Local Frame Size  : 0 Args + 8 Auto + 8 Save = 16 byte                  *
TI ARM Assembler PC v20.2.7 Wed Feb 19 20:53:45 2025

Copyright (c) 1996-2018 Texas Instruments Incorporated
MAIN.asm                                                             PAGE   28

    1486                    ;*****************************************************************************
    1487 00000000           __isfinitel:
    1488                    ;* --------------------------------------------------------------------------*
    1489                            .dwcfi  cfa_offset, 0
    1490 00000000 B58C              PUSH      {A3, A4, V4, LR}      ; [DPU_V7M3_PIPE]  ; [ORIG 16-BIT INS]
    1491                            .dwcfi  cfa_offset, 16
    1492                            .dwcfi  save_reg_to_mem, 14, -4
    1493                            .dwcfi  save_reg_to_mem, 7, -8
    1494                            .dwcfi  save_reg_to_mem, 3, -12
    1495                            .dwcfi  save_reg_to_mem, 2, -16
    1496                    $C$DW$84        .dwtag  DW_TAG_variable
    1497                            .dwattr $C$DW$84, DW_AT_name("e")
    1498                            .dwattr $C$DW$84, DW_AT_TI_symbol_name("e")
    1499                            .dwattr $C$DW$84, DW_AT_type(*$C$DW$T$18)
    1500                            .dwattr $C$DW$84, DW_AT_location[DW_OP_breg13 0]
    1501                    
    1502                    ;----------------------------------------------------------------------
    1503                    ; 339 | { return __LDOUBLE_BIASED_EXP_IS_MAX(e) == 0; }                        
    1504                    ;----------------------------------------------------------------------
    1505 00000002 0B10EC51          VMOV      A1,A2, D0             ; [DPU_MERLIN_PIPE] |339|  ; [KEEP 32-BIT INS]
    1506 00000006 0003E88D          STMIA     SP, {A1,A2}           ; [DPU_V7M3_PIPE] |339|  ; [KEEP 32-BIT INS]
    1507                            .dwpsn  file "C:/ti/ccs1230/ccs/tools/compiler/ti-cgt-arm_20.2.7.LTS/include/_defs.h",line 339
    1508 0000000a 0006E89D          LDMIA     SP, {A2,A3}           ; [DPU_V7M3_PIPE] |339|  ; [KEEP 32-BIT INS]
    1509 0000000e 2700              MOVS      V4, #0                ; [DPU_V7M3_PIPE] |339|  ; [ORIG 16-BIT INS]
    1510 00000010 2000              MOVS      A1, #0                ; [DPU_V7M3_PIPE] |339|  ; [ORIG 16-BIT INS]
    1511 00000012 4611              MOV       A2, A3                ; [DPU_V7M3_PIPE] |339|  ; [ORIG 16-BIT INS]
    1512 00000014 000A              LSLS      A3, A2, #0            ; [DPU_V7M3_PIPE] |339|  ; [ORIG 16-BIT INS]
    1513 00000016 2100              MOVS      A2, #0                ; [DPU_V7M3_PIPE] |339|  ; [ORIG 16-BIT INS]
    1514 00000018 4311              ORRS      A2, A2, A3            ; [DPU_V7M3_PIPE] |339|  ; [ORIG 16-BIT INS]
    1515 0000001a 0C0A              LSRS      A3, A2, #16           ; [DPU_V7M3_PIPE] |339|  ; [ORIG 16-BIT INS]
    1516 0000001c 71F0F647          MOV       A2, #32752            ; [DPU_V7M3_PIPE] |339|  ; [KEEP 32-BIT INS]
    1517 00000020 4011              ANDS      A2, A2, A3            ; [DPU_V7M3_PIPE] |339|  ; [ORIG 16-BIT INS]
    1518 00000022 72F0F647          MOV       A3, #32752            ; [DPU_V7M3_PIPE] |339|  ; [KEEP 32-BIT INS]
    1519 00000026 428A              CMP       A3, A2                ; [DPU_V7M3_PIPE] |339|  ; [ORIG 16-BIT INS]
    1520 00000028 D100              BNE       ||$C$L5||             ; [DPU_V7M3_PIPE] |339|  ; [ORIG 16-BIT INS]
    1521                            ; BRANCHCC OCCURS {||$C$L5||}    ; [] |339| 
    1522                    ;* --------------------------------------------------------------------------*
    1523 0000002a 2701              MOVS      V4, #1                ; [DPU_V7M3_PIPE] |339|  ; [ORIG 16-BIT INS]
    1524                    ;* --------------------------------------------------------------------------*
    1525 0000002c           ||$C$L5||:    
    1526 0000002c B907              CBNZ      V4, ||$C$L6||         ; []  ; [ORIG 16-BIT INS]
    1527                            ; BRANCHCC OCCURS {||$C$L6||}    ; [] |339| 
    1528                    ;* --------------------------------------------------------------------------*
    1529 0000002e 2001              MOVS      A1, #1                ; [DPU_V7M3_PIPE] |339|  ; [ORIG 16-BIT INS]
    1530                    ;* --------------------------------------------------------------------------*
    1531 00000030           ||$C$L6||:    
    1532                            .dwpsn  file "C:/ti/ccs1230/ccs/tools/compiler/ti-cgt-arm_20.2.7.LTS/include/_defs.h",line 339
    1533                    $C$DW$85        .dwtag  DW_TAG_TI_branch
    1534                            .dwattr $C$DW$85, DW_AT_low_pc(0x00)
    1535                            .dwattr $C$DW$85, DW_AT_TI_return
    1536                    
    1537 00000030 BD8C              POP       {A3, A4, V4, PC}      ; [DPU_V7M3_PIPE]  ; [ORIG 16-BIT INS]
    1538                            .dwcfi  cfa_offset, 0
    1539                            .dwcfi  restore_reg, 7
    1540                            .dwcfi  restore_reg, 3
TI ARM Assembler PC v20.2.7 Wed Feb 19 20:53:45 2025

Copyright (c) 1996-2018 Texas Instruments Incorporated
MAIN.asm                                                             PAGE   29

    1541                            .dwcfi  restore_reg, 2
    1542                            ; BRANCH OCCURS                  ; [] 
    1543                            .dwattr $C$DW$82, DW_AT_TI_end_file("C:/ti/ccs1230/ccs/tools/compiler/ti-cgt-arm_20.2.7.LTS/in
    1544                            .dwattr $C$DW$82, DW_AT_TI_end_line(0x153)
    1545                            .dwattr $C$DW$82, DW_AT_TI_end_column(0x2f)
    1546                            .dwendentry
    1547                            .dwendtag $C$DW$82
    1548                    
    1549 00000000                   .sect   ".text:__isnan"
    1550                            .clink
    1551                            .thumbfunc __isnan
    1552 00000000                   .thumb
    1553                            .global __isnan
    1554                    
    1555                    $C$DW$86        .dwtag  DW_TAG_subprogram
    1556                            .dwattr $C$DW$86, DW_AT_name("__isnan")
    1557                            .dwattr $C$DW$86, DW_AT_low_pc(__isnan)
    1558                            .dwattr $C$DW$86, DW_AT_high_pc(0x00)
    1559                            .dwattr $C$DW$86, DW_AT_TI_symbol_name("__isnan")
    1560                            .dwattr $C$DW$86, DW_AT_external
    1561                            .dwattr $C$DW$86, DW_AT_type(*$C$DW$T$10)
    1562                            .dwattr $C$DW$86, DW_AT_TI_begin_file("C:/ti/ccs1230/ccs/tools/compiler/ti-cgt-arm_20.2.7.LTS/
    1563                            .dwattr $C$DW$86, DW_AT_TI_begin_line(0x155)
    1564                            .dwattr $C$DW$86, DW_AT_TI_begin_column(0x25)
    1565                            .dwattr $C$DW$86, DW_AT_decl_file("C:/ti/ccs1230/ccs/tools/compiler/ti-cgt-arm_20.2.7.LTS/incl
    1566                            .dwattr $C$DW$86, DW_AT_decl_line(0x155)
    1567                            .dwattr $C$DW$86, DW_AT_decl_column(0x25)
    1568                            .dwattr $C$DW$86, DW_AT_TI_max_frame_size(0x20)
    1569                            .dwpsn  file "C:/ti/ccs1230/ccs/tools/compiler/ti-cgt-arm_20.2.7.LTS/include/_defs.h",line 342
    1570                    
    1571                            .dwfde $C$DW$CIE, __isnan
    1572                    $C$DW$87        .dwtag  DW_TAG_formal_parameter
    1573                            .dwattr $C$DW$87, DW_AT_name("d")
    1574                            .dwattr $C$DW$87, DW_AT_TI_symbol_name("d")
    1575                            .dwattr $C$DW$87, DW_AT_type(*$C$DW$T$17)
    1576                            .dwattr $C$DW$87, DW_AT_location[DW_OP_regx 0x40]
    1577                    
    1578                    ;----------------------------------------------------------------------
    1579                    ; 341 | _CODE_ACCESS _INLINE_DEFINITION int __isnan(double d)                  
    1580                    ;----------------------------------------------------------------------
    1581                    
    1582                    ;*****************************************************************************
    1583                    ;* FUNCTION NAME: __isnan                                                    *
    1584                    ;*                                                                           *
    1585                    ;*   Regs Modified     : A1,A2,A3,A4,V1,V2,V3,V4,SP,SR                       *
    1586                    ;*   Regs Used         : A1,A2,A3,A4,V1,V2,V3,V4,SP,LR,SR,D0,D0_hi           *
    1587                    ;*   Local Frame Size  : 0 Args + 8 Auto + 20 Save = 28 byte                 *
    1588                    ;*****************************************************************************
    1589 00000000           __isnan:
    1590                    ;* --------------------------------------------------------------------------*
    1591                            .dwcfi  cfa_offset, 0
    1592 00000000 B5FE              PUSH      {A2, A3, A4, V1, V2, V3, V4, LR} ; [DPU_V7M3_PIPE]  ; [ORIG 16-BIT INS]
    1593                            .dwcfi  cfa_offset, 32
    1594                            .dwcfi  save_reg_to_mem, 14, -4
    1595                            .dwcfi  save_reg_to_mem, 7, -8
TI ARM Assembler PC v20.2.7 Wed Feb 19 20:53:45 2025

Copyright (c) 1996-2018 Texas Instruments Incorporated
MAIN.asm                                                             PAGE   30

    1596                            .dwcfi  save_reg_to_mem, 6, -12
    1597                            .dwcfi  save_reg_to_mem, 5, -16
    1598                            .dwcfi  save_reg_to_mem, 4, -20
    1599                            .dwcfi  save_reg_to_mem, 3, -24
    1600                            .dwcfi  save_reg_to_mem, 2, -28
    1601                            .dwcfi  save_reg_to_mem, 1, -32
    1602                    $C$DW$88        .dwtag  DW_TAG_variable
    1603                            .dwattr $C$DW$88, DW_AT_name("d")
    1604                            .dwattr $C$DW$88, DW_AT_TI_symbol_name("d")
    1605                            .dwattr $C$DW$88, DW_AT_type(*$C$DW$T$17)
    1606                            .dwattr $C$DW$88, DW_AT_location[DW_OP_breg13 0]
    1607                    
    1608                    ;----------------------------------------------------------------------
    1609                    ; 342 | { return __DOUBLE_BIASED_EXP_IS_MAX(d) &&                              
    1610                    ;----------------------------------------------------------------------
    1611 00000002 0B10EC51          VMOV      A1,A2, D0             ; [DPU_MERLIN_PIPE] |342|  ; [KEEP 32-BIT INS]
    1612 00000006 0003E88D          STMIA     SP, {A1,A2}           ; [DPU_V7M3_PIPE] |342|  ; [KEEP 32-BIT INS]
    1613                            .dwpsn  file "C:/ti/ccs1230/ccs/tools/compiler/ti-cgt-arm_20.2.7.LTS/include/_defs.h",line 342
    1614 0000000a 0006E89D          LDMIA     SP, {A2,A3}           ; [DPU_V7M3_PIPE] |342|  ; [KEEP 32-BIT INS]
    1615 0000000e 2000              MOVS      A1, #0                ; [DPU_V7M3_PIPE] |342|  ; [ORIG 16-BIT INS]
    1616 00000010 4611              MOV       A2, A3                ; [DPU_V7M3_PIPE] |342|  ; [ORIG 16-BIT INS]
    1617 00000012 000A              LSLS      A3, A2, #0            ; [DPU_V7M3_PIPE] |342|  ; [ORIG 16-BIT INS]
    1618 00000014 2100              MOVS      A2, #0                ; [DPU_V7M3_PIPE] |342|  ; [ORIG 16-BIT INS]
    1619 00000016 4311              ORRS      A2, A2, A3            ; [DPU_V7M3_PIPE] |342|  ; [ORIG 16-BIT INS]
    1620 00000018 0C0A              LSRS      A3, A2, #16           ; [DPU_V7M3_PIPE] |342|  ; [ORIG 16-BIT INS]
    1621 0000001a 71F0F647          MOV       A2, #32752            ; [DPU_V7M3_PIPE] |342|  ; [KEEP 32-BIT INS]
    1622 0000001e 4011              ANDS      A2, A2, A3            ; [DPU_V7M3_PIPE] |342|  ; [ORIG 16-BIT INS]
    1623 00000020 72F0F647          MOV       A3, #32752            ; [DPU_V7M3_PIPE] |342|  ; [KEEP 32-BIT INS]
    1624 00000024 428A              CMP       A3, A2                ; [DPU_V7M3_PIPE] |342|  ; [ORIG 16-BIT INS]
    1625 00000026 D115              BNE       ||$C$L9||             ; [DPU_V7M3_PIPE] |342|  ; [ORIG 16-BIT INS]
    1626                            ; BRANCHCC OCCURS {||$C$L9||}    ; [] |342| 
    1627                    ;* --------------------------------------------------------------------------*
    1628 00000028 0006E89D          LDMIA     SP, {A2,A3}           ; [DPU_V7M3_PIPE] |342|  ; [KEEP 32-BIT INS]
    1629 0000002c 4E0A              LDR       V3, $C$CON1           ; [DPU_V7M3_PIPE] |342|  ; [ORIG 16-BIT INS]
    1630 0000002e 4611              MOV       A2, A3                ; [DPU_V7M3_PIPE] |342|  ; [ORIG 16-BIT INS]
    1631 00000030 000CE89D          LDMIA     SP, {A3,A4}           ; [DPU_V7M3_PIPE] |342|  ; [KEEP 32-BIT INS]
    1632 00000034 2500              MOVS      V2, #0                ; [DPU_V7M3_PIPE] |342|  ; [ORIG 16-BIT INS]
    1633 00000036 000C              LSLS      V1, A2, #0            ; [DPU_V7M3_PIPE] |342|  ; [ORIG 16-BIT INS]
    1634 00000038 2700              MOVS      V4, #0                ; [DPU_V7M3_PIPE] |342|  ; [ORIG 16-BIT INS]
    1635 0000003a 2100              MOVS      A2, #0                ; [DPU_V7M3_PIPE] |342|  ; [ORIG 16-BIT INS]
    1636 0000003c 33FFF04F          MOV       A4, #-1               ; [DPU_V7M3_PIPE] |342|  ; [KEEP 32-BIT INS]
    1637 00000040 432A              ORRS      A3, A3, V2            ; [DPU_V7M3_PIPE] |342|  ; [ORIG 16-BIT INS]
    1638 00000042 4321              ORRS      A2, A2, V1            ; [DPU_V7M3_PIPE] |342|  ; [ORIG 16-BIT INS]
    1639 00000044 4013              ANDS      A4, A4, A3            ; [DPU_V7M3_PIPE] |342|  ; [ORIG 16-BIT INS]
    1640 00000046 400E              ANDS      V3, V3, A2            ; [DPU_V7M3_PIPE] |342|  ; [ORIG 16-BIT INS]
    1641 00000048 D100              BNE       ||$C$L7||             ; [DPU_V7M3_PIPE] |342|  ; [ORIG 16-BIT INS]
    1642                            ; BRANCHCC OCCURS {||$C$L7||}    ; [] |342| 
    1643                    ;* --------------------------------------------------------------------------*
    1644 0000004a 2B00              CMP       A4, #0                ; [DPU_V7M3_PIPE] |342|  ; [ORIG 16-BIT INS]
    1645                    ;* --------------------------------------------------------------------------*
    1646 0000004c           ||$C$L7||:    
    1647 0000004c D100              BNE       ||$C$L8||             ; [DPU_V7M3_PIPE] |342|  ; [ORIG 16-BIT INS]
    1648                            ; BRANCHCC OCCURS {||$C$L8||}    ; [] |342| 
    1649                    ;* --------------------------------------------------------------------------*
    1650 0000004e 2701              MOVS      V4, #1                ; [DPU_V7M3_PIPE] |342|  ; [ORIG 16-BIT INS]
TI ARM Assembler PC v20.2.7 Wed Feb 19 20:53:45 2025

Copyright (c) 1996-2018 Texas Instruments Incorporated
MAIN.asm                                                             PAGE   31

    1651                    ;* --------------------------------------------------------------------------*
    1652 00000050           ||$C$L8||:    
    1653 00000050 B907              CBNZ      V4, ||$C$L9||         ; []  ; [ORIG 16-BIT INS]
    1654                            ; BRANCHCC OCCURS {||$C$L9||}    ; [] |342| 
    1655                    ;* --------------------------------------------------------------------------*
    1656 00000052 2001              MOVS      A1, #1                ; [DPU_V7M3_PIPE] |342|  ; [ORIG 16-BIT INS]
    1657                    ;* --------------------------------------------------------------------------*
    1658 00000054           ||$C$L9||:    
    1659                            .dwpsn  file "C:/ti/ccs1230/ccs/tools/compiler/ti-cgt-arm_20.2.7.LTS/include/_defs.h",line 343
    1660                    ;----------------------------------------------------------------------
    1661                    ; 343 | (__DOUBLE_FRAC_PART_IS_ZERO(d) == 0); }                                
    1662                    ;----------------------------------------------------------------------
    1663                    $C$DW$89        .dwtag  DW_TAG_TI_branch
    1664                            .dwattr $C$DW$89, DW_AT_low_pc(0x00)
    1665                            .dwattr $C$DW$89, DW_AT_TI_return
    1666                    
    1667 00000054 BDFE              POP       {A2, A3, A4, V1, V2, V3, V4, PC} ; [DPU_V7M3_PIPE]  ; [ORIG 16-BIT INS]
    1668                            .dwcfi  cfa_offset, 0
    1669                            .dwcfi  restore_reg, 7
    1670                            .dwcfi  restore_reg, 6
    1671                            .dwcfi  restore_reg, 5
    1672                            .dwcfi  restore_reg, 4
    1673                            .dwcfi  restore_reg, 3
    1674                            .dwcfi  restore_reg, 2
    1675                            .dwcfi  restore_reg, 1
    1676                            ; BRANCH OCCURS                  ; [] 
    1677                            .dwattr $C$DW$86, DW_AT_TI_end_file("C:/ti/ccs1230/ccs/tools/compiler/ti-cgt-arm_20.2.7.LTS/in
    1678                            .dwattr $C$DW$86, DW_AT_TI_end_line(0x157)
    1679                            .dwattr $C$DW$86, DW_AT_TI_end_column(0x2f)
    1680                            .dwendentry
    1681                            .dwendtag $C$DW$86
    1682                    
    1683 00000000                   .sect   ".text:__isnanf"
    1684                            .clink
    1685                            .thumbfunc __isnanf
    1686 00000000                   .thumb
    1687                            .global __isnanf
    1688                    
    1689                    $C$DW$90        .dwtag  DW_TAG_subprogram
    1690                            .dwattr $C$DW$90, DW_AT_name("__isnanf")
    1691                            .dwattr $C$DW$90, DW_AT_low_pc(__isnanf)
    1692                            .dwattr $C$DW$90, DW_AT_high_pc(0x00)
    1693                            .dwattr $C$DW$90, DW_AT_TI_symbol_name("__isnanf")
    1694                            .dwattr $C$DW$90, DW_AT_external
    1695                            .dwattr $C$DW$90, DW_AT_type(*$C$DW$T$10)
    1696                            .dwattr $C$DW$90, DW_AT_TI_begin_file("C:/ti/ccs1230/ccs/tools/compiler/ti-cgt-arm_20.2.7.LTS/
    1697                            .dwattr $C$DW$90, DW_AT_TI_begin_line(0x158)
    1698                            .dwattr $C$DW$90, DW_AT_TI_begin_column(0x25)
    1699                            .dwattr $C$DW$90, DW_AT_decl_file("C:/ti/ccs1230/ccs/tools/compiler/ti-cgt-arm_20.2.7.LTS/incl
    1700                            .dwattr $C$DW$90, DW_AT_decl_line(0x158)
    1701                            .dwattr $C$DW$90, DW_AT_decl_column(0x25)
    1702                            .dwattr $C$DW$90, DW_AT_TI_max_frame_size(0x08)
    1703                            .dwpsn  file "C:/ti/ccs1230/ccs/tools/compiler/ti-cgt-arm_20.2.7.LTS/include/_defs.h",line 345
    1704                    
    1705                            .dwfde $C$DW$CIE, __isnanf
TI ARM Assembler PC v20.2.7 Wed Feb 19 20:53:45 2025

Copyright (c) 1996-2018 Texas Instruments Incorporated
MAIN.asm                                                             PAGE   32

    1706                    $C$DW$91        .dwtag  DW_TAG_formal_parameter
    1707                            .dwattr $C$DW$91, DW_AT_name("f")
    1708                            .dwattr $C$DW$91, DW_AT_TI_symbol_name("f")
    1709                            .dwattr $C$DW$91, DW_AT_type(*$C$DW$T$16)
    1710                            .dwattr $C$DW$91, DW_AT_location[DW_OP_regx 0x40]
    1711                    
    1712                    ;----------------------------------------------------------------------
    1713                    ; 344 | _CODE_ACCESS _INLINE_DEFINITION int __isnanf(float f)                  
    1714                    ;----------------------------------------------------------------------
    1715                    
    1716                    ;*****************************************************************************
    1717                    ;* FUNCTION NAME: __isnanf                                                   *
    1718                    ;*                                                                           *
    1719                    ;*   Regs Modified     : A1,A2,A3,SP,SR                                      *
    1720                    ;*   Regs Used         : A1,A2,A3,SP,LR,SR,D0                                *
    1721                    ;*   Local Frame Size  : 0 Args + 4 Auto + 0 Save = 4 byte                   *
    1722                    ;*****************************************************************************
    1723 00000000           __isnanf:
    1724                    ;* --------------------------------------------------------------------------*
    1725                            .dwcfi  cfa_offset, 0
    1726 00000000 0D08F1AD          SUB       SP, SP, #8            ; [DPU_V7M3_PIPE]  ; [KEEP 32-BIT INS]
    1727                            .dwcfi  cfa_offset, 8
    1728                    $C$DW$92        .dwtag  DW_TAG_variable
    1729                            .dwattr $C$DW$92, DW_AT_name("f")
    1730                            .dwattr $C$DW$92, DW_AT_TI_symbol_name("f")
    1731                            .dwattr $C$DW$92, DW_AT_type(*$C$DW$T$16)
    1732                            .dwattr $C$DW$92, DW_AT_location[DW_OP_breg13 0]
    1733                    
    1734                    ;----------------------------------------------------------------------
    1735                    ; 345 | { return __FLOAT_BIASED_EXP_IS_MAX(f) &&                               
    1736                    ;----------------------------------------------------------------------
    1737 00000004 0A00ED8D          VSTR.32   S0, [SP, #0]          ; [DPU_MERLIN_PIPE] |345|  ; [KEEP 32-BIT INS]
    1738                            .dwpsn  file "C:/ti/ccs1230/ccs/tools/compiler/ti-cgt-arm_20.2.7.LTS/include/_defs.h",line 345
    1739 00000008 9800              LDR       A1, [SP, #0]          ; [DPU_V7M3_PIPE] |345|  ; [ORIG 16-BIT INS]
    1740 0000000a 2200              MOVS      A3, #0                ; [DPU_V7M3_PIPE] |345|  ; [ORIG 16-BIT INS]
    1741 0000000c 0C00              LSRS      A1, A1, #16           ; [DPU_V7M3_PIPE] |345|  ; [ORIG 16-BIT INS]
    1742 0000000e 40FFF400          AND       A1, A1, #32640        ; [DPU_V7M3_PIPE] |345|  ; [KEEP 32-BIT INS]
    1743 00000012 4FFFF5B0          CMP       A1, #32640            ; [DPU_V7M3_PIPE] |345|  ; [KEEP 32-BIT INS]
    1744 00000016 D108              BNE       ||$C$L11||            ; [DPU_V7M3_PIPE] |345|  ; [ORIG 16-BIT INS]
    1745                            ; BRANCHCC OCCURS {||$C$L11||}   ; [] |345| 
    1746                    ;* --------------------------------------------------------------------------*
    1747 00000018 9800              LDR       A1, [SP, #0]          ; [DPU_V7M3_PIPE] |345|  ; [ORIG 16-BIT INS]
    1748 0000001a 4601              MOV       A2, A1                ; [DPU_V7M3_PIPE] |345|  ; [ORIG 16-BIT INS]
    1749 0000001c 51DFF36F          BFC       A2, #23, #9           ; [DPU_V7M3_PIPE] |345|  ; [KEEP 32-BIT INS]
    1750 00000020 2000              MOVS      A1, #0                ; [DPU_V7M3_PIPE] |345|  ; [ORIG 16-BIT INS]
    1751 00000022 B901              CBNZ      A2, ||$C$L10||        ; []  ; [ORIG 16-BIT INS]
    1752                            ; BRANCHCC OCCURS {||$C$L10||}   ; [] |345| 
    1753                    ;* --------------------------------------------------------------------------*
    1754 00000024 2001              MOVS      A1, #1                ; [DPU_V7M3_PIPE] |345|  ; [ORIG 16-BIT INS]
    1755                    ;* --------------------------------------------------------------------------*
    1756 00000026           ||$C$L10||:    
    1757 00000026 B900              CBNZ      A1, ||$C$L11||        ; []  ; [ORIG 16-BIT INS]
    1758                            ; BRANCHCC OCCURS {||$C$L11||}   ; [] |345| 
    1759                    ;* --------------------------------------------------------------------------*
    1760 00000028 2201              MOVS      A3, #1                ; [DPU_V7M3_PIPE] |345|  ; [ORIG 16-BIT INS]
TI ARM Assembler PC v20.2.7 Wed Feb 19 20:53:45 2025

Copyright (c) 1996-2018 Texas Instruments Incorporated
MAIN.asm                                                             PAGE   33

    1761                    ;* --------------------------------------------------------------------------*
    1762 0000002a           ||$C$L11||:    
    1763 0000002a 4610              MOV       A1, A3                ; [DPU_V7M3_PIPE] |345|  ; [ORIG 16-BIT INS]
    1764                            .dwpsn  file "C:/ti/ccs1230/ccs/tools/compiler/ti-cgt-arm_20.2.7.LTS/include/_defs.h",line 346
    1765                    ;----------------------------------------------------------------------
    1766                    ; 346 | (__FLOAT_FRAC_PART_IS_ZERO(f) == 0); }                                 
    1767                    ;----------------------------------------------------------------------
    1768 0000002c B002              ADD       SP, SP, #8            ; [DPU_V7M3_PIPE]  ; [ORIG 16-BIT INS]
    1769                            .dwcfi  cfa_offset, 0
    1770                    $C$DW$93        .dwtag  DW_TAG_TI_branch
    1771                            .dwattr $C$DW$93, DW_AT_low_pc(0x00)
    1772                            .dwattr $C$DW$93, DW_AT_TI_return
    1773                    
    1774 0000002e 4770              BX        LR                    ; [DPU_V7M3_PIPE]  ; [ORIG 16-BIT INS]
    1775                            ; BRANCH OCCURS                  ; [] 
    1776                            .dwattr $C$DW$90, DW_AT_TI_end_file("C:/ti/ccs1230/ccs/tools/compiler/ti-cgt-arm_20.2.7.LTS/in
    1777                            .dwattr $C$DW$90, DW_AT_TI_end_line(0x15a)
    1778                            .dwattr $C$DW$90, DW_AT_TI_end_column(0x2e)
    1779                            .dwendentry
    1780                            .dwendtag $C$DW$90
    1781                    
    1782 00000000                   .sect   ".text:__isnanl"
    1783                            .clink
    1784                            .thumbfunc __isnanl
    1785 00000000                   .thumb
    1786                            .global __isnanl
    1787                    
    1788                    $C$DW$94        .dwtag  DW_TAG_subprogram
    1789                            .dwattr $C$DW$94, DW_AT_name("__isnanl")
    1790                            .dwattr $C$DW$94, DW_AT_low_pc(__isnanl)
    1791                            .dwattr $C$DW$94, DW_AT_high_pc(0x00)
    1792                            .dwattr $C$DW$94, DW_AT_TI_symbol_name("__isnanl")
    1793                            .dwattr $C$DW$94, DW_AT_external
    1794                            .dwattr $C$DW$94, DW_AT_type(*$C$DW$T$10)
    1795                            .dwattr $C$DW$94, DW_AT_TI_begin_file("C:/ti/ccs1230/ccs/tools/compiler/ti-cgt-arm_20.2.7.LTS/
    1796                            .dwattr $C$DW$94, DW_AT_TI_begin_line(0x15b)
    1797                            .dwattr $C$DW$94, DW_AT_TI_begin_column(0x25)
    1798                            .dwattr $C$DW$94, DW_AT_decl_file("C:/ti/ccs1230/ccs/tools/compiler/ti-cgt-arm_20.2.7.LTS/incl
    1799                            .dwattr $C$DW$94, DW_AT_decl_line(0x15b)
    1800                            .dwattr $C$DW$94, DW_AT_decl_column(0x25)
    1801                            .dwattr $C$DW$94, DW_AT_TI_max_frame_size(0x20)
    1802                            .dwpsn  file "C:/ti/ccs1230/ccs/tools/compiler/ti-cgt-arm_20.2.7.LTS/include/_defs.h",line 348
    1803                    
    1804                            .dwfde $C$DW$CIE, __isnanl
    1805                    $C$DW$95        .dwtag  DW_TAG_formal_parameter
    1806                            .dwattr $C$DW$95, DW_AT_name("e")
    1807                            .dwattr $C$DW$95, DW_AT_TI_symbol_name("e")
    1808                            .dwattr $C$DW$95, DW_AT_type(*$C$DW$T$18)
    1809                            .dwattr $C$DW$95, DW_AT_location[DW_OP_regx 0x40]
    1810                    
    1811                    ;----------------------------------------------------------------------
    1812                    ; 347 | _CODE_ACCESS _INLINE_DEFINITION int __isnanl(long double e)            
    1813                    ;----------------------------------------------------------------------
    1814                    
    1815                    ;*****************************************************************************
TI ARM Assembler PC v20.2.7 Wed Feb 19 20:53:45 2025

Copyright (c) 1996-2018 Texas Instruments Incorporated
MAIN.asm                                                             PAGE   34

    1816                    ;* FUNCTION NAME: __isnanl                                                   *
    1817                    ;*                                                                           *
    1818                    ;*   Regs Modified     : A1,A2,A3,A4,V1,V2,V3,V4,SP,SR                       *
    1819                    ;*   Regs Used         : A1,A2,A3,A4,V1,V2,V3,V4,SP,LR,SR,D0,D0_hi           *
    1820                    ;*   Local Frame Size  : 0 Args + 8 Auto + 20 Save = 28 byte                 *
    1821                    ;*****************************************************************************
    1822 00000000           __isnanl:
    1823                    ;* --------------------------------------------------------------------------*
    1824                            .dwcfi  cfa_offset, 0
    1825 00000000 B5FE              PUSH      {A2, A3, A4, V1, V2, V3, V4, LR} ; [DPU_V7M3_PIPE]  ; [ORIG 16-BIT INS]
    1826                            .dwcfi  cfa_offset, 32
    1827                            .dwcfi  save_reg_to_mem, 14, -4
    1828                            .dwcfi  save_reg_to_mem, 7, -8
    1829                            .dwcfi  save_reg_to_mem, 6, -12
    1830                            .dwcfi  save_reg_to_mem, 5, -16
    1831                            .dwcfi  save_reg_to_mem, 4, -20
    1832                            .dwcfi  save_reg_to_mem, 3, -24
    1833                            .dwcfi  save_reg_to_mem, 2, -28
    1834                            .dwcfi  save_reg_to_mem, 1, -32
    1835                    $C$DW$96        .dwtag  DW_TAG_variable
    1836                            .dwattr $C$DW$96, DW_AT_name("e")
    1837                            .dwattr $C$DW$96, DW_AT_TI_symbol_name("e")
    1838                            .dwattr $C$DW$96, DW_AT_type(*$C$DW$T$18)
    1839                            .dwattr $C$DW$96, DW_AT_location[DW_OP_breg13 0]
    1840                    
    1841                    ;----------------------------------------------------------------------
    1842                    ; 348 | { return __LDOUBLE_BIASED_EXP_IS_MAX(e) &&                             
    1843                    ;----------------------------------------------------------------------
    1844 00000002 0B10EC51          VMOV      A1,A2, D0             ; [DPU_MERLIN_PIPE] |348|  ; [KEEP 32-BIT INS]
    1845 00000006 0003E88D          STMIA     SP, {A1,A2}           ; [DPU_V7M3_PIPE] |348|  ; [KEEP 32-BIT INS]
    1846                            .dwpsn  file "C:/ti/ccs1230/ccs/tools/compiler/ti-cgt-arm_20.2.7.LTS/include/_defs.h",line 348
    1847 0000000a 0006E89D          LDMIA     SP, {A2,A3}           ; [DPU_V7M3_PIPE] |348|  ; [KEEP 32-BIT INS]
    1848 0000000e 2000              MOVS      A1, #0                ; [DPU_V7M3_PIPE] |348|  ; [ORIG 16-BIT INS]
    1849 00000010 4611              MOV       A2, A3                ; [DPU_V7M3_PIPE] |348|  ; [ORIG 16-BIT INS]
    1850 00000012 000A              LSLS      A3, A2, #0            ; [DPU_V7M3_PIPE] |348|  ; [ORIG 16-BIT INS]
    1851 00000014 2100              MOVS      A2, #0                ; [DPU_V7M3_PIPE] |348|  ; [ORIG 16-BIT INS]
    1852 00000016 4311              ORRS      A2, A2, A3            ; [DPU_V7M3_PIPE] |348|  ; [ORIG 16-BIT INS]
    1853 00000018 0C0A              LSRS      A3, A2, #16           ; [DPU_V7M3_PIPE] |348|  ; [ORIG 16-BIT INS]
    1854 0000001a 71F0F647          MOV       A2, #32752            ; [DPU_V7M3_PIPE] |348|  ; [KEEP 32-BIT INS]
    1855 0000001e 4011              ANDS      A2, A2, A3            ; [DPU_V7M3_PIPE] |348|  ; [ORIG 16-BIT INS]
    1856 00000020 72F0F647          MOV       A3, #32752            ; [DPU_V7M3_PIPE] |348|  ; [KEEP 32-BIT INS]
    1857 00000024 428A              CMP       A3, A2                ; [DPU_V7M3_PIPE] |348|  ; [ORIG 16-BIT INS]
    1858 00000026 D115              BNE       ||$C$L14||            ; [DPU_V7M3_PIPE] |348|  ; [ORIG 16-BIT INS]
    1859                            ; BRANCHCC OCCURS {||$C$L14||}   ; [] |348| 
    1860                    ;* --------------------------------------------------------------------------*
    1861 00000028 0006E89D          LDMIA     SP, {A2,A3}           ; [DPU_V7M3_PIPE] |348|  ; [KEEP 32-BIT INS]
    1862 0000002c 4E0A              LDR       V3, $C$CON2           ; [DPU_V7M3_PIPE] |348|  ; [ORIG 16-BIT INS]
    1863 0000002e 4611              MOV       A2, A3                ; [DPU_V7M3_PIPE] |348|  ; [ORIG 16-BIT INS]
    1864 00000030 000CE89D          LDMIA     SP, {A3,A4}           ; [DPU_V7M3_PIPE] |348|  ; [KEEP 32-BIT INS]
    1865 00000034 2500              MOVS      V2, #0                ; [DPU_V7M3_PIPE] |348|  ; [ORIG 16-BIT INS]
    1866 00000036 000C              LSLS      V1, A2, #0            ; [DPU_V7M3_PIPE] |348|  ; [ORIG 16-BIT INS]
    1867 00000038 2700              MOVS      V4, #0                ; [DPU_V7M3_PIPE] |348|  ; [ORIG 16-BIT INS]
    1868 0000003a 2100              MOVS      A2, #0                ; [DPU_V7M3_PIPE] |348|  ; [ORIG 16-BIT INS]
    1869 0000003c 33FFF04F          MOV       A4, #-1               ; [DPU_V7M3_PIPE] |348|  ; [KEEP 32-BIT INS]
    1870 00000040 432A              ORRS      A3, A3, V2            ; [DPU_V7M3_PIPE] |348|  ; [ORIG 16-BIT INS]
TI ARM Assembler PC v20.2.7 Wed Feb 19 20:53:45 2025

Copyright (c) 1996-2018 Texas Instruments Incorporated
MAIN.asm                                                             PAGE   35

    1871 00000042 4321              ORRS      A2, A2, V1            ; [DPU_V7M3_PIPE] |348|  ; [ORIG 16-BIT INS]
    1872 00000044 4013              ANDS      A4, A4, A3            ; [DPU_V7M3_PIPE] |348|  ; [ORIG 16-BIT INS]
    1873 00000046 400E              ANDS      V3, V3, A2            ; [DPU_V7M3_PIPE] |348|  ; [ORIG 16-BIT INS]
    1874 00000048 D100              BNE       ||$C$L12||            ; [DPU_V7M3_PIPE] |348|  ; [ORIG 16-BIT INS]
    1875                            ; BRANCHCC OCCURS {||$C$L12||}   ; [] |348| 
    1876                    ;* --------------------------------------------------------------------------*
    1877 0000004a 2B00              CMP       A4, #0                ; [DPU_V7M3_PIPE] |348|  ; [ORIG 16-BIT INS]
    1878                    ;* --------------------------------------------------------------------------*
    1879 0000004c           ||$C$L12||:    
    1880 0000004c D100              BNE       ||$C$L13||            ; [DPU_V7M3_PIPE] |348|  ; [ORIG 16-BIT INS]
    1881                            ; BRANCHCC OCCURS {||$C$L13||}   ; [] |348| 
    1882                    ;* --------------------------------------------------------------------------*
    1883 0000004e 2701              MOVS      V4, #1                ; [DPU_V7M3_PIPE] |348|  ; [ORIG 16-BIT INS]
    1884                    ;* --------------------------------------------------------------------------*
    1885 00000050           ||$C$L13||:    
    1886 00000050 B907              CBNZ      V4, ||$C$L14||        ; []  ; [ORIG 16-BIT INS]
    1887                            ; BRANCHCC OCCURS {||$C$L14||}   ; [] |348| 
    1888                    ;* --------------------------------------------------------------------------*
    1889 00000052 2001              MOVS      A1, #1                ; [DPU_V7M3_PIPE] |348|  ; [ORIG 16-BIT INS]
    1890                    ;* --------------------------------------------------------------------------*
    1891 00000054           ||$C$L14||:    
    1892                            .dwpsn  file "C:/ti/ccs1230/ccs/tools/compiler/ti-cgt-arm_20.2.7.LTS/include/_defs.h",line 349
    1893                    ;----------------------------------------------------------------------
    1894                    ; 349 | (__LDOUBLE_FRAC_PART_IS_ZERO(e) == 0); }                               
    1895                    ;----------------------------------------------------------------------
    1896                    $C$DW$97        .dwtag  DW_TAG_TI_branch
    1897                            .dwattr $C$DW$97, DW_AT_low_pc(0x00)
    1898                            .dwattr $C$DW$97, DW_AT_TI_return
    1899                    
    1900 00000054 BDFE              POP       {A2, A3, A4, V1, V2, V3, V4, PC} ; [DPU_V7M3_PIPE]  ; [ORIG 16-BIT INS]
    1901                            .dwcfi  cfa_offset, 0
    1902                            .dwcfi  restore_reg, 7
    1903                            .dwcfi  restore_reg, 6
    1904                            .dwcfi  restore_reg, 5
    1905                            .dwcfi  restore_reg, 4
    1906                            .dwcfi  restore_reg, 3
    1907                            .dwcfi  restore_reg, 2
    1908                            .dwcfi  restore_reg, 1
    1909                            ; BRANCH OCCURS                  ; [] 
    1910                            .dwattr $C$DW$94, DW_AT_TI_end_file("C:/ti/ccs1230/ccs/tools/compiler/ti-cgt-arm_20.2.7.LTS/in
    1911                            .dwattr $C$DW$94, DW_AT_TI_end_line(0x15d)
    1912                            .dwattr $C$DW$94, DW_AT_TI_end_column(0x30)
    1913                            .dwendentry
    1914                            .dwendtag $C$DW$94
    1915                    
    1916 00000000                   .sect   ".text:__isnormal"
    1917                            .clink
    1918                            .thumbfunc __isnormal
    1919 00000000                   .thumb
    1920                            .global __isnormal
    1921                    
    1922                    $C$DW$98        .dwtag  DW_TAG_subprogram
    1923                            .dwattr $C$DW$98, DW_AT_name("__isnormal")
    1924                            .dwattr $C$DW$98, DW_AT_low_pc(__isnormal)
    1925                            .dwattr $C$DW$98, DW_AT_high_pc(0x00)
TI ARM Assembler PC v20.2.7 Wed Feb 19 20:53:45 2025

Copyright (c) 1996-2018 Texas Instruments Incorporated
MAIN.asm                                                             PAGE   36

    1926                            .dwattr $C$DW$98, DW_AT_TI_symbol_name("__isnormal")
    1927                            .dwattr $C$DW$98, DW_AT_external
    1928                            .dwattr $C$DW$98, DW_AT_type(*$C$DW$T$10)
    1929                            .dwattr $C$DW$98, DW_AT_TI_begin_file("C:/ti/ccs1230/ccs/tools/compiler/ti-cgt-arm_20.2.7.LTS/
    1930                            .dwattr $C$DW$98, DW_AT_TI_begin_line(0x15f)
    1931                            .dwattr $C$DW$98, DW_AT_TI_begin_column(0x25)
    1932                            .dwattr $C$DW$98, DW_AT_decl_file("C:/ti/ccs1230/ccs/tools/compiler/ti-cgt-arm_20.2.7.LTS/incl
    1933                            .dwattr $C$DW$98, DW_AT_decl_line(0x15f)
    1934                            .dwattr $C$DW$98, DW_AT_decl_column(0x25)
    1935                            .dwattr $C$DW$98, DW_AT_TI_max_frame_size(0x18)
    1936                            .dwpsn  file "C:/ti/ccs1230/ccs/tools/compiler/ti-cgt-arm_20.2.7.LTS/include/_defs.h",line 352
    1937                    
    1938                            .dwfde $C$DW$CIE, __isnormal
    1939                    $C$DW$99        .dwtag  DW_TAG_formal_parameter
    1940                            .dwattr $C$DW$99, DW_AT_name("d")
    1941                            .dwattr $C$DW$99, DW_AT_TI_symbol_name("d")
    1942                            .dwattr $C$DW$99, DW_AT_type(*$C$DW$T$17)
    1943                            .dwattr $C$DW$99, DW_AT_location[DW_OP_regx 0x40]
    1944                    
    1945                    ;----------------------------------------------------------------------
    1946                    ; 351 | _CODE_ACCESS _INLINE_DEFINITION int __isnormal(double d)               
    1947                    ;----------------------------------------------------------------------
    1948                    
    1949                    ;*****************************************************************************
    1950                    ;* FUNCTION NAME: __isnormal                                                 *
    1951                    ;*                                                                           *
    1952                    ;*   Regs Modified     : A1,A2,A3,A4,V3,V4,SP,SR                             *
    1953                    ;*   Regs Used         : A1,A2,A3,A4,V3,V4,SP,LR,SR,D0,D0_hi                 *
    1954                    ;*   Local Frame Size  : 0 Args + 8 Auto + 12 Save = 20 byte                 *
    1955                    ;*****************************************************************************
    1956 00000000           __isnormal:
    1957                    ;* --------------------------------------------------------------------------*
    1958                            .dwcfi  cfa_offset, 0
    1959 00000000 B5CE              PUSH      {A2, A3, A4, V3, V4, LR} ; [DPU_V7M3_PIPE]  ; [ORIG 16-BIT INS]
    1960                            .dwcfi  cfa_offset, 24
    1961                            .dwcfi  save_reg_to_mem, 14, -4
    1962                            .dwcfi  save_reg_to_mem, 7, -8
    1963                            .dwcfi  save_reg_to_mem, 6, -12
    1964                            .dwcfi  save_reg_to_mem, 3, -16
    1965                            .dwcfi  save_reg_to_mem, 2, -20
    1966                            .dwcfi  save_reg_to_mem, 1, -24
    1967                    $C$DW$100       .dwtag  DW_TAG_variable
    1968                            .dwattr $C$DW$100, DW_AT_name("d")
    1969                            .dwattr $C$DW$100, DW_AT_TI_symbol_name("d")
    1970                            .dwattr $C$DW$100, DW_AT_type(*$C$DW$T$17)
    1971                            .dwattr $C$DW$100, DW_AT_location[DW_OP_breg13 0]
    1972                    
    1973                    ;----------------------------------------------------------------------
    1974                    ; 352 | { return (__DOUBLE_BIASED_EXP_IS_ZERO(d) == 0) &&                      
    1975                    ;----------------------------------------------------------------------
    1976 00000002 0B10EC51          VMOV      A1,A2, D0             ; [DPU_MERLIN_PIPE] |352|  ; [KEEP 32-BIT INS]
    1977 00000006 0003E88D          STMIA     SP, {A1,A2}           ; [DPU_V7M3_PIPE] |352|  ; [KEEP 32-BIT INS]
    1978                            .dwpsn  file "C:/ti/ccs1230/ccs/tools/compiler/ti-cgt-arm_20.2.7.LTS/include/_defs.h",line 352
    1979 0000000a 0006E89D          LDMIA     SP, {A2,A3}           ; [DPU_V7M3_PIPE] |352|  ; [KEEP 32-BIT INS]
    1980 0000000e 2700              MOVS      V4, #0                ; [DPU_V7M3_PIPE] |352|  ; [ORIG 16-BIT INS]
TI ARM Assembler PC v20.2.7 Wed Feb 19 20:53:45 2025

Copyright (c) 1996-2018 Texas Instruments Incorporated
MAIN.asm                                                             PAGE   37

    1981 00000010 2000              MOVS      A1, #0                ; [DPU_V7M3_PIPE] |352|  ; [ORIG 16-BIT INS]
    1982 00000012 4611              MOV       A2, A3                ; [DPU_V7M3_PIPE] |352|  ; [ORIG 16-BIT INS]
    1983 00000014 000A              LSLS      A3, A2, #0            ; [DPU_V7M3_PIPE] |352|  ; [ORIG 16-BIT INS]
    1984 00000016 2100              MOVS      A2, #0                ; [DPU_V7M3_PIPE] |352|  ; [ORIG 16-BIT INS]
    1985 00000018 4311              ORRS      A2, A2, A3            ; [DPU_V7M3_PIPE] |352|  ; [ORIG 16-BIT INS]
    1986 0000001a 0D0B              LSRS      A4, A2, #20           ; [DPU_V7M3_PIPE] |352|  ; [ORIG 16-BIT INS]
    1987 0000001c 2200              MOVS      A3, #0                ; [DPU_V7M3_PIPE] |352|  ; [ORIG 16-BIT INS]
    1988 0000001e 71FFF240          MOV       A2, #2047             ; [DPU_V7M3_PIPE] |352|  ; [KEEP 32-BIT INS]
    1989 00000022 17CE              ASRS      V3, A2, #31           ; [DPU_V7M3_PIPE] |352|  ; [ORIG 16-BIT INS]
    1990 00000024 4016              ANDS      V3, V3, A3            ; [DPU_V7M3_PIPE] |352|  ; [ORIG 16-BIT INS]
    1991 00000026 0103EA01          AND       A2, A2, A4            ; [DPU_V7M3_PIPE] |352|  ; [KEEP 32-BIT INS]
    1992 0000002a D100              BNE       ||$C$L15||            ; [DPU_V7M3_PIPE] |352|  ; [ORIG 16-BIT INS]
    1993                            ; BRANCHCC OCCURS {||$C$L15||}   ; [] |352| 
    1994                    ;* --------------------------------------------------------------------------*
    1995 0000002c 2900              CMP       A2, #0                ; [DPU_V7M3_PIPE] |352|  ; [ORIG 16-BIT INS]
    1996                    ;* --------------------------------------------------------------------------*
    1997 0000002e           ||$C$L15||:    
    1998 0000002e D100              BNE       ||$C$L16||            ; [DPU_V7M3_PIPE] |352|  ; [ORIG 16-BIT INS]
    1999                            ; BRANCHCC OCCURS {||$C$L16||}   ; [] |352| 
    2000                    ;* --------------------------------------------------------------------------*
    2001 00000030 2701              MOVS      V4, #1                ; [DPU_V7M3_PIPE] |352|  ; [ORIG 16-BIT INS]
    2002                    ;* --------------------------------------------------------------------------*
    2003 00000032           ||$C$L16||:    
    2004 00000032 B98F              CBNZ      V4, ||$C$L18||        ; []  ; [ORIG 16-BIT INS]
    2005                            ; BRANCHCC OCCURS {||$C$L18||}   ; [] |352| 
    2006                    ;* --------------------------------------------------------------------------*
    2007 00000034 0006E89D          LDMIA     SP, {A2,A3}           ; [DPU_V7M3_PIPE] |352|  ; [KEEP 32-BIT INS]
    2008 00000038 4611              MOV       A2, A3                ; [DPU_V7M3_PIPE] |352|  ; [ORIG 16-BIT INS]
    2009 0000003a 2700              MOVS      V4, #0                ; [DPU_V7M3_PIPE] |352|  ; [ORIG 16-BIT INS]
    2010 0000003c 000A              LSLS      A3, A2, #0            ; [DPU_V7M3_PIPE] |352|  ; [ORIG 16-BIT INS]
    2011 0000003e 2100              MOVS      A2, #0                ; [DPU_V7M3_PIPE] |352|  ; [ORIG 16-BIT INS]
    2012 00000040 4311              ORRS      A2, A2, A3            ; [DPU_V7M3_PIPE] |352|  ; [ORIG 16-BIT INS]
    2013 00000042 0C0A              LSRS      A3, A2, #16           ; [DPU_V7M3_PIPE] |352|  ; [ORIG 16-BIT INS]
    2014 00000044 71F0F647          MOV       A2, #32752            ; [DPU_V7M3_PIPE] |352|  ; [KEEP 32-BIT INS]
    2015 00000048 4011              ANDS      A2, A2, A3            ; [DPU_V7M3_PIPE] |352|  ; [ORIG 16-BIT INS]
    2016 0000004a 72F0F647          MOV       A3, #32752            ; [DPU_V7M3_PIPE] |352|  ; [KEEP 32-BIT INS]
    2017 0000004e 428A              CMP       A3, A2                ; [DPU_V7M3_PIPE] |352|  ; [ORIG 16-BIT INS]
    2018 00000050 D100              BNE       ||$C$L17||            ; [DPU_V7M3_PIPE] |352|  ; [ORIG 16-BIT INS]
    2019                            ; BRANCHCC OCCURS {||$C$L17||}   ; [] |352| 
    2020                    ;* --------------------------------------------------------------------------*
    2021 00000052 2701              MOVS      V4, #1                ; [DPU_V7M3_PIPE] |352|  ; [ORIG 16-BIT INS]
    2022                    ;* --------------------------------------------------------------------------*
    2023 00000054           ||$C$L17||:    
    2024 00000054 B907              CBNZ      V4, ||$C$L18||        ; []  ; [ORIG 16-BIT INS]
    2025                            ; BRANCHCC OCCURS {||$C$L18||}   ; [] |352| 
    2026                    ;* --------------------------------------------------------------------------*
    2027 00000056 2001              MOVS      A1, #1                ; [DPU_V7M3_PIPE] |352|  ; [ORIG 16-BIT INS]
    2028                    ;* --------------------------------------------------------------------------*
    2029 00000058           ||$C$L18||:    
    2030                            .dwpsn  file "C:/ti/ccs1230/ccs/tools/compiler/ti-cgt-arm_20.2.7.LTS/include/_defs.h",line 353
    2031                    ;----------------------------------------------------------------------
    2032                    ; 353 | (__DOUBLE_BIASED_EXP_IS_MAX(d) == 0); }                                
    2033                    ;----------------------------------------------------------------------
    2034                    $C$DW$101       .dwtag  DW_TAG_TI_branch
    2035                            .dwattr $C$DW$101, DW_AT_low_pc(0x00)
TI ARM Assembler PC v20.2.7 Wed Feb 19 20:53:45 2025

Copyright (c) 1996-2018 Texas Instruments Incorporated
MAIN.asm                                                             PAGE   38

    2036                            .dwattr $C$DW$101, DW_AT_TI_return
    2037                    
    2038 00000058 BDCE              POP       {A2, A3, A4, V3, V4, PC} ; [DPU_V7M3_PIPE]  ; [ORIG 16-BIT INS]
    2039                            .dwcfi  cfa_offset, 0
    2040                            .dwcfi  restore_reg, 7
    2041                            .dwcfi  restore_reg, 6
    2042                            .dwcfi  restore_reg, 3
    2043                            .dwcfi  restore_reg, 2
    2044                            .dwcfi  restore_reg, 1
    2045                            ; BRANCH OCCURS                  ; [] 
    2046                            .dwattr $C$DW$98, DW_AT_TI_end_file("C:/ti/ccs1230/ccs/tools/compiler/ti-cgt-arm_20.2.7.LTS/in
    2047                            .dwattr $C$DW$98, DW_AT_TI_end_line(0x161)
    2048                            .dwattr $C$DW$98, DW_AT_TI_end_column(0x30)
    2049                            .dwendentry
    2050                            .dwendtag $C$DW$98
    2051                    
    2052 00000000                   .sect   ".text:__isnormalf"
    2053                            .clink
    2054                            .thumbfunc __isnormalf
    2055 00000000                   .thumb
    2056                            .global __isnormalf
    2057                    
    2058                    $C$DW$102       .dwtag  DW_TAG_subprogram
    2059                            .dwattr $C$DW$102, DW_AT_name("__isnormalf")
    2060                            .dwattr $C$DW$102, DW_AT_low_pc(__isnormalf)
    2061                            .dwattr $C$DW$102, DW_AT_high_pc(0x00)
    2062                            .dwattr $C$DW$102, DW_AT_TI_symbol_name("__isnormalf")
    2063                            .dwattr $C$DW$102, DW_AT_external
    2064                            .dwattr $C$DW$102, DW_AT_type(*$C$DW$T$10)
    2065                            .dwattr $C$DW$102, DW_AT_TI_begin_file("C:/ti/ccs1230/ccs/tools/compiler/ti-cgt-arm_20.2.7.LTS
    2066                            .dwattr $C$DW$102, DW_AT_TI_begin_line(0x163)
    2067                            .dwattr $C$DW$102, DW_AT_TI_begin_column(0x25)
    2068                            .dwattr $C$DW$102, DW_AT_decl_file("C:/ti/ccs1230/ccs/tools/compiler/ti-cgt-arm_20.2.7.LTS/inc
    2069                            .dwattr $C$DW$102, DW_AT_decl_line(0x163)
    2070                            .dwattr $C$DW$102, DW_AT_decl_column(0x25)
    2071                            .dwattr $C$DW$102, DW_AT_TI_max_frame_size(0x08)
    2072                            .dwpsn  file "C:/ti/ccs1230/ccs/tools/compiler/ti-cgt-arm_20.2.7.LTS/include/_defs.h",line 356
    2073                    
    2074                            .dwfde $C$DW$CIE, __isnormalf
    2075                    $C$DW$103       .dwtag  DW_TAG_formal_parameter
    2076                            .dwattr $C$DW$103, DW_AT_name("f")
    2077                            .dwattr $C$DW$103, DW_AT_TI_symbol_name("f")
    2078                            .dwattr $C$DW$103, DW_AT_type(*$C$DW$T$16)
    2079                            .dwattr $C$DW$103, DW_AT_location[DW_OP_regx 0x40]
    2080                    
    2081                    ;----------------------------------------------------------------------
    2082                    ; 355 | _CODE_ACCESS _INLINE_DEFINITION int __isnormalf(float f)               
    2083                    ;----------------------------------------------------------------------
    2084                    
    2085                    ;*****************************************************************************
    2086                    ;* FUNCTION NAME: __isnormalf                                                *
    2087                    ;*                                                                           *
    2088                    ;*   Regs Modified     : A1,A2,A3,SP,SR                                      *
    2089                    ;*   Regs Used         : A1,A2,A3,SP,LR,SR,D0                                *
    2090                    ;*   Local Frame Size  : 0 Args + 4 Auto + 0 Save = 4 byte                   *
TI ARM Assembler PC v20.2.7 Wed Feb 19 20:53:45 2025

Copyright (c) 1996-2018 Texas Instruments Incorporated
MAIN.asm                                                             PAGE   39

    2091                    ;*****************************************************************************
    2092 00000000           __isnormalf:
    2093                    ;* --------------------------------------------------------------------------*
    2094                            .dwcfi  cfa_offset, 0
    2095 00000000 0D08F1AD          SUB       SP, SP, #8            ; [DPU_V7M3_PIPE]  ; [KEEP 32-BIT INS]
    2096                            .dwcfi  cfa_offset, 8
    2097                    $C$DW$104       .dwtag  DW_TAG_variable
    2098                            .dwattr $C$DW$104, DW_AT_name("f")
    2099                            .dwattr $C$DW$104, DW_AT_TI_symbol_name("f")
    2100                            .dwattr $C$DW$104, DW_AT_type(*$C$DW$T$16)
    2101                            .dwattr $C$DW$104, DW_AT_location[DW_OP_breg13 0]
    2102                    
    2103                    ;----------------------------------------------------------------------
    2104                    ; 356 | { return (__FLOAT_BIASED_EXP_IS_ZERO(f) == 0) &&                       
    2105                    ;----------------------------------------------------------------------
    2106 00000004 0A00ED8D          VSTR.32   S0, [SP, #0]          ; [DPU_MERLIN_PIPE] |356|  ; [KEEP 32-BIT INS]
    2107                            .dwpsn  file "C:/ti/ccs1230/ccs/tools/compiler/ti-cgt-arm_20.2.7.LTS/include/_defs.h",line 356
    2108 00000008 9800              LDR       A1, [SP, #0]          ; [DPU_V7M3_PIPE] |356|  ; [ORIG 16-BIT INS]
    2109 0000000a 2100              MOVS      A2, #0                ; [DPU_V7M3_PIPE] |356|  ; [ORIG 16-BIT INS]
    2110 0000000c 52C7F3C0          UBFX      A3, A1, #23, #8       ; [DPU_V7M3_PIPE] |356|  ; [KEEP 32-BIT INS]
    2111 00000010 2000              MOVS      A1, #0                ; [DPU_V7M3_PIPE] |356|  ; [ORIG 16-BIT INS]
    2112 00000012 B902              CBNZ      A3, ||$C$L19||        ; []  ; [ORIG 16-BIT INS]
    2113                            ; BRANCHCC OCCURS {||$C$L19||}   ; [] |356| 
    2114                    ;* --------------------------------------------------------------------------*
    2115 00000014 2101              MOVS      A2, #1                ; [DPU_V7M3_PIPE] |356|  ; [ORIG 16-BIT INS]
    2116                    ;* --------------------------------------------------------------------------*
    2117 00000016           ||$C$L19||:    
    2118 00000016 B959              CBNZ      A2, ||$C$L21||        ; []  ; [ORIG 16-BIT INS]
    2119                            ; BRANCHCC OCCURS {||$C$L21||}   ; [] |356| 
    2120                    ;* --------------------------------------------------------------------------*
    2121 00000018 9900              LDR       A2, [SP, #0]          ; [DPU_V7M3_PIPE] |356|  ; [ORIG 16-BIT INS]
    2122 0000001a 0C09              LSRS      A2, A2, #16           ; [DPU_V7M3_PIPE] |356|  ; [ORIG 16-BIT INS]
    2123 0000001c 42FFF401          AND       A3, A2, #32640        ; [DPU_V7M3_PIPE] |356|  ; [KEEP 32-BIT INS]
    2124 00000020 4FFFF5B2          CMP       A3, #32640            ; [DPU_V7M3_PIPE] |356|  ; [KEEP 32-BIT INS]
    2125 00000024 0100F04F          MOV       A2, #0                ; [DPU_V7M3_PIPE] |356|  ; [KEEP 32-BIT INS]
    2126 00000028 D100              BNE       ||$C$L20||            ; [DPU_V7M3_PIPE] |356|  ; [ORIG 16-BIT INS]
    2127                            ; BRANCHCC OCCURS {||$C$L20||}   ; [] |356| 
    2128                    ;* --------------------------------------------------------------------------*
    2129 0000002a 2101              MOVS      A2, #1                ; [DPU_V7M3_PIPE] |356|  ; [ORIG 16-BIT INS]
    2130                    ;* --------------------------------------------------------------------------*
    2131 0000002c           ||$C$L20||:    
    2132 0000002c B901              CBNZ      A2, ||$C$L21||        ; []  ; [ORIG 16-BIT INS]
    2133                            ; BRANCHCC OCCURS {||$C$L21||}   ; [] |356| 
    2134                    ;* --------------------------------------------------------------------------*
    2135 0000002e 2001              MOVS      A1, #1                ; [DPU_V7M3_PIPE] |356|  ; [ORIG 16-BIT INS]
    2136                    ;* --------------------------------------------------------------------------*
    2137 00000030           ||$C$L21||:    
    2138                            .dwpsn  file "C:/ti/ccs1230/ccs/tools/compiler/ti-cgt-arm_20.2.7.LTS/include/_defs.h",line 357
    2139                    ;----------------------------------------------------------------------
    2140                    ; 357 | (__FLOAT_BIASED_EXP_IS_MAX(f) == 0); }                                 
    2141                    ;----------------------------------------------------------------------
    2142 00000030 B002              ADD       SP, SP, #8            ; [DPU_V7M3_PIPE]  ; [ORIG 16-BIT INS]
    2143                            .dwcfi  cfa_offset, 0
    2144                    $C$DW$105       .dwtag  DW_TAG_TI_branch
    2145                            .dwattr $C$DW$105, DW_AT_low_pc(0x00)
TI ARM Assembler PC v20.2.7 Wed Feb 19 20:53:45 2025

Copyright (c) 1996-2018 Texas Instruments Incorporated
MAIN.asm                                                             PAGE   40

    2146                            .dwattr $C$DW$105, DW_AT_TI_return
    2147                    
    2148 00000032 4770              BX        LR                    ; [DPU_V7M3_PIPE]  ; [ORIG 16-BIT INS]
    2149                            ; BRANCH OCCURS                  ; [] 
    2150                            .dwattr $C$DW$102, DW_AT_TI_end_file("C:/ti/ccs1230/ccs/tools/compiler/ti-cgt-arm_20.2.7.LTS/i
    2151                            .dwattr $C$DW$102, DW_AT_TI_end_line(0x165)
    2152                            .dwattr $C$DW$102, DW_AT_TI_end_column(0x2f)
    2153                            .dwendentry
    2154                            .dwendtag $C$DW$102
    2155                    
    2156 00000000                   .sect   ".text:__isnormall"
    2157                            .clink
    2158                            .thumbfunc __isnormall
    2159 00000000                   .thumb
    2160                            .global __isnormall
    2161                    
    2162                    $C$DW$106       .dwtag  DW_TAG_subprogram
    2163                            .dwattr $C$DW$106, DW_AT_name("__isnormall")
    2164                            .dwattr $C$DW$106, DW_AT_low_pc(__isnormall)
    2165                            .dwattr $C$DW$106, DW_AT_high_pc(0x00)
    2166                            .dwattr $C$DW$106, DW_AT_TI_symbol_name("__isnormall")
    2167                            .dwattr $C$DW$106, DW_AT_external
    2168                            .dwattr $C$DW$106, DW_AT_type(*$C$DW$T$10)
    2169                            .dwattr $C$DW$106, DW_AT_TI_begin_file("C:/ti/ccs1230/ccs/tools/compiler/ti-cgt-arm_20.2.7.LTS
    2170                            .dwattr $C$DW$106, DW_AT_TI_begin_line(0x167)
    2171                            .dwattr $C$DW$106, DW_AT_TI_begin_column(0x25)
    2172                            .dwattr $C$DW$106, DW_AT_decl_file("C:/ti/ccs1230/ccs/tools/compiler/ti-cgt-arm_20.2.7.LTS/inc
    2173                            .dwattr $C$DW$106, DW_AT_decl_line(0x167)
    2174                            .dwattr $C$DW$106, DW_AT_decl_column(0x25)
    2175                            .dwattr $C$DW$106, DW_AT_TI_max_frame_size(0x18)
    2176                            .dwpsn  file "C:/ti/ccs1230/ccs/tools/compiler/ti-cgt-arm_20.2.7.LTS/include/_defs.h",line 360
    2177                    
    2178                            .dwfde $C$DW$CIE, __isnormall
    2179                    $C$DW$107       .dwtag  DW_TAG_formal_parameter
    2180                            .dwattr $C$DW$107, DW_AT_name("e")
    2181                            .dwattr $C$DW$107, DW_AT_TI_symbol_name("e")
    2182                            .dwattr $C$DW$107, DW_AT_type(*$C$DW$T$18)
    2183                            .dwattr $C$DW$107, DW_AT_location[DW_OP_regx 0x40]
    2184                    
    2185                    ;----------------------------------------------------------------------
    2186                    ; 359 | _CODE_ACCESS _INLINE_DEFINITION int __isnormall(long double e)         
    2187                    ;----------------------------------------------------------------------
    2188                    
    2189                    ;*****************************************************************************
    2190                    ;* FUNCTION NAME: __isnormall                                                *
    2191                    ;*                                                                           *
    2192                    ;*   Regs Modified     : A1,A2,A3,A4,V3,V4,SP,SR                             *
    2193                    ;*   Regs Used         : A1,A2,A3,A4,V3,V4,SP,LR,SR,D0,D0_hi                 *
    2194                    ;*   Local Frame Size  : 0 Args + 8 Auto + 12 Save = 20 byte                 *
    2195                    ;*****************************************************************************
    2196 00000000           __isnormall:
    2197                    ;* --------------------------------------------------------------------------*
    2198                            .dwcfi  cfa_offset, 0
    2199 00000000 B5CE              PUSH      {A2, A3, A4, V3, V4, LR} ; [DPU_V7M3_PIPE]  ; [ORIG 16-BIT INS]
    2200                            .dwcfi  cfa_offset, 24
TI ARM Assembler PC v20.2.7 Wed Feb 19 20:53:45 2025

Copyright (c) 1996-2018 Texas Instruments Incorporated
MAIN.asm                                                             PAGE   41

    2201                            .dwcfi  save_reg_to_mem, 14, -4
    2202                            .dwcfi  save_reg_to_mem, 7, -8
    2203                            .dwcfi  save_reg_to_mem, 6, -12
    2204                            .dwcfi  save_reg_to_mem, 3, -16
    2205                            .dwcfi  save_reg_to_mem, 2, -20
    2206                            .dwcfi  save_reg_to_mem, 1, -24
    2207                    $C$DW$108       .dwtag  DW_TAG_variable
    2208                            .dwattr $C$DW$108, DW_AT_name("e")
    2209                            .dwattr $C$DW$108, DW_AT_TI_symbol_name("e")
    2210                            .dwattr $C$DW$108, DW_AT_type(*$C$DW$T$18)
    2211                            .dwattr $C$DW$108, DW_AT_location[DW_OP_breg13 0]
    2212                    
    2213                    ;----------------------------------------------------------------------
    2214                    ; 360 | { return (__LDOUBLE_BIASED_EXP_IS_ZERO(e) == 0) &&                     
    2215                    ;----------------------------------------------------------------------
    2216 00000002 0B10EC51          VMOV      A1,A2, D0             ; [DPU_MERLIN_PIPE] |360|  ; [KEEP 32-BIT INS]
    2217 00000006 0003E88D          STMIA     SP, {A1,A2}           ; [DPU_V7M3_PIPE] |360|  ; [KEEP 32-BIT INS]
    2218                            .dwpsn  file "C:/ti/ccs1230/ccs/tools/compiler/ti-cgt-arm_20.2.7.LTS/include/_defs.h",line 360
    2219 0000000a 0006E89D          LDMIA     SP, {A2,A3}           ; [DPU_V7M3_PIPE] |360|  ; [KEEP 32-BIT INS]
    2220 0000000e 2700              MOVS      V4, #0                ; [DPU_V7M3_PIPE] |360|  ; [ORIG 16-BIT INS]
    2221 00000010 2000              MOVS      A1, #0                ; [DPU_V7M3_PIPE] |360|  ; [ORIG 16-BIT INS]
    2222 00000012 4611              MOV       A2, A3                ; [DPU_V7M3_PIPE] |360|  ; [ORIG 16-BIT INS]
    2223 00000014 000A              LSLS      A3, A2, #0            ; [DPU_V7M3_PIPE] |360|  ; [ORIG 16-BIT INS]
    2224 00000016 2100              MOVS      A2, #0                ; [DPU_V7M3_PIPE] |360|  ; [ORIG 16-BIT INS]
    2225 00000018 4311              ORRS      A2, A2, A3            ; [DPU_V7M3_PIPE] |360|  ; [ORIG 16-BIT INS]
    2226 0000001a 0D0B              LSRS      A4, A2, #20           ; [DPU_V7M3_PIPE] |360|  ; [ORIG 16-BIT INS]
    2227 0000001c 2200              MOVS      A3, #0                ; [DPU_V7M3_PIPE] |360|  ; [ORIG 16-BIT INS]
    2228 0000001e 71FFF240          MOV       A2, #2047             ; [DPU_V7M3_PIPE] |360|  ; [KEEP 32-BIT INS]
    2229 00000022 17CE              ASRS      V3, A2, #31           ; [DPU_V7M3_PIPE] |360|  ; [ORIG 16-BIT INS]
    2230 00000024 4016              ANDS      V3, V3, A3            ; [DPU_V7M3_PIPE] |360|  ; [ORIG 16-BIT INS]
    2231 00000026 0103EA01          AND       A2, A2, A4            ; [DPU_V7M3_PIPE] |360|  ; [KEEP 32-BIT INS]
    2232 0000002a D100              BNE       ||$C$L22||            ; [DPU_V7M3_PIPE] |360|  ; [ORIG 16-BIT INS]
    2233                            ; BRANCHCC OCCURS {||$C$L22||}   ; [] |360| 
    2234                    ;* --------------------------------------------------------------------------*
    2235 0000002c 2900              CMP       A2, #0                ; [DPU_V7M3_PIPE] |360|  ; [ORIG 16-BIT INS]
    2236                    ;* --------------------------------------------------------------------------*
    2237 0000002e           ||$C$L22||:    
    2238 0000002e D100              BNE       ||$C$L23||            ; [DPU_V7M3_PIPE] |360|  ; [ORIG 16-BIT INS]
    2239                            ; BRANCHCC OCCURS {||$C$L23||}   ; [] |360| 
    2240                    ;* --------------------------------------------------------------------------*
    2241 00000030 2701              MOVS      V4, #1                ; [DPU_V7M3_PIPE] |360|  ; [ORIG 16-BIT INS]
    2242                    ;* --------------------------------------------------------------------------*
    2243 00000032           ||$C$L23||:    
    2244 00000032 B98F              CBNZ      V4, ||$C$L25||        ; []  ; [ORIG 16-BIT INS]
    2245                            ; BRANCHCC OCCURS {||$C$L25||}   ; [] |360| 
    2246                    ;* --------------------------------------------------------------------------*
    2247 00000034 0006E89D          LDMIA     SP, {A2,A3}           ; [DPU_V7M3_PIPE] |360|  ; [KEEP 32-BIT INS]
    2248 00000038 4611              MOV       A2, A3                ; [DPU_V7M3_PIPE] |360|  ; [ORIG 16-BIT INS]
    2249 0000003a 2700              MOVS      V4, #0                ; [DPU_V7M3_PIPE] |360|  ; [ORIG 16-BIT INS]
    2250 0000003c 000A              LSLS      A3, A2, #0            ; [DPU_V7M3_PIPE] |360|  ; [ORIG 16-BIT INS]
    2251 0000003e 2100              MOVS      A2, #0                ; [DPU_V7M3_PIPE] |360|  ; [ORIG 16-BIT INS]
    2252 00000040 4311              ORRS      A2, A2, A3            ; [DPU_V7M3_PIPE] |360|  ; [ORIG 16-BIT INS]
    2253 00000042 0C0A              LSRS      A3, A2, #16           ; [DPU_V7M3_PIPE] |360|  ; [ORIG 16-BIT INS]
    2254 00000044 71F0F647          MOV       A2, #32752            ; [DPU_V7M3_PIPE] |360|  ; [KEEP 32-BIT INS]
    2255 00000048 4011              ANDS      A2, A2, A3            ; [DPU_V7M3_PIPE] |360|  ; [ORIG 16-BIT INS]
TI ARM Assembler PC v20.2.7 Wed Feb 19 20:53:45 2025

Copyright (c) 1996-2018 Texas Instruments Incorporated
MAIN.asm                                                             PAGE   42

    2256 0000004a 72F0F647          MOV       A3, #32752            ; [DPU_V7M3_PIPE] |360|  ; [KEEP 32-BIT INS]
    2257 0000004e 428A              CMP       A3, A2                ; [DPU_V7M3_PIPE] |360|  ; [ORIG 16-BIT INS]
    2258 00000050 D100              BNE       ||$C$L24||            ; [DPU_V7M3_PIPE] |360|  ; [ORIG 16-BIT INS]
    2259                            ; BRANCHCC OCCURS {||$C$L24||}   ; [] |360| 
    2260                    ;* --------------------------------------------------------------------------*
    2261 00000052 2701              MOVS      V4, #1                ; [DPU_V7M3_PIPE] |360|  ; [ORIG 16-BIT INS]
    2262                    ;* --------------------------------------------------------------------------*
    2263 00000054           ||$C$L24||:    
    2264 00000054 B907              CBNZ      V4, ||$C$L25||        ; []  ; [ORIG 16-BIT INS]
    2265                            ; BRANCHCC OCCURS {||$C$L25||}   ; [] |360| 
    2266                    ;* --------------------------------------------------------------------------*
    2267 00000056 2001              MOVS      A1, #1                ; [DPU_V7M3_PIPE] |360|  ; [ORIG 16-BIT INS]
    2268                    ;* --------------------------------------------------------------------------*
    2269 00000058           ||$C$L25||:    
    2270                            .dwpsn  file "C:/ti/ccs1230/ccs/tools/compiler/ti-cgt-arm_20.2.7.LTS/include/_defs.h",line 361
    2271                    ;----------------------------------------------------------------------
    2272                    ; 361 | (__LDOUBLE_BIASED_EXP_IS_MAX(e) == 0); }                               
    2273                    ;----------------------------------------------------------------------
    2274                    $C$DW$109       .dwtag  DW_TAG_TI_branch
    2275                            .dwattr $C$DW$109, DW_AT_low_pc(0x00)
    2276                            .dwattr $C$DW$109, DW_AT_TI_return
    2277                    
    2278 00000058 BDCE              POP       {A2, A3, A4, V3, V4, PC} ; [DPU_V7M3_PIPE]  ; [ORIG 16-BIT INS]
    2279                            .dwcfi  cfa_offset, 0
    2280                            .dwcfi  restore_reg, 7
    2281                            .dwcfi  restore_reg, 6
    2282                            .dwcfi  restore_reg, 3
    2283                            .dwcfi  restore_reg, 2
    2284                            .dwcfi  restore_reg, 1
    2285                            ; BRANCH OCCURS                  ; [] 
    2286                            .dwattr $C$DW$106, DW_AT_TI_end_file("C:/ti/ccs1230/ccs/tools/compiler/ti-cgt-arm_20.2.7.LTS/i
    2287                            .dwattr $C$DW$106, DW_AT_TI_end_line(0x169)
    2288                            .dwattr $C$DW$106, DW_AT_TI_end_column(0x31)
    2289                            .dwendentry
    2290                            .dwendtag $C$DW$106
    2291                    
    2292 00000000                   .sect   ".text:__signbit"
    2293                            .clink
    2294                            .thumbfunc __signbit
    2295 00000000                   .thumb
    2296                            .global __signbit
    2297                    
    2298                    $C$DW$110       .dwtag  DW_TAG_subprogram
    2299                            .dwattr $C$DW$110, DW_AT_name("__signbit")
    2300                            .dwattr $C$DW$110, DW_AT_low_pc(__signbit)
    2301                            .dwattr $C$DW$110, DW_AT_high_pc(0x00)
    2302                            .dwattr $C$DW$110, DW_AT_TI_symbol_name("__signbit")
    2303                            .dwattr $C$DW$110, DW_AT_external
    2304                            .dwattr $C$DW$110, DW_AT_type(*$C$DW$T$10)
    2305                            .dwattr $C$DW$110, DW_AT_TI_begin_file("C:/ti/ccs1230/ccs/tools/compiler/ti-cgt-arm_20.2.7.LTS
    2306                            .dwattr $C$DW$110, DW_AT_TI_begin_line(0x16b)
    2307                            .dwattr $C$DW$110, DW_AT_TI_begin_column(0x25)
    2308                            .dwattr $C$DW$110, DW_AT_decl_file("C:/ti/ccs1230/ccs/tools/compiler/ti-cgt-arm_20.2.7.LTS/inc
    2309                            .dwattr $C$DW$110, DW_AT_decl_line(0x16b)
    2310                            .dwattr $C$DW$110, DW_AT_decl_column(0x25)
TI ARM Assembler PC v20.2.7 Wed Feb 19 20:53:45 2025

Copyright (c) 1996-2018 Texas Instruments Incorporated
MAIN.asm                                                             PAGE   43

    2311                            .dwattr $C$DW$110, DW_AT_TI_max_frame_size(0x20)
    2312                            .dwpsn  file "C:/ti/ccs1230/ccs/tools/compiler/ti-cgt-arm_20.2.7.LTS/include/_defs.h",line 364
    2313                    
    2314                            .dwfde $C$DW$CIE, __signbit
    2315                    $C$DW$111       .dwtag  DW_TAG_formal_parameter
    2316                            .dwattr $C$DW$111, DW_AT_name("d")
    2317                            .dwattr $C$DW$111, DW_AT_TI_symbol_name("d")
    2318                            .dwattr $C$DW$111, DW_AT_type(*$C$DW$T$17)
    2319                            .dwattr $C$DW$111, DW_AT_location[DW_OP_regx 0x40]
    2320                    
    2321                    ;----------------------------------------------------------------------
    2322                    ; 363 | _CODE_ACCESS _INLINE_DEFINITION int __signbit(double d)                
    2323                    ;----------------------------------------------------------------------
    2324                    
    2325                    ;*****************************************************************************
    2326                    ;* FUNCTION NAME: __signbit                                                  *
    2327                    ;*                                                                           *
    2328                    ;*   Regs Modified     : A1,A2,A3,A4,V1,V2,V3,V4,SP,SR                       *
    2329                    ;*   Regs Used         : A1,A2,A3,A4,V1,V2,V3,V4,SP,LR,SR,D0,D0_hi           *
    2330                    ;*   Local Frame Size  : 0 Args + 8 Auto + 20 Save = 28 byte                 *
    2331                    ;*****************************************************************************
    2332 00000000           __signbit:
    2333                    ;* --------------------------------------------------------------------------*
    2334                            .dwcfi  cfa_offset, 0
    2335 00000000 B5FE              PUSH      {A2, A3, A4, V1, V2, V3, V4, LR} ; [DPU_V7M3_PIPE]  ; [ORIG 16-BIT INS]
    2336                            .dwcfi  cfa_offset, 32
    2337                            .dwcfi  save_reg_to_mem, 14, -4
    2338                            .dwcfi  save_reg_to_mem, 7, -8
    2339                            .dwcfi  save_reg_to_mem, 6, -12
    2340                            .dwcfi  save_reg_to_mem, 5, -16
    2341                            .dwcfi  save_reg_to_mem, 4, -20
    2342                            .dwcfi  save_reg_to_mem, 3, -24
    2343                            .dwcfi  save_reg_to_mem, 2, -28
    2344                            .dwcfi  save_reg_to_mem, 1, -32
    2345                    $C$DW$112       .dwtag  DW_TAG_variable
    2346                            .dwattr $C$DW$112, DW_AT_name("d")
    2347                            .dwattr $C$DW$112, DW_AT_TI_symbol_name("d")
    2348                            .dwattr $C$DW$112, DW_AT_type(*$C$DW$T$17)
    2349                            .dwattr $C$DW$112, DW_AT_location[DW_OP_breg13 0]
    2350                    
    2351                    ;----------------------------------------------------------------------
    2352                    ; 364 | { return __DOUBLE_SIGN_BIT_ZERO(d) == 0; }                             
    2353                    ;----------------------------------------------------------------------
    2354 00000002 0B10EC51          VMOV      A1,A2, D0             ; [DPU_MERLIN_PIPE] |364|  ; [KEEP 32-BIT INS]
    2355 00000006 0003E88D          STMIA     SP, {A1,A2}           ; [DPU_V7M3_PIPE] |364|  ; [KEEP 32-BIT INS]
    2356                            .dwpsn  file "C:/ti/ccs1230/ccs/tools/compiler/ti-cgt-arm_20.2.7.LTS/include/_defs.h",line 364
    2357 0000000a 0006E89D          LDMIA     SP, {A2,A3}           ; [DPU_V7M3_PIPE] |364|  ; [KEEP 32-BIT INS]
    2358 0000000e 4611              MOV       A2, A3                ; [DPU_V7M3_PIPE] |364|  ; [ORIG 16-BIT INS]
    2359 00000010 000CE89D          LDMIA     SP, {A3,A4}           ; [DPU_V7M3_PIPE] |364|  ; [KEEP 32-BIT INS]
    2360 00000014 2500              MOVS      V2, #0                ; [DPU_V7M3_PIPE] |364|  ; [ORIG 16-BIT INS]
    2361 00000016 4600F04F          MOV       V3, #-2147483648      ; [DPU_V7M3_PIPE] |364|  ; [KEEP 32-BIT INS]
    2362 0000001a 2700              MOVS      V4, #0                ; [DPU_V7M3_PIPE] |364|  ; [ORIG 16-BIT INS]
    2363 0000001c 2000              MOVS      A1, #0                ; [DPU_V7M3_PIPE] |364|  ; [ORIG 16-BIT INS]
    2364 0000001e 000C              LSLS      V1, A2, #0            ; [DPU_V7M3_PIPE] |364|  ; [ORIG 16-BIT INS]
    2365 00000020 2100              MOVS      A2, #0                ; [DPU_V7M3_PIPE] |364|  ; [ORIG 16-BIT INS]
TI ARM Assembler PC v20.2.7 Wed Feb 19 20:53:45 2025

Copyright (c) 1996-2018 Texas Instruments Incorporated
MAIN.asm                                                             PAGE   44

    2366 00000022 4321              ORRS      A2, A2, V1            ; [DPU_V7M3_PIPE] |364|  ; [ORIG 16-BIT INS]
    2367 00000024 2300              MOVS      A4, #0                ; [DPU_V7M3_PIPE] |364|  ; [ORIG 16-BIT INS]
    2368 00000026 432A              ORRS      A3, A3, V2            ; [DPU_V7M3_PIPE] |364|  ; [ORIG 16-BIT INS]
    2369 00000028 400E              ANDS      V3, V3, A2            ; [DPU_V7M3_PIPE] |364|  ; [ORIG 16-BIT INS]
    2370 0000002a 0302EA03          AND       A4, A4, A3            ; [DPU_V7M3_PIPE] |364|  ; [KEEP 32-BIT INS]
    2371 0000002e D100              BNE       ||$C$L26||            ; [DPU_V7M3_PIPE] |364|  ; [ORIG 16-BIT INS]
    2372                            ; BRANCHCC OCCURS {||$C$L26||}   ; [] |364| 
    2373                    ;* --------------------------------------------------------------------------*
    2374 00000030 2B00              CMP       A4, #0                ; [DPU_V7M3_PIPE] |364|  ; [ORIG 16-BIT INS]
    2375                    ;* --------------------------------------------------------------------------*
    2376 00000032           ||$C$L26||:    
    2377 00000032 D100              BNE       ||$C$L27||            ; [DPU_V7M3_PIPE] |364|  ; [ORIG 16-BIT INS]
    2378                            ; BRANCHCC OCCURS {||$C$L27||}   ; [] |364| 
    2379                    ;* --------------------------------------------------------------------------*
    2380 00000034 2701              MOVS      V4, #1                ; [DPU_V7M3_PIPE] |364|  ; [ORIG 16-BIT INS]
    2381                    ;* --------------------------------------------------------------------------*
    2382 00000036           ||$C$L27||:    
    2383 00000036 B907              CBNZ      V4, ||$C$L28||        ; []  ; [ORIG 16-BIT INS]
    2384                            ; BRANCHCC OCCURS {||$C$L28||}   ; [] |364| 
    2385                    ;* --------------------------------------------------------------------------*
    2386 00000038 2001              MOVS      A1, #1                ; [DPU_V7M3_PIPE] |364|  ; [ORIG 16-BIT INS]
    2387                    ;* --------------------------------------------------------------------------*
    2388 0000003a           ||$C$L28||:    
    2389                            .dwpsn  file "C:/ti/ccs1230/ccs/tools/compiler/ti-cgt-arm_20.2.7.LTS/include/_defs.h",line 364
    2390                    $C$DW$113       .dwtag  DW_TAG_TI_branch
    2391                            .dwattr $C$DW$113, DW_AT_low_pc(0x00)
    2392                            .dwattr $C$DW$113, DW_AT_TI_return
    2393                    
    2394 0000003a BDFE              POP       {A2, A3, A4, V1, V2, V3, V4, PC} ; [DPU_V7M3_PIPE]  ; [ORIG 16-BIT INS]
    2395                            .dwcfi  cfa_offset, 0
    2396                            .dwcfi  restore_reg, 7
    2397                            .dwcfi  restore_reg, 6
    2398                            .dwcfi  restore_reg, 5
    2399                            .dwcfi  restore_reg, 4
    2400                            .dwcfi  restore_reg, 3
    2401                            .dwcfi  restore_reg, 2
    2402                            .dwcfi  restore_reg, 1
    2403                            ; BRANCH OCCURS                  ; [] 
    2404                            .dwattr $C$DW$110, DW_AT_TI_end_file("C:/ti/ccs1230/ccs/tools/compiler/ti-cgt-arm_20.2.7.LTS/i
    2405                            .dwattr $C$DW$110, DW_AT_TI_end_line(0x16c)
    2406                            .dwattr $C$DW$110, DW_AT_TI_end_column(0x2a)
    2407                            .dwendentry
    2408                            .dwendtag $C$DW$110
    2409                    
    2410 00000000                   .sect   ".text:__signbitf"
    2411                            .clink
    2412                            .thumbfunc __signbitf
    2413 00000000                   .thumb
    2414                            .global __signbitf
    2415                    
    2416                    $C$DW$114       .dwtag  DW_TAG_subprogram
    2417                            .dwattr $C$DW$114, DW_AT_name("__signbitf")
    2418                            .dwattr $C$DW$114, DW_AT_low_pc(__signbitf)
    2419                            .dwattr $C$DW$114, DW_AT_high_pc(0x00)
    2420                            .dwattr $C$DW$114, DW_AT_TI_symbol_name("__signbitf")
TI ARM Assembler PC v20.2.7 Wed Feb 19 20:53:45 2025

Copyright (c) 1996-2018 Texas Instruments Incorporated
MAIN.asm                                                             PAGE   45

    2421                            .dwattr $C$DW$114, DW_AT_external
    2422                            .dwattr $C$DW$114, DW_AT_type(*$C$DW$T$10)
    2423                            .dwattr $C$DW$114, DW_AT_TI_begin_file("C:/ti/ccs1230/ccs/tools/compiler/ti-cgt-arm_20.2.7.LTS
    2424                            .dwattr $C$DW$114, DW_AT_TI_begin_line(0x16d)
    2425                            .dwattr $C$DW$114, DW_AT_TI_begin_column(0x25)
    2426                            .dwattr $C$DW$114, DW_AT_decl_file("C:/ti/ccs1230/ccs/tools/compiler/ti-cgt-arm_20.2.7.LTS/inc
    2427                            .dwattr $C$DW$114, DW_AT_decl_line(0x16d)
    2428                            .dwattr $C$DW$114, DW_AT_decl_column(0x25)
    2429                            .dwattr $C$DW$114, DW_AT_TI_max_frame_size(0x08)
    2430                            .dwpsn  file "C:/ti/ccs1230/ccs/tools/compiler/ti-cgt-arm_20.2.7.LTS/include/_defs.h",line 366
    2431                    
    2432                            .dwfde $C$DW$CIE, __signbitf
    2433                    $C$DW$115       .dwtag  DW_TAG_formal_parameter
    2434                            .dwattr $C$DW$115, DW_AT_name("f")
    2435                            .dwattr $C$DW$115, DW_AT_TI_symbol_name("f")
    2436                            .dwattr $C$DW$115, DW_AT_type(*$C$DW$T$16)
    2437                            .dwattr $C$DW$115, DW_AT_location[DW_OP_regx 0x40]
    2438                    
    2439                    ;----------------------------------------------------------------------
    2440                    ; 365 | _CODE_ACCESS _INLINE_DEFINITION int __signbitf(float f)                
    2441                    ;----------------------------------------------------------------------
    2442                    
    2443                    ;*****************************************************************************
    2444                    ;* FUNCTION NAME: __signbitf                                                 *
    2445                    ;*                                                                           *
    2446                    ;*   Regs Modified     : A1,A2,A3,SP,SR                                      *
    2447                    ;*   Regs Used         : A1,A2,A3,SP,LR,SR,D0                                *
    2448                    ;*   Local Frame Size  : 0 Args + 4 Auto + 0 Save = 4 byte                   *
    2449                    ;*****************************************************************************
    2450 00000000           __signbitf:
    2451                    ;* --------------------------------------------------------------------------*
    2452                            .dwcfi  cfa_offset, 0
    2453 00000000 0D08F1AD          SUB       SP, SP, #8            ; [DPU_V7M3_PIPE]  ; [KEEP 32-BIT INS]
    2454                            .dwcfi  cfa_offset, 8
    2455                    $C$DW$116       .dwtag  DW_TAG_variable
    2456                            .dwattr $C$DW$116, DW_AT_name("f")
    2457                            .dwattr $C$DW$116, DW_AT_TI_symbol_name("f")
    2458                            .dwattr $C$DW$116, DW_AT_type(*$C$DW$T$16)
    2459                            .dwattr $C$DW$116, DW_AT_location[DW_OP_breg13 0]
    2460                    
    2461                    ;----------------------------------------------------------------------
    2462                    ; 366 | { return __FLOAT_SIGN_BIT_ZERO(f) == 0; }                              
    2463                    ;----------------------------------------------------------------------
    2464 00000004 0A00ED8D          VSTR.32   S0, [SP, #0]          ; [DPU_MERLIN_PIPE] |366|  ; [KEEP 32-BIT INS]
    2465                            .dwpsn  file "C:/ti/ccs1230/ccs/tools/compiler/ti-cgt-arm_20.2.7.LTS/include/_defs.h",line 366
    2466 00000008 9A00              LDR       A3, [SP, #0]          ; [DPU_V7M3_PIPE] |366|  ; [ORIG 16-BIT INS]
    2467 0000000a 2000              MOVS      A1, #0                ; [DPU_V7M3_PIPE] |366|  ; [ORIG 16-BIT INS]
    2468 0000000c 2100              MOVS      A2, #0                ; [DPU_V7M3_PIPE] |366|  ; [ORIG 16-BIT INS]
    2469 0000000e 0812              LSRS      A3, A3, #32           ; [DPU_V7M3_PIPE] |366|  ; [ORIG 16-BIT INS]
    2470 00000010 D200              BCS       ||$C$L29||            ; [DPU_V7M3_PIPE] |366|  ; [ORIG 16-BIT INS]
    2471                            ; BRANCHCC OCCURS {||$C$L29||}   ; [] |366| 
    2472                    ;* --------------------------------------------------------------------------*
    2473 00000012 2101              MOVS      A2, #1                ; [DPU_V7M3_PIPE] |366|  ; [ORIG 16-BIT INS]
    2474                    ;* --------------------------------------------------------------------------*
    2475 00000014           ||$C$L29||:    
TI ARM Assembler PC v20.2.7 Wed Feb 19 20:53:45 2025

Copyright (c) 1996-2018 Texas Instruments Incorporated
MAIN.asm                                                             PAGE   46

    2476 00000014 B901              CBNZ      A2, ||$C$L30||        ; []  ; [ORIG 16-BIT INS]
    2477                            ; BRANCHCC OCCURS {||$C$L30||}   ; [] |366| 
    2478                    ;* --------------------------------------------------------------------------*
    2479 00000016 2001              MOVS      A1, #1                ; [DPU_V7M3_PIPE] |366|  ; [ORIG 16-BIT INS]
    2480                    ;* --------------------------------------------------------------------------*
    2481 00000018           ||$C$L30||:    
    2482                            .dwpsn  file "C:/ti/ccs1230/ccs/tools/compiler/ti-cgt-arm_20.2.7.LTS/include/_defs.h",line 366
    2483 00000018 B002              ADD       SP, SP, #8            ; [DPU_V7M3_PIPE]  ; [ORIG 16-BIT INS]
    2484                            .dwcfi  cfa_offset, 0
    2485                    $C$DW$117       .dwtag  DW_TAG_TI_branch
    2486                            .dwattr $C$DW$117, DW_AT_low_pc(0x00)
    2487                            .dwattr $C$DW$117, DW_AT_TI_return
    2488                    
    2489 0000001a 4770              BX        LR                    ; [DPU_V7M3_PIPE]  ; [ORIG 16-BIT INS]
    2490                            ; BRANCH OCCURS                  ; [] 
    2491                            .dwattr $C$DW$114, DW_AT_TI_end_file("C:/ti/ccs1230/ccs/tools/compiler/ti-cgt-arm_20.2.7.LTS/i
    2492                            .dwattr $C$DW$114, DW_AT_TI_end_line(0x16e)
    2493                            .dwattr $C$DW$114, DW_AT_TI_end_column(0x29)
    2494                            .dwendentry
    2495                            .dwendtag $C$DW$114
    2496                    
    2497 00000000                   .sect   ".text:__signbitl"
    2498                            .clink
    2499                            .thumbfunc __signbitl
    2500 00000000                   .thumb
    2501                            .global __signbitl
    2502                    
    2503                    $C$DW$118       .dwtag  DW_TAG_subprogram
    2504                            .dwattr $C$DW$118, DW_AT_name("__signbitl")
    2505                            .dwattr $C$DW$118, DW_AT_low_pc(__signbitl)
    2506                            .dwattr $C$DW$118, DW_AT_high_pc(0x00)
    2507                            .dwattr $C$DW$118, DW_AT_TI_symbol_name("__signbitl")
    2508                            .dwattr $C$DW$118, DW_AT_external
    2509                            .dwattr $C$DW$118, DW_AT_type(*$C$DW$T$10)
    2510                            .dwattr $C$DW$118, DW_AT_TI_begin_file("C:/ti/ccs1230/ccs/tools/compiler/ti-cgt-arm_20.2.7.LTS
    2511                            .dwattr $C$DW$118, DW_AT_TI_begin_line(0x16f)
    2512                            .dwattr $C$DW$118, DW_AT_TI_begin_column(0x25)
    2513                            .dwattr $C$DW$118, DW_AT_decl_file("C:/ti/ccs1230/ccs/tools/compiler/ti-cgt-arm_20.2.7.LTS/inc
    2514                            .dwattr $C$DW$118, DW_AT_decl_line(0x16f)
    2515                            .dwattr $C$DW$118, DW_AT_decl_column(0x25)
    2516                            .dwattr $C$DW$118, DW_AT_TI_max_frame_size(0x20)
    2517                            .dwpsn  file "C:/ti/ccs1230/ccs/tools/compiler/ti-cgt-arm_20.2.7.LTS/include/_defs.h",line 368
    2518                    
    2519                            .dwfde $C$DW$CIE, __signbitl
    2520                    $C$DW$119       .dwtag  DW_TAG_formal_parameter
    2521                            .dwattr $C$DW$119, DW_AT_name("e")
    2522                            .dwattr $C$DW$119, DW_AT_TI_symbol_name("e")
    2523                            .dwattr $C$DW$119, DW_AT_type(*$C$DW$T$18)
    2524                            .dwattr $C$DW$119, DW_AT_location[DW_OP_regx 0x40]
    2525                    
    2526                    ;----------------------------------------------------------------------
    2527                    ; 367 | _CODE_ACCESS _INLINE_DEFINITION int __signbitl(long double e)          
    2528                    ;----------------------------------------------------------------------
    2529                    
    2530                    ;*****************************************************************************
TI ARM Assembler PC v20.2.7 Wed Feb 19 20:53:45 2025

Copyright (c) 1996-2018 Texas Instruments Incorporated
MAIN.asm                                                             PAGE   47

    2531                    ;* FUNCTION NAME: __signbitl                                                 *
    2532                    ;*                                                                           *
    2533                    ;*   Regs Modified     : A1,A2,A3,A4,V1,V2,V3,V4,SP,SR                       *
    2534                    ;*   Regs Used         : A1,A2,A3,A4,V1,V2,V3,V4,SP,LR,SR,D0,D0_hi           *
    2535                    ;*   Local Frame Size  : 0 Args + 8 Auto + 20 Save = 28 byte                 *
    2536                    ;*****************************************************************************
    2537 00000000           __signbitl:
    2538                    ;* --------------------------------------------------------------------------*
    2539                            .dwcfi  cfa_offset, 0
    2540 00000000 B5FE              PUSH      {A2, A3, A4, V1, V2, V3, V4, LR} ; [DPU_V7M3_PIPE]  ; [ORIG 16-BIT INS]
    2541                            .dwcfi  cfa_offset, 32
    2542                            .dwcfi  save_reg_to_mem, 14, -4
    2543                            .dwcfi  save_reg_to_mem, 7, -8
    2544                            .dwcfi  save_reg_to_mem, 6, -12
    2545                            .dwcfi  save_reg_to_mem, 5, -16
    2546                            .dwcfi  save_reg_to_mem, 4, -20
    2547                            .dwcfi  save_reg_to_mem, 3, -24
    2548                            .dwcfi  save_reg_to_mem, 2, -28
    2549                            .dwcfi  save_reg_to_mem, 1, -32
    2550                    $C$DW$120       .dwtag  DW_TAG_variable
    2551                            .dwattr $C$DW$120, DW_AT_name("e")
    2552                            .dwattr $C$DW$120, DW_AT_TI_symbol_name("e")
    2553                            .dwattr $C$DW$120, DW_AT_type(*$C$DW$T$18)
    2554                            .dwattr $C$DW$120, DW_AT_location[DW_OP_breg13 0]
    2555                    
    2556                    ;----------------------------------------------------------------------
    2557                    ; 368 | { return __LDOUBLE_SIGN_BIT_ZERO(e) == 0; }                            
    2558                    ;----------------------------------------------------------------------
    2559 00000002 0B10EC51          VMOV      A1,A2, D0             ; [DPU_MERLIN_PIPE] |368|  ; [KEEP 32-BIT INS]
    2560 00000006 0003E88D          STMIA     SP, {A1,A2}           ; [DPU_V7M3_PIPE] |368|  ; [KEEP 32-BIT INS]
    2561                            .dwpsn  file "C:/ti/ccs1230/ccs/tools/compiler/ti-cgt-arm_20.2.7.LTS/include/_defs.h",line 368
    2562 0000000a 0006E89D          LDMIA     SP, {A2,A3}           ; [DPU_V7M3_PIPE] |368|  ; [KEEP 32-BIT INS]
    2563 0000000e 4611              MOV       A2, A3                ; [DPU_V7M3_PIPE] |368|  ; [ORIG 16-BIT INS]
    2564 00000010 000CE89D          LDMIA     SP, {A3,A4}           ; [DPU_V7M3_PIPE] |368|  ; [KEEP 32-BIT INS]
    2565 00000014 2500              MOVS      V2, #0                ; [DPU_V7M3_PIPE] |368|  ; [ORIG 16-BIT INS]
    2566 00000016 4600F04F          MOV       V3, #-2147483648      ; [DPU_V7M3_PIPE] |368|  ; [KEEP 32-BIT INS]
    2567 0000001a 2700              MOVS      V4, #0                ; [DPU_V7M3_PIPE] |368|  ; [ORIG 16-BIT INS]
    2568 0000001c 2000              MOVS      A1, #0                ; [DPU_V7M3_PIPE] |368|  ; [ORIG 16-BIT INS]
    2569 0000001e 000C              LSLS      V1, A2, #0            ; [DPU_V7M3_PIPE] |368|  ; [ORIG 16-BIT INS]
    2570 00000020 2100              MOVS      A2, #0                ; [DPU_V7M3_PIPE] |368|  ; [ORIG 16-BIT INS]
    2571 00000022 4321              ORRS      A2, A2, V1            ; [DPU_V7M3_PIPE] |368|  ; [ORIG 16-BIT INS]
    2572 00000024 2300              MOVS      A4, #0                ; [DPU_V7M3_PIPE] |368|  ; [ORIG 16-BIT INS]
    2573 00000026 432A              ORRS      A3, A3, V2            ; [DPU_V7M3_PIPE] |368|  ; [ORIG 16-BIT INS]
    2574 00000028 400E              ANDS      V3, V3, A2            ; [DPU_V7M3_PIPE] |368|  ; [ORIG 16-BIT INS]
    2575 0000002a 0302EA03          AND       A4, A4, A3            ; [DPU_V7M3_PIPE] |368|  ; [KEEP 32-BIT INS]
    2576 0000002e D100              BNE       ||$C$L31||            ; [DPU_V7M3_PIPE] |368|  ; [ORIG 16-BIT INS]
    2577                            ; BRANCHCC OCCURS {||$C$L31||}   ; [] |368| 
    2578                    ;* --------------------------------------------------------------------------*
    2579 00000030 2B00              CMP       A4, #0                ; [DPU_V7M3_PIPE] |368|  ; [ORIG 16-BIT INS]
    2580                    ;* --------------------------------------------------------------------------*
    2581 00000032           ||$C$L31||:    
    2582 00000032 D100              BNE       ||$C$L32||            ; [DPU_V7M3_PIPE] |368|  ; [ORIG 16-BIT INS]
    2583                            ; BRANCHCC OCCURS {||$C$L32||}   ; [] |368| 
    2584                    ;* --------------------------------------------------------------------------*
    2585 00000034 2701              MOVS      V4, #1                ; [DPU_V7M3_PIPE] |368|  ; [ORIG 16-BIT INS]
TI ARM Assembler PC v20.2.7 Wed Feb 19 20:53:45 2025

Copyright (c) 1996-2018 Texas Instruments Incorporated
MAIN.asm                                                             PAGE   48

    2586                    ;* --------------------------------------------------------------------------*
    2587 00000036           ||$C$L32||:    
    2588 00000036 B907              CBNZ      V4, ||$C$L33||        ; []  ; [ORIG 16-BIT INS]
    2589                            ; BRANCHCC OCCURS {||$C$L33||}   ; [] |368| 
    2590                    ;* --------------------------------------------------------------------------*
    2591 00000038 2001              MOVS      A1, #1                ; [DPU_V7M3_PIPE] |368|  ; [ORIG 16-BIT INS]
    2592                    ;* --------------------------------------------------------------------------*
    2593 0000003a           ||$C$L33||:    
    2594                            .dwpsn  file "C:/ti/ccs1230/ccs/tools/compiler/ti-cgt-arm_20.2.7.LTS/include/_defs.h",line 368
    2595                    $C$DW$121       .dwtag  DW_TAG_TI_branch
    2596                            .dwattr $C$DW$121, DW_AT_low_pc(0x00)
    2597                            .dwattr $C$DW$121, DW_AT_TI_return
    2598                    
    2599 0000003a BDFE              POP       {A2, A3, A4, V1, V2, V3, V4, PC} ; [DPU_V7M3_PIPE]  ; [ORIG 16-BIT INS]
    2600                            .dwcfi  cfa_offset, 0
    2601                            .dwcfi  restore_reg, 7
    2602                            .dwcfi  restore_reg, 6
    2603                            .dwcfi  restore_reg, 5
    2604                            .dwcfi  restore_reg, 4
    2605                            .dwcfi  restore_reg, 3
    2606                            .dwcfi  restore_reg, 2
    2607                            .dwcfi  restore_reg, 1
    2608                            ; BRANCH OCCURS                  ; [] 
    2609                            .dwattr $C$DW$118, DW_AT_TI_end_file("C:/ti/ccs1230/ccs/tools/compiler/ti-cgt-arm_20.2.7.LTS/i
    2610                            .dwattr $C$DW$118, DW_AT_TI_end_line(0x170)
    2611                            .dwattr $C$DW$118, DW_AT_TI_end_column(0x2b)
    2612                            .dwendentry
    2613                            .dwendtag $C$DW$118
    2614                    
    2615 00000000                   .sect   ".text:__isinff"
    2616                            .clink
    2617                            .thumbfunc __isinff
    2618 00000000                   .thumb
    2619                            .global __isinff
    2620                    
    2621                    $C$DW$122       .dwtag  DW_TAG_subprogram
    2622                            .dwattr $C$DW$122, DW_AT_name("__isinff")
    2623                            .dwattr $C$DW$122, DW_AT_low_pc(__isinff)
    2624                            .dwattr $C$DW$122, DW_AT_high_pc(0x00)
    2625                            .dwattr $C$DW$122, DW_AT_TI_symbol_name("__isinff")
    2626                            .dwattr $C$DW$122, DW_AT_external
    2627                            .dwattr $C$DW$122, DW_AT_type(*$C$DW$T$10)
    2628                            .dwattr $C$DW$122, DW_AT_TI_begin_file("C:/ti/ccs1230/ccs/tools/compiler/ti-cgt-arm_20.2.7.LTS
    2629                            .dwattr $C$DW$122, DW_AT_TI_begin_line(0x176)
    2630                            .dwattr $C$DW$122, DW_AT_TI_begin_column(0x25)
    2631                            .dwattr $C$DW$122, DW_AT_decl_file("C:/ti/ccs1230/ccs/tools/compiler/ti-cgt-arm_20.2.7.LTS/inc
    2632                            .dwattr $C$DW$122, DW_AT_decl_line(0x176)
    2633                            .dwattr $C$DW$122, DW_AT_decl_column(0x25)
    2634                            .dwattr $C$DW$122, DW_AT_TI_max_frame_size(0x08)
    2635                            .dwpsn  file "C:/ti/ccs1230/ccs/tools/compiler/ti-cgt-arm_20.2.7.LTS/include/_defs.h",line 375
    2636                    
    2637                            .dwfde $C$DW$CIE, __isinff
    2638                    $C$DW$123       .dwtag  DW_TAG_formal_parameter
    2639                            .dwattr $C$DW$123, DW_AT_name("f")
    2640                            .dwattr $C$DW$123, DW_AT_TI_symbol_name("f")
TI ARM Assembler PC v20.2.7 Wed Feb 19 20:53:45 2025

Copyright (c) 1996-2018 Texas Instruments Incorporated
MAIN.asm                                                             PAGE   49

    2641                            .dwattr $C$DW$123, DW_AT_type(*$C$DW$T$16)
    2642                            .dwattr $C$DW$123, DW_AT_location[DW_OP_regx 0x40]
    2643                    
    2644                    ;----------------------------------------------------------------------
    2645                    ; 374 | _CODE_ACCESS _INLINE_DEFINITION int __isinff(float f)                  
    2646                    ;----------------------------------------------------------------------
    2647                    
    2648                    ;*****************************************************************************
    2649                    ;* FUNCTION NAME: __isinff                                                   *
    2650                    ;*                                                                           *
    2651                    ;*   Regs Modified     : A1,A2,SP,SR                                         *
    2652                    ;*   Regs Used         : A1,A2,SP,LR,SR,D0                                   *
    2653                    ;*   Local Frame Size  : 0 Args + 4 Auto + 0 Save = 4 byte                   *
    2654                    ;*****************************************************************************
    2655 00000000           __isinff:
    2656                    ;* --------------------------------------------------------------------------*
    2657                            .dwcfi  cfa_offset, 0
    2658 00000000 0D08F1AD          SUB       SP, SP, #8            ; [DPU_V7M3_PIPE]  ; [KEEP 32-BIT INS]
    2659                            .dwcfi  cfa_offset, 8
    2660                    $C$DW$124       .dwtag  DW_TAG_variable
    2661                            .dwattr $C$DW$124, DW_AT_name("f")
    2662                            .dwattr $C$DW$124, DW_AT_TI_symbol_name("f")
    2663                            .dwattr $C$DW$124, DW_AT_type(*$C$DW$T$16)
    2664                            .dwattr $C$DW$124, DW_AT_location[DW_OP_breg13 0]
    2665                    
    2666                    ;----------------------------------------------------------------------
    2667                    ; 375 | { return __FLOAT_BIASED_EXP_IS_MAX(f) && __FLOAT_FRAC_PART_IS_ZERO(f);
    2668                    ;     | }                                                                      
    2669                    ;----------------------------------------------------------------------
    2670 00000004 0A00ED8D          VSTR.32   S0, [SP, #0]          ; [DPU_MERLIN_PIPE] |375|  ; [KEEP 32-BIT INS]
    2671                            .dwpsn  file "C:/ti/ccs1230/ccs/tools/compiler/ti-cgt-arm_20.2.7.LTS/include/_defs.h",line 375
    2672 00000008 9800              LDR       A1, [SP, #0]          ; [DPU_V7M3_PIPE] |375|  ; [ORIG 16-BIT INS]
    2673 0000000a 2100              MOVS      A2, #0                ; [DPU_V7M3_PIPE] |375|  ; [ORIG 16-BIT INS]
    2674 0000000c 0C00              LSRS      A1, A1, #16           ; [DPU_V7M3_PIPE] |375|  ; [ORIG 16-BIT INS]
    2675 0000000e 40FFF400          AND       A1, A1, #32640        ; [DPU_V7M3_PIPE] |375|  ; [KEEP 32-BIT INS]
    2676 00000012 4FFFF5B0          CMP       A1, #32640            ; [DPU_V7M3_PIPE] |375|  ; [KEEP 32-BIT INS]
    2677 00000016 D104              BNE       ||$C$L34||            ; [DPU_V7M3_PIPE] |375|  ; [ORIG 16-BIT INS]
    2678                            ; BRANCHCC OCCURS {||$C$L34||}   ; [] |375| 
    2679                    ;* --------------------------------------------------------------------------*
    2680 00000018 9800              LDR       A1, [SP, #0]          ; [DPU_V7M3_PIPE] |375|  ; [ORIG 16-BIT INS]
    2681 0000001a 50DFF36F          BFC       A1, #23, #9           ; [DPU_V7M3_PIPE] |375|  ; [KEEP 32-BIT INS]
    2682 0000001e B900              CBNZ      A1, ||$C$L34||        ; []  ; [ORIG 16-BIT INS]
    2683                            ; BRANCHCC OCCURS {||$C$L34||}   ; [] |375| 
    2684                    ;* --------------------------------------------------------------------------*
    2685 00000020 2101              MOVS      A2, #1                ; [DPU_V7M3_PIPE] |375|  ; [ORIG 16-BIT INS]
    2686                    ;* --------------------------------------------------------------------------*
    2687 00000022           ||$C$L34||:    
    2688 00000022 4608              MOV       A1, A2                ; [DPU_V7M3_PIPE] |375|  ; [ORIG 16-BIT INS]
    2689                            .dwpsn  file "C:/ti/ccs1230/ccs/tools/compiler/ti-cgt-arm_20.2.7.LTS/include/_defs.h",line 375
    2690 00000024 B002              ADD       SP, SP, #8            ; [DPU_V7M3_PIPE]  ; [ORIG 16-BIT INS]
    2691                            .dwcfi  cfa_offset, 0
    2692                    $C$DW$125       .dwtag  DW_TAG_TI_branch
    2693                            .dwattr $C$DW$125, DW_AT_low_pc(0x00)
    2694                            .dwattr $C$DW$125, DW_AT_TI_return
    2695                    
TI ARM Assembler PC v20.2.7 Wed Feb 19 20:53:45 2025

Copyright (c) 1996-2018 Texas Instruments Incorporated
MAIN.asm                                                             PAGE   50

    2696 00000026 4770              BX        LR                    ; [DPU_V7M3_PIPE]  ; [ORIG 16-BIT INS]
    2697                            ; BRANCH OCCURS                  ; [] 
    2698                            .dwattr $C$DW$122, DW_AT_TI_end_file("C:/ti/ccs1230/ccs/tools/compiler/ti-cgt-arm_20.2.7.LTS/i
    2699                            .dwattr $C$DW$122, DW_AT_TI_end_line(0x177)
    2700                            .dwattr $C$DW$122, DW_AT_TI_end_column(0x48)
    2701                            .dwendentry
    2702                            .dwendtag $C$DW$122
    2703                    
    2704 00000000                   .sect   ".text:__isinf"
    2705                            .clink
    2706                            .thumbfunc __isinf
    2707 00000000                   .thumb
    2708                            .global __isinf
    2709                    
    2710                    $C$DW$126       .dwtag  DW_TAG_subprogram
    2711                            .dwattr $C$DW$126, DW_AT_name("__isinf")
    2712                            .dwattr $C$DW$126, DW_AT_low_pc(__isinf)
    2713                            .dwattr $C$DW$126, DW_AT_high_pc(0x00)
    2714                            .dwattr $C$DW$126, DW_AT_TI_symbol_name("__isinf")
    2715                            .dwattr $C$DW$126, DW_AT_external
    2716                            .dwattr $C$DW$126, DW_AT_type(*$C$DW$T$10)
    2717                            .dwattr $C$DW$126, DW_AT_TI_begin_file("C:/ti/ccs1230/ccs/tools/compiler/ti-cgt-arm_20.2.7.LTS
    2718                            .dwattr $C$DW$126, DW_AT_TI_begin_line(0x178)
    2719                            .dwattr $C$DW$126, DW_AT_TI_begin_column(0x25)
    2720                            .dwattr $C$DW$126, DW_AT_decl_file("C:/ti/ccs1230/ccs/tools/compiler/ti-cgt-arm_20.2.7.LTS/inc
    2721                            .dwattr $C$DW$126, DW_AT_decl_line(0x178)
    2722                            .dwattr $C$DW$126, DW_AT_decl_column(0x25)
    2723                            .dwattr $C$DW$126, DW_AT_TI_max_frame_size(0x18)
    2724                            .dwpsn  file "C:/ti/ccs1230/ccs/tools/compiler/ti-cgt-arm_20.2.7.LTS/include/_defs.h",line 377
    2725                    
    2726                            .dwfde $C$DW$CIE, __isinf
    2727                    $C$DW$127       .dwtag  DW_TAG_formal_parameter
    2728                            .dwattr $C$DW$127, DW_AT_name("d")
    2729                            .dwattr $C$DW$127, DW_AT_TI_symbol_name("d")
    2730                            .dwattr $C$DW$127, DW_AT_type(*$C$DW$T$17)
    2731                            .dwattr $C$DW$127, DW_AT_location[DW_OP_regx 0x40]
    2732                    
    2733                    ;----------------------------------------------------------------------
    2734                    ; 376 | _CODE_ACCESS _INLINE_DEFINITION int __isinf (double d)                 
    2735                    ;----------------------------------------------------------------------
    2736                    
    2737                    ;*****************************************************************************
    2738                    ;* FUNCTION NAME: __isinf                                                    *
    2739                    ;*                                                                           *
    2740                    ;*   Regs Modified     : A1,A2,A3,A4,V1,V2,V4,SP,SR                          *
    2741                    ;*   Regs Used         : A1,A2,A3,A4,V1,V2,V4,SP,LR,SR,D0,D0_hi              *
    2742                    ;*   Local Frame Size  : 0 Args + 8 Auto + 16 Save = 24 byte                 *
    2743                    ;*****************************************************************************
    2744 00000000           __isinf:
    2745                    ;* --------------------------------------------------------------------------*
    2746                            .dwcfi  cfa_offset, 0
    2747 00000000 B5BC              PUSH      {A3, A4, V1, V2, V4, LR} ; [DPU_V7M3_PIPE]  ; [ORIG 16-BIT INS]
    2748                            .dwcfi  cfa_offset, 24
    2749                            .dwcfi  save_reg_to_mem, 14, -4
    2750                            .dwcfi  save_reg_to_mem, 7, -8
TI ARM Assembler PC v20.2.7 Wed Feb 19 20:53:45 2025

Copyright (c) 1996-2018 Texas Instruments Incorporated
MAIN.asm                                                             PAGE   51

    2751                            .dwcfi  save_reg_to_mem, 5, -12
    2752                            .dwcfi  save_reg_to_mem, 4, -16
    2753                            .dwcfi  save_reg_to_mem, 3, -20
    2754                            .dwcfi  save_reg_to_mem, 2, -24
    2755                    $C$DW$128       .dwtag  DW_TAG_variable
    2756                            .dwattr $C$DW$128, DW_AT_name("d")
    2757                            .dwattr $C$DW$128, DW_AT_TI_symbol_name("d")
    2758                            .dwattr $C$DW$128, DW_AT_type(*$C$DW$T$17)
    2759                            .dwattr $C$DW$128, DW_AT_location[DW_OP_breg13 0]
    2760                    
    2761                    ;----------------------------------------------------------------------
    2762                    ; 377 | { return __DOUBLE_BIASED_EXP_IS_MAX(d) && __DOUBLE_FRAC_PART_IS_ZERO(d)
    2763                    ;     | ; }                                                                    
    2764                    ;----------------------------------------------------------------------
    2765 00000002 0B10EC51          VMOV      A1,A2, D0             ; [DPU_MERLIN_PIPE] |377|  ; [KEEP 32-BIT INS]
    2766 00000006 0003E88D          STMIA     SP, {A1,A2}           ; [DPU_V7M3_PIPE] |377|  ; [KEEP 32-BIT INS]
    2767                            .dwpsn  file "C:/ti/ccs1230/ccs/tools/compiler/ti-cgt-arm_20.2.7.LTS/include/_defs.h",line 377
    2768 0000000a 0006E89D          LDMIA     SP, {A2,A3}           ; [DPU_V7M3_PIPE] |377|  ; [KEEP 32-BIT INS]
    2769 0000000e 2000              MOVS      A1, #0                ; [DPU_V7M3_PIPE] |377|  ; [ORIG 16-BIT INS]
    2770 00000010 4611              MOV       A2, A3                ; [DPU_V7M3_PIPE] |377|  ; [ORIG 16-BIT INS]
    2771 00000012 000A              LSLS      A3, A2, #0            ; [DPU_V7M3_PIPE] |377|  ; [ORIG 16-BIT INS]
    2772 00000014 2100              MOVS      A2, #0                ; [DPU_V7M3_PIPE] |377|  ; [ORIG 16-BIT INS]
    2773 00000016 4311              ORRS      A2, A2, A3            ; [DPU_V7M3_PIPE] |377|  ; [ORIG 16-BIT INS]
    2774 00000018 0C0A              LSRS      A3, A2, #16           ; [DPU_V7M3_PIPE] |377|  ; [ORIG 16-BIT INS]
    2775 0000001a 71F0F647          MOV       A2, #32752            ; [DPU_V7M3_PIPE] |377|  ; [KEEP 32-BIT INS]
    2776 0000001e 4011              ANDS      A2, A2, A3            ; [DPU_V7M3_PIPE] |377|  ; [ORIG 16-BIT INS]
    2777 00000020 72F0F647          MOV       A3, #32752            ; [DPU_V7M3_PIPE] |377|  ; [KEEP 32-BIT INS]
    2778 00000024 428A              CMP       A3, A2                ; [DPU_V7M3_PIPE] |377|  ; [ORIG 16-BIT INS]
    2779 00000026 D112              BNE       ||$C$L36||            ; [DPU_V7M3_PIPE] |377|  ; [ORIG 16-BIT INS]
    2780                            ; BRANCHCC OCCURS {||$C$L36||}   ; [] |377| 
    2781                    ;* --------------------------------------------------------------------------*
    2782 00000028 0006E89D          LDMIA     SP, {A2,A3}           ; [DPU_V7M3_PIPE] |377|  ; [KEEP 32-BIT INS]
    2783 0000002c 4F08              LDR       V4, $C$CON3           ; [DPU_V7M3_PIPE] |377|  ; [ORIG 16-BIT INS]
    2784 0000002e 4611              MOV       A2, A3                ; [DPU_V7M3_PIPE] |377|  ; [ORIG 16-BIT INS]
    2785 00000030 000CE89D          LDMIA     SP, {A3,A4}           ; [DPU_V7M3_PIPE] |377|  ; [KEEP 32-BIT INS]
    2786 00000034 2500              MOVS      V2, #0                ; [DPU_V7M3_PIPE] |377|  ; [ORIG 16-BIT INS]
    2787 00000036 000C              LSLS      V1, A2, #0            ; [DPU_V7M3_PIPE] |377|  ; [ORIG 16-BIT INS]
    2788 00000038 2100              MOVS      A2, #0                ; [DPU_V7M3_PIPE] |377|  ; [ORIG 16-BIT INS]
    2789 0000003a 33FFF04F          MOV       A4, #-1               ; [DPU_V7M3_PIPE] |377|  ; [KEEP 32-BIT INS]
    2790 0000003e 432A              ORRS      A3, A3, V2            ; [DPU_V7M3_PIPE] |377|  ; [ORIG 16-BIT INS]
    2791 00000040 4321              ORRS      A2, A2, V1            ; [DPU_V7M3_PIPE] |377|  ; [ORIG 16-BIT INS]
    2792 00000042 4013              ANDS      A4, A4, A3            ; [DPU_V7M3_PIPE] |377|  ; [ORIG 16-BIT INS]
    2793 00000044 400F              ANDS      V4, V4, A2            ; [DPU_V7M3_PIPE] |377|  ; [ORIG 16-BIT INS]
    2794 00000046 D100              BNE       ||$C$L35||            ; [DPU_V7M3_PIPE] |377|  ; [ORIG 16-BIT INS]
    2795                            ; BRANCHCC OCCURS {||$C$L35||}   ; [] |377| 
    2796                    ;* --------------------------------------------------------------------------*
    2797 00000048 2B00              CMP       A4, #0                ; [DPU_V7M3_PIPE] |377|  ; [ORIG 16-BIT INS]
    2798                    ;* --------------------------------------------------------------------------*
    2799 0000004a           ||$C$L35||:    
    2800 0000004a D100              BNE       ||$C$L36||            ; [DPU_V7M3_PIPE] |377|  ; [ORIG 16-BIT INS]
    2801                            ; BRANCHCC OCCURS {||$C$L36||}   ; [] |377| 
    2802                    ;* --------------------------------------------------------------------------*
    2803 0000004c 2001              MOVS      A1, #1                ; [DPU_V7M3_PIPE] |377|  ; [ORIG 16-BIT INS]
    2804                    ;* --------------------------------------------------------------------------*
    2805 0000004e           ||$C$L36||:    
TI ARM Assembler PC v20.2.7 Wed Feb 19 20:53:45 2025

Copyright (c) 1996-2018 Texas Instruments Incorporated
MAIN.asm                                                             PAGE   52

    2806                            .dwpsn  file "C:/ti/ccs1230/ccs/tools/compiler/ti-cgt-arm_20.2.7.LTS/include/_defs.h",line 377
    2807                    $C$DW$129       .dwtag  DW_TAG_TI_branch
    2808                            .dwattr $C$DW$129, DW_AT_low_pc(0x00)
    2809                            .dwattr $C$DW$129, DW_AT_TI_return
    2810                    
    2811 0000004e BDBC              POP       {A3, A4, V1, V2, V4, PC} ; [DPU_V7M3_PIPE]  ; [ORIG 16-BIT INS]
    2812                            .dwcfi  cfa_offset, 0
    2813                            .dwcfi  restore_reg, 7
    2814                            .dwcfi  restore_reg, 5
    2815                            .dwcfi  restore_reg, 4
    2816                            .dwcfi  restore_reg, 3
    2817                            .dwcfi  restore_reg, 2
    2818                            ; BRANCH OCCURS                  ; [] 
    2819                            .dwattr $C$DW$126, DW_AT_TI_end_file("C:/ti/ccs1230/ccs/tools/compiler/ti-cgt-arm_20.2.7.LTS/i
    2820                            .dwattr $C$DW$126, DW_AT_TI_end_line(0x179)
    2821                            .dwattr $C$DW$126, DW_AT_TI_end_column(0x4a)
    2822                            .dwendentry
    2823                            .dwendtag $C$DW$126
    2824                    
    2825 00000000                   .sect   ".text:__isinfl"
    2826                            .clink
    2827                            .thumbfunc __isinfl
    2828 00000000                   .thumb
    2829                            .global __isinfl
    2830                    
    2831                    $C$DW$130       .dwtag  DW_TAG_subprogram
    2832                            .dwattr $C$DW$130, DW_AT_name("__isinfl")
    2833                            .dwattr $C$DW$130, DW_AT_low_pc(__isinfl)
    2834                            .dwattr $C$DW$130, DW_AT_high_pc(0x00)
    2835                            .dwattr $C$DW$130, DW_AT_TI_symbol_name("__isinfl")
    2836                            .dwattr $C$DW$130, DW_AT_external
    2837                            .dwattr $C$DW$130, DW_AT_type(*$C$DW$T$10)
    2838                            .dwattr $C$DW$130, DW_AT_TI_begin_file("C:/ti/ccs1230/ccs/tools/compiler/ti-cgt-arm_20.2.7.LTS
    2839                            .dwattr $C$DW$130, DW_AT_TI_begin_line(0x17a)
    2840                            .dwattr $C$DW$130, DW_AT_TI_begin_column(0x25)
    2841                            .dwattr $C$DW$130, DW_AT_decl_file("C:/ti/ccs1230/ccs/tools/compiler/ti-cgt-arm_20.2.7.LTS/inc
    2842                            .dwattr $C$DW$130, DW_AT_decl_line(0x17a)
    2843                            .dwattr $C$DW$130, DW_AT_decl_column(0x25)
    2844                            .dwattr $C$DW$130, DW_AT_TI_max_frame_size(0x18)
    2845                            .dwpsn  file "C:/ti/ccs1230/ccs/tools/compiler/ti-cgt-arm_20.2.7.LTS/include/_defs.h",line 379
    2846                    
    2847                            .dwfde $C$DW$CIE, __isinfl
    2848                    $C$DW$131       .dwtag  DW_TAG_formal_parameter
    2849                            .dwattr $C$DW$131, DW_AT_name("e")
    2850                            .dwattr $C$DW$131, DW_AT_TI_symbol_name("e")
    2851                            .dwattr $C$DW$131, DW_AT_type(*$C$DW$T$18)
    2852                            .dwattr $C$DW$131, DW_AT_location[DW_OP_regx 0x40]
    2853                    
    2854                    ;----------------------------------------------------------------------
    2855                    ; 378 | _CODE_ACCESS _INLINE_DEFINITION int __isinfl(long double e)            
    2856                    ;----------------------------------------------------------------------
    2857                    
    2858                    ;*****************************************************************************
    2859                    ;* FUNCTION NAME: __isinfl                                                   *
    2860                    ;*                                                                           *
TI ARM Assembler PC v20.2.7 Wed Feb 19 20:53:45 2025

Copyright (c) 1996-2018 Texas Instruments Incorporated
MAIN.asm                                                             PAGE   53

    2861                    ;*   Regs Modified     : A1,A2,A3,A4,V1,V2,V4,SP,SR                          *
    2862                    ;*   Regs Used         : A1,A2,A3,A4,V1,V2,V4,SP,LR,SR,D0,D0_hi              *
    2863                    ;*   Local Frame Size  : 0 Args + 8 Auto + 16 Save = 24 byte                 *
    2864                    ;*****************************************************************************
    2865 00000000           __isinfl:
    2866                    ;* --------------------------------------------------------------------------*
    2867                            .dwcfi  cfa_offset, 0
    2868 00000000 B5BC              PUSH      {A3, A4, V1, V2, V4, LR} ; [DPU_V7M3_PIPE]  ; [ORIG 16-BIT INS]
    2869                            .dwcfi  cfa_offset, 24
    2870                            .dwcfi  save_reg_to_mem, 14, -4
    2871                            .dwcfi  save_reg_to_mem, 7, -8
    2872                            .dwcfi  save_reg_to_mem, 5, -12
    2873                            .dwcfi  save_reg_to_mem, 4, -16
    2874                            .dwcfi  save_reg_to_mem, 3, -20
    2875                            .dwcfi  save_reg_to_mem, 2, -24
    2876                    $C$DW$132       .dwtag  DW_TAG_variable
    2877                            .dwattr $C$DW$132, DW_AT_name("e")
    2878                            .dwattr $C$DW$132, DW_AT_TI_symbol_name("e")
    2879                            .dwattr $C$DW$132, DW_AT_type(*$C$DW$T$18)
    2880                            .dwattr $C$DW$132, DW_AT_location[DW_OP_breg13 0]
    2881                    
    2882                    ;----------------------------------------------------------------------
    2883                    ; 379 | { return __LDOUBLE_BIASED_EXP_IS_MAX(e) && __LDOUBLE_FRAC_PART_IS_ZERO(
    2884                    ;     | e); }                                                                  
    2885                    ;----------------------------------------------------------------------
    2886 00000002 0B10EC51          VMOV      A1,A2, D0             ; [DPU_MERLIN_PIPE] |379|  ; [KEEP 32-BIT INS]
    2887 00000006 0003E88D          STMIA     SP, {A1,A2}           ; [DPU_V7M3_PIPE] |379|  ; [KEEP 32-BIT INS]
    2888                            .dwpsn  file "C:/ti/ccs1230/ccs/tools/compiler/ti-cgt-arm_20.2.7.LTS/include/_defs.h",line 379
    2889 0000000a 0006E89D          LDMIA     SP, {A2,A3}           ; [DPU_V7M3_PIPE] |379|  ; [KEEP 32-BIT INS]
    2890 0000000e 2000              MOVS      A1, #0                ; [DPU_V7M3_PIPE] |379|  ; [ORIG 16-BIT INS]
    2891 00000010 4611              MOV       A2, A3                ; [DPU_V7M3_PIPE] |379|  ; [ORIG 16-BIT INS]
    2892 00000012 000A              LSLS      A3, A2, #0            ; [DPU_V7M3_PIPE] |379|  ; [ORIG 16-BIT INS]
    2893 00000014 2100              MOVS      A2, #0                ; [DPU_V7M3_PIPE] |379|  ; [ORIG 16-BIT INS]
    2894 00000016 4311              ORRS      A2, A2, A3            ; [DPU_V7M3_PIPE] |379|  ; [ORIG 16-BIT INS]
    2895 00000018 0C0A              LSRS      A3, A2, #16           ; [DPU_V7M3_PIPE] |379|  ; [ORIG 16-BIT INS]
    2896 0000001a 71F0F647          MOV       A2, #32752            ; [DPU_V7M3_PIPE] |379|  ; [KEEP 32-BIT INS]
    2897 0000001e 4011              ANDS      A2, A2, A3            ; [DPU_V7M3_PIPE] |379|  ; [ORIG 16-BIT INS]
    2898 00000020 72F0F647          MOV       A3, #32752            ; [DPU_V7M3_PIPE] |379|  ; [KEEP 32-BIT INS]
    2899 00000024 428A              CMP       A3, A2                ; [DPU_V7M3_PIPE] |379|  ; [ORIG 16-BIT INS]
    2900 00000026 D112              BNE       ||$C$L38||            ; [DPU_V7M3_PIPE] |379|  ; [ORIG 16-BIT INS]
    2901                            ; BRANCHCC OCCURS {||$C$L38||}   ; [] |379| 
    2902                    ;* --------------------------------------------------------------------------*
    2903 00000028 0006E89D          LDMIA     SP, {A2,A3}           ; [DPU_V7M3_PIPE] |379|  ; [KEEP 32-BIT INS]
    2904 0000002c 4F08              LDR       V4, $C$CON4           ; [DPU_V7M3_PIPE] |379|  ; [ORIG 16-BIT INS]
    2905 0000002e 4611              MOV       A2, A3                ; [DPU_V7M3_PIPE] |379|  ; [ORIG 16-BIT INS]
    2906 00000030 000CE89D          LDMIA     SP, {A3,A4}           ; [DPU_V7M3_PIPE] |379|  ; [KEEP 32-BIT INS]
    2907 00000034 2500              MOVS      V2, #0                ; [DPU_V7M3_PIPE] |379|  ; [ORIG 16-BIT INS]
    2908 00000036 000C              LSLS      V1, A2, #0            ; [DPU_V7M3_PIPE] |379|  ; [ORIG 16-BIT INS]
    2909 00000038 2100              MOVS      A2, #0                ; [DPU_V7M3_PIPE] |379|  ; [ORIG 16-BIT INS]
    2910 0000003a 33FFF04F          MOV       A4, #-1               ; [DPU_V7M3_PIPE] |379|  ; [KEEP 32-BIT INS]
    2911 0000003e 432A              ORRS      A3, A3, V2            ; [DPU_V7M3_PIPE] |379|  ; [ORIG 16-BIT INS]
    2912 00000040 4321              ORRS      A2, A2, V1            ; [DPU_V7M3_PIPE] |379|  ; [ORIG 16-BIT INS]
    2913 00000042 4013              ANDS      A4, A4, A3            ; [DPU_V7M3_PIPE] |379|  ; [ORIG 16-BIT INS]
    2914 00000044 400F              ANDS      V4, V4, A2            ; [DPU_V7M3_PIPE] |379|  ; [ORIG 16-BIT INS]
    2915 00000046 D100              BNE       ||$C$L37||            ; [DPU_V7M3_PIPE] |379|  ; [ORIG 16-BIT INS]
TI ARM Assembler PC v20.2.7 Wed Feb 19 20:53:45 2025

Copyright (c) 1996-2018 Texas Instruments Incorporated
MAIN.asm                                                             PAGE   54

    2916                            ; BRANCHCC OCCURS {||$C$L37||}   ; [] |379| 
    2917                    ;* --------------------------------------------------------------------------*
    2918 00000048 2B00              CMP       A4, #0                ; [DPU_V7M3_PIPE] |379|  ; [ORIG 16-BIT INS]
    2919                    ;* --------------------------------------------------------------------------*
    2920 0000004a           ||$C$L37||:    
    2921 0000004a D100              BNE       ||$C$L38||            ; [DPU_V7M3_PIPE] |379|  ; [ORIG 16-BIT INS]
    2922                            ; BRANCHCC OCCURS {||$C$L38||}   ; [] |379| 
    2923                    ;* --------------------------------------------------------------------------*
    2924 0000004c 2001              MOVS      A1, #1                ; [DPU_V7M3_PIPE] |379|  ; [ORIG 16-BIT INS]
    2925                    ;* --------------------------------------------------------------------------*
    2926 0000004e           ||$C$L38||:    
    2927                            .dwpsn  file "C:/ti/ccs1230/ccs/tools/compiler/ti-cgt-arm_20.2.7.LTS/include/_defs.h",line 379
    2928                    $C$DW$133       .dwtag  DW_TAG_TI_branch
    2929                            .dwattr $C$DW$133, DW_AT_low_pc(0x00)
    2930                            .dwattr $C$DW$133, DW_AT_TI_return
    2931                    
    2932 0000004e BDBC              POP       {A3, A4, V1, V2, V4, PC} ; [DPU_V7M3_PIPE]  ; [ORIG 16-BIT INS]
    2933                            .dwcfi  cfa_offset, 0
    2934                            .dwcfi  restore_reg, 7
    2935                            .dwcfi  restore_reg, 5
    2936                            .dwcfi  restore_reg, 4
    2937                            .dwcfi  restore_reg, 3
    2938                            .dwcfi  restore_reg, 2
    2939                            ; BRANCH OCCURS                  ; [] 
    2940                            .dwattr $C$DW$130, DW_AT_TI_end_file("C:/ti/ccs1230/ccs/tools/compiler/ti-cgt-arm_20.2.7.LTS/i
    2941                            .dwattr $C$DW$130, DW_AT_TI_end_line(0x17b)
    2942                            .dwattr $C$DW$130, DW_AT_TI_end_column(0x4c)
    2943                            .dwendentry
    2944                            .dwendtag $C$DW$130
    2945                    
    2946 00000000                   .sect   ".text:__fpclassifyf"
    2947                            .clink
    2948                            .thumbfunc __fpclassifyf
    2949 00000000                   .thumb
    2950                            .global __fpclassifyf
    2951                    
    2952                    $C$DW$134       .dwtag  DW_TAG_subprogram
    2953                            .dwattr $C$DW$134, DW_AT_name("__fpclassifyf")
    2954                            .dwattr $C$DW$134, DW_AT_low_pc(__fpclassifyf)
    2955                            .dwattr $C$DW$134, DW_AT_high_pc(0x00)
    2956                            .dwattr $C$DW$134, DW_AT_TI_symbol_name("__fpclassifyf")
    2957                            .dwattr $C$DW$134, DW_AT_external
    2958                            .dwattr $C$DW$134, DW_AT_type(*$C$DW$T$10)
    2959                            .dwattr $C$DW$134, DW_AT_TI_begin_file("C:/ti/ccs1230/ccs/tools/compiler/ti-cgt-arm_20.2.7.LTS
    2960                            .dwattr $C$DW$134, DW_AT_TI_begin_line(0x18c)
    2961                            .dwattr $C$DW$134, DW_AT_TI_begin_column(0x25)
    2962                            .dwattr $C$DW$134, DW_AT_decl_file("C:/ti/ccs1230/ccs/tools/compiler/ti-cgt-arm_20.2.7.LTS/inc
    2963                            .dwattr $C$DW$134, DW_AT_decl_line(0x18c)
    2964                            .dwattr $C$DW$134, DW_AT_decl_column(0x25)
    2965                            .dwattr $C$DW$134, DW_AT_TI_max_frame_size(0x08)
    2966                            .dwpsn  file "C:/ti/ccs1230/ccs/tools/compiler/ti-cgt-arm_20.2.7.LTS/include/_defs.h",line 397
    2967                    
    2968                            .dwfde $C$DW$CIE, __fpclassifyf
    2969                    $C$DW$135       .dwtag  DW_TAG_formal_parameter
    2970                            .dwattr $C$DW$135, DW_AT_name("f")
TI ARM Assembler PC v20.2.7 Wed Feb 19 20:53:45 2025

Copyright (c) 1996-2018 Texas Instruments Incorporated
MAIN.asm                                                             PAGE   55

    2971                            .dwattr $C$DW$135, DW_AT_TI_symbol_name("f")
    2972                            .dwattr $C$DW$135, DW_AT_type(*$C$DW$T$16)
    2973                            .dwattr $C$DW$135, DW_AT_location[DW_OP_regx 0x40]
    2974                    
    2975                    ;----------------------------------------------------------------------
    2976                    ; 396 | _CODE_ACCESS _INLINE_DEFINITION int __fpclassifyf(float f)             
    2977                    ;----------------------------------------------------------------------
    2978                    
    2979                    ;*****************************************************************************
    2980                    ;* FUNCTION NAME: __fpclassifyf                                              *
    2981                    ;*                                                                           *
    2982                    ;*   Regs Modified     : A1,SP,SR                                            *
    2983                    ;*   Regs Used         : A1,SP,LR,SR,D0                                      *
    2984                    ;*   Local Frame Size  : 0 Args + 4 Auto + 0 Save = 4 byte                   *
    2985                    ;*****************************************************************************
    2986 00000000           __fpclassifyf:
    2987                    ;* --------------------------------------------------------------------------*
    2988                            .dwcfi  cfa_offset, 0
    2989 00000000 0D08F1AD          SUB       SP, SP, #8            ; [DPU_V7M3_PIPE]  ; [KEEP 32-BIT INS]
    2990                            .dwcfi  cfa_offset, 8
    2991                    $C$DW$136       .dwtag  DW_TAG_variable
    2992                            .dwattr $C$DW$136, DW_AT_name("f")
    2993                            .dwattr $C$DW$136, DW_AT_TI_symbol_name("f")
    2994                            .dwattr $C$DW$136, DW_AT_type(*$C$DW$T$16)
    2995                            .dwattr $C$DW$136, DW_AT_location[DW_OP_breg13 0]
    2996                    
    2997 00000004 0A00ED8D          VSTR.32   S0, [SP, #0]          ; [DPU_MERLIN_PIPE] |397|  ; [KEEP 32-BIT INS]
    2998                            .dwpsn  file "C:/ti/ccs1230/ccs/tools/compiler/ti-cgt-arm_20.2.7.LTS/include/_defs.h",line 398
    2999                    ;----------------------------------------------------------------------
    3000                    ; 398 | if (__FLOAT_BIASED_EXP_IS_MAX(f))                                      
    3001                    ;----------------------------------------------------------------------
    3002 00000008 9800              LDR       A1, [SP, #0]          ; [DPU_V7M3_PIPE] |398|  ; [ORIG 16-BIT INS]
    3003 0000000a 0C00              LSRS      A1, A1, #16           ; [DPU_V7M3_PIPE] |398|  ; [ORIG 16-BIT INS]
    3004 0000000c 40FFF400          AND       A1, A1, #32640        ; [DPU_V7M3_PIPE] |398|  ; [KEEP 32-BIT INS]
    3005 00000010 4FFFF5B0          CMP       A1, #32640            ; [DPU_V7M3_PIPE] |398|  ; [KEEP 32-BIT INS]
    3006 00000014 D107              BNE       ||$C$L40||            ; [DPU_V7M3_PIPE] |398|  ; [ORIG 16-BIT INS]
    3007                            ; BRANCHCC OCCURS {||$C$L40||}   ; [] |398| 
    3008                    ;* --------------------------------------------------------------------------*
    3009                            .dwpsn  file "C:/ti/ccs1230/ccs/tools/compiler/ti-cgt-arm_20.2.7.LTS/include/_defs.h",line 400
    3010                    ;----------------------------------------------------------------------
    3011                    ; 400 | if (__FLOAT_FRAC_PART_IS_ZERO(f))                                      
    3012                    ;----------------------------------------------------------------------
    3013 00000016 9800              LDR       A1, [SP, #0]          ; [DPU_V7M3_PIPE] |400|  ; [ORIG 16-BIT INS]
    3014 00000018 50DFF36F          BFC       A1, #23, #9           ; [DPU_V7M3_PIPE] |400|  ; [KEEP 32-BIT INS]
    3015 0000001c B908              CBNZ      A1, ||$C$L39||        ; []  ; [ORIG 16-BIT INS]
    3016                            ; BRANCHCC OCCURS {||$C$L39||}   ; [] |400| 
    3017                    ;* --------------------------------------------------------------------------*
    3018                            .dwpsn  file "C:/ti/ccs1230/ccs/tools/compiler/ti-cgt-arm_20.2.7.LTS/include/_defs.h",line 401
    3019                    ;----------------------------------------------------------------------
    3020                    ; 401 | return __FP_INFINITE;                                                  
    3021                    ;----------------------------------------------------------------------
    3022 0000001e 2001              MOVS      A1, #1                ; [DPU_V7M3_PIPE] |401|  ; [ORIG 16-BIT INS]
    3023 00000020 E010              B         ||$C$L43||            ; [DPU_V7M3_PIPE] |401|  ; [ORIG 16-BIT INS]
    3024                            ; BRANCH OCCURS {||$C$L43||}     ; [] |401| 
    3025                    ;* --------------------------------------------------------------------------*
TI ARM Assembler PC v20.2.7 Wed Feb 19 20:53:45 2025

Copyright (c) 1996-2018 Texas Instruments Incorporated
MAIN.asm                                                             PAGE   56

    3026 00000022           ||$C$L39||:    
    3027                            .dwpsn  file "C:/ti/ccs1230/ccs/tools/compiler/ti-cgt-arm_20.2.7.LTS/include/_defs.h",line 402
    3028                    ;----------------------------------------------------------------------
    3029                    ; 402 | else return __FP_NAN;                                                  
    3030                    ;----------------------------------------------------------------------
    3031 00000022 2002              MOVS      A1, #2                ; [DPU_V7M3_PIPE] |402|  ; [ORIG 16-BIT INS]
    3032 00000024 E00E              B         ||$C$L43||            ; [DPU_V7M3_PIPE] |402|  ; [ORIG 16-BIT INS]
    3033                            ; BRANCH OCCURS {||$C$L43||}     ; [] |402| 
    3034                    ;* --------------------------------------------------------------------------*
    3035 00000026           ||$C$L40||:    
    3036                            .dwpsn  file "C:/ti/ccs1230/ccs/tools/compiler/ti-cgt-arm_20.2.7.LTS/include/_defs.h",line 404
    3037                    ;----------------------------------------------------------------------
    3038                    ; 404 | if (__FLOAT_BIASED_EXP_IS_ZERO(f))                                     
    3039                    ;----------------------------------------------------------------------
    3040 00000026 9800              LDR       A1, [SP, #0]          ; [DPU_V7M3_PIPE] |404|  ; [ORIG 16-BIT INS]
    3041 00000028 50C7F3C0          UBFX      A1, A1, #23, #8       ; [DPU_V7M3_PIPE] |404|  ; [KEEP 32-BIT INS]
    3042 0000002c B940              CBNZ      A1, ||$C$L42||        ; []  ; [ORIG 16-BIT INS]
    3043                            ; BRANCHCC OCCURS {||$C$L42||}   ; [] |404| 
    3044                    ;* --------------------------------------------------------------------------*
    3045                            .dwpsn  file "C:/ti/ccs1230/ccs/tools/compiler/ti-cgt-arm_20.2.7.LTS/include/_defs.h",line 406
    3046                    ;----------------------------------------------------------------------
    3047                    ; 406 | if (__FLOAT_FRAC_PART_IS_ZERO(f))                                      
    3048                    ;----------------------------------------------------------------------
    3049 0000002e 9800              LDR       A1, [SP, #0]          ; [DPU_V7M3_PIPE] |406|  ; [ORIG 16-BIT INS]
    3050 00000030 50DFF36F          BFC       A1, #23, #9           ; [DPU_V7M3_PIPE] |406|  ; [KEEP 32-BIT INS]
    3051 00000034 B908              CBNZ      A1, ||$C$L41||        ; []  ; [ORIG 16-BIT INS]
    3052                            ; BRANCHCC OCCURS {||$C$L41||}   ; [] |406| 
    3053                    ;* --------------------------------------------------------------------------*
