TI ARM Assembler PC v20.2.7 Fri Jan 17 11:31:07 2025

Copyright (c) 1996-2018 Texas Instruments Incorporated
Scoreboard.asm                                                       PAGE    1

       1                    ;******************************************************************************
       2                    ;* TI ARM G3 C/C++ Codegen                                              PC v20.2.7.LTS *
       3                    ;* Date/Time created: Fri Jan 17 11:31:07 2025                                *
       4                    ;******************************************************************************
       5                            .compiler_opts --abi=eabi --arm_vmrs_si_workaround=off --code_state=16 --diag_wrap=off --embed
       6 00000000                   .thumb
       7                    
       8                    $C$DW$CU        .dwtag  DW_TAG_compile_unit
       9                            .dwattr $C$DW$CU, DW_AT_name("../Scoreboard.c")
      10                            .dwattr $C$DW$CU, DW_AT_producer("TI TI ARM G3 C/C++ Codegen PC v20.2.7.LTS Copyright (c) 1996
      11                            .dwattr $C$DW$CU, DW_AT_TI_version(0x01)
      12                            .dwattr $C$DW$CU, DW_AT_comp_dir("C:\Users\dimit\workspace_v12\Controle_Digital_Trabalho_Final
      13 00000000                   .data
      14                            .align  4
      15                            .elfsym scoreblock,SYM_SIZE(4)
      16 00000000           scoreblock:
      17 00000000 00000000          .bits           0,32
      18                                            ; scoreblock @ 0
      19                    
      20                    $C$DW$1 .dwtag  DW_TAG_variable
      21                            .dwattr $C$DW$1, DW_AT_name("scoreblock")
      22                            .dwattr $C$DW$1, DW_AT_TI_symbol_name("scoreblock")
      23                            .dwattr $C$DW$1, DW_AT_type(*$C$DW$T$24)
      24                            .dwattr $C$DW$1, DW_AT_location[DW_OP_addr scoreblock]
      25                            .dwattr $C$DW$1, DW_AT_decl_file("../Scoreboard.c")
      26                            .dwattr $C$DW$1, DW_AT_decl_line(0x1f)
      27                            .dwattr $C$DW$1, DW_AT_decl_column(0x11)
      28                    
      29 00000000                   .bss    boardptr,4,4
      30                    $C$DW$2 .dwtag  DW_TAG_variable
      31                            .dwattr $C$DW$2, DW_AT_name("boardptr")
      32                            .dwattr $C$DW$2, DW_AT_TI_symbol_name("boardptr")
      33                            .dwattr $C$DW$2, DW_AT_type(*$C$DW$T$114)
      34                            .dwattr $C$DW$2, DW_AT_location[DW_OP_addr boardptr]
      35                            .dwattr $C$DW$2, DW_AT_decl_file("../Scoreboard.c")
      36                            .dwattr $C$DW$2, DW_AT_decl_line(0x20)
      37                            .dwattr $C$DW$2, DW_AT_decl_column(0x12)
      38                    
      39 00000000           RAMScoreboard:  .usect  ".bss:RAMScoreboard",40,4
      40                    $C$DW$3 .dwtag  DW_TAG_variable
      41                            .dwattr $C$DW$3, DW_AT_name("RAMScoreboard")
      42                            .dwattr $C$DW$3, DW_AT_TI_symbol_name("RAMScoreboard")
      43                            .dwattr $C$DW$3, DW_AT_type(*$C$DW$T$32)
      44                            .dwattr $C$DW$3, DW_AT_location[DW_OP_addr RAMScoreboard]
      45                            .dwattr $C$DW$3, DW_AT_decl_file("../Scoreboard.c")
      46                            .dwattr $C$DW$3, DW_AT_decl_line(0x21)
      47                            .dwattr $C$DW$3, DW_AT_decl_column(0x10)
      48                    
      49                    
      50                    $C$DW$4 .dwtag  DW_TAG_subprogram
      51                            .dwattr $C$DW$4, DW_AT_name("Flash_Write")
      52                            .dwattr $C$DW$4, DW_AT_TI_symbol_name("Flash_Write")
      53                            .dwattr $C$DW$4, DW_AT_type(*$C$DW$T$10)
      54                            .dwattr $C$DW$4, DW_AT_declaration
      55                            .dwattr $C$DW$4, DW_AT_external
TI ARM Assembler PC v20.2.7 Fri Jan 17 11:31:07 2025

Copyright (c) 1996-2018 Texas Instruments Incorporated
Scoreboard.asm                                                       PAGE    2

      56                            .dwattr $C$DW$4, DW_AT_decl_file("..\FlashProgram.h")
      57                            .dwattr $C$DW$4, DW_AT_decl_line(0x31)
      58                            .dwattr $C$DW$4, DW_AT_decl_column(0x05)
      59                    $C$DW$5 .dwtag  DW_TAG_formal_parameter
      60                            .dwattr $C$DW$5, DW_AT_type(*$C$DW$T$24)
      61                    
      62                    $C$DW$6 .dwtag  DW_TAG_formal_parameter
      63                            .dwattr $C$DW$6, DW_AT_type(*$C$DW$T$24)
      64                    
      65                            .dwendtag $C$DW$4
      66                    
      67                    
      68                    $C$DW$7 .dwtag  DW_TAG_subprogram
      69                            .dwattr $C$DW$7, DW_AT_name("Flash_Erase")
      70                            .dwattr $C$DW$7, DW_AT_TI_symbol_name("Flash_Erase")
      71                            .dwattr $C$DW$7, DW_AT_type(*$C$DW$T$10)
      72                            .dwattr $C$DW$7, DW_AT_declaration
      73                            .dwattr $C$DW$7, DW_AT_external
      74                            .dwattr $C$DW$7, DW_AT_decl_file("..\FlashProgram.h")
      75                            .dwattr $C$DW$7, DW_AT_decl_line(0x4e)
      76                            .dwattr $C$DW$7, DW_AT_decl_column(0x05)
      77                    $C$DW$8 .dwtag  DW_TAG_formal_parameter
      78                            .dwattr $C$DW$8, DW_AT_type(*$C$DW$T$24)
      79                    
      80                            .dwendtag $C$DW$7
      81                    
      82                    ;       C:\ti\ccs1230\ccs\tools\compiler\ti-cgt-arm_20.2.7.LTS\bin\armacpia.exe -@C:\\Users\\dimit\\Ap
      83 00000000                   .sect   ".text"
      84                            .clink
      85                            .thumbfunc AddrValid
      86 00000000                   .thumb
      87                    
      88                    $C$DW$9 .dwtag  DW_TAG_subprogram
      89                            .dwattr $C$DW$9, DW_AT_name("AddrValid")
      90                            .dwattr $C$DW$9, DW_AT_low_pc(AddrValid)
      91                            .dwattr $C$DW$9, DW_AT_high_pc(0x00)
      92                            .dwattr $C$DW$9, DW_AT_TI_symbol_name("AddrValid")
      93                            .dwattr $C$DW$9, DW_AT_type(*$C$DW$T$10)
      94                            .dwattr $C$DW$9, DW_AT_TI_begin_file("../Scoreboard.c")
      95                            .dwattr $C$DW$9, DW_AT_TI_begin_line(0x25)
      96                            .dwattr $C$DW$9, DW_AT_TI_begin_column(0x0c)
      97                            .dwattr $C$DW$9, DW_AT_decl_file("../Scoreboard.c")
      98                            .dwattr $C$DW$9, DW_AT_decl_line(0x25)
      99                            .dwattr $C$DW$9, DW_AT_decl_column(0x0c)
     100                            .dwattr $C$DW$9, DW_AT_TI_max_frame_size(0x08)
     101                            .dwpsn  file "../Scoreboard.c",line 37,column 36,is_stmt,address AddrValid,isa 1
     102                    
     103                            .dwfde $C$DW$CIE, AddrValid
     104                    $C$DW$10        .dwtag  DW_TAG_formal_parameter
     105                            .dwattr $C$DW$10, DW_AT_name("addr")
     106                            .dwattr $C$DW$10, DW_AT_TI_symbol_name("addr")
     107                            .dwattr $C$DW$10, DW_AT_type(*$C$DW$T$24)
     108                            .dwattr $C$DW$10, DW_AT_location[DW_OP_reg0]
     109                    
     110                    
TI ARM Assembler PC v20.2.7 Fri Jan 17 11:31:07 2025

Copyright (c) 1996-2018 Texas Instruments Incorporated
Scoreboard.asm                                                       PAGE    3

     111                    ;*****************************************************************************
     112                    ;* FUNCTION NAME: AddrValid                                                  *
     113                    ;*                                                                           *
     114                    ;*   Regs Modified     : A1,A2,A3,SP,SR                                      *
     115                    ;*   Regs Used         : A1,A2,A3,SP,LR,SR                                   *
     116                    ;*   Local Frame Size  : 0 Args + 4 Auto + 0 Save = 4 byte                   *
     117                    ;*****************************************************************************
     118 00000000           AddrValid:
     119                    ;* --------------------------------------------------------------------------*
     120                            .dwcfi  cfa_offset, 0
     121 00000000 0D08F1AD          SUB       SP, SP, #8            ; [DPU_V7M3_PIPE]  ; [KEEP 32-BIT INS]
     122                            .dwcfi  cfa_offset, 8
     123                    $C$DW$11        .dwtag  DW_TAG_variable
     124                            .dwattr $C$DW$11, DW_AT_name("addr")
     125                            .dwattr $C$DW$11, DW_AT_TI_symbol_name("addr")
     126                            .dwattr $C$DW$11, DW_AT_type(*$C$DW$T$24)
     127                            .dwattr $C$DW$11, DW_AT_location[DW_OP_breg13 0]
     128                    
     129                    ;----------------------------------------------------------------------
     130                    ;  37 | static int AddrValid(uint32_t addr){                                   
     131                    ;  38 | // check if address offset works for scoreboard                        
     132                    ;  39 | // must be 1 KB aligned                                                
     133                    ;----------------------------------------------------------------------
     134 00000004 9000              STR       A1, [SP, #0]          ; [DPU_V7M3_PIPE] |37|  ; [ORIG 16-BIT INS]
     135                            .dwpsn  file "../Scoreboard.c",line 40,column 3,is_stmt,isa 1
     136                    ;----------------------------------------------------------------------
     137                    ;  40 | return (((addr % 1024) == 0) && (addr <= 0x0003FFFF));                 
     138                    ;----------------------------------------------------------------------
     139 00000006 9900              LDR       A2, [SP, #0]          ; [DPU_V7M3_PIPE] |40|  ; [ORIG 16-BIT INS]
     140 00000008 2000              MOVS      A1, #0                ; [DPU_V7M3_PIPE] |40|  ; [ORIG 16-BIT INS]
     141 0000000a 219FF36F          BFC       A2, #10, #22          ; [DPU_V7M3_PIPE] |40|  ; [KEEP 32-BIT INS]
     142 0000000e B921              CBNZ      A2, ||$C$L1||         ; []  ; [ORIG 16-BIT INS]
     143                            ; BRANCHCC OCCURS {||$C$L1||}    ; [] |40| 
     144                    ;* --------------------------------------------------------------------------*
     145 00000010 4A5E              LDR       A3, $C$CON1           ; [DPU_V7M3_PIPE] |40|  ; [ORIG 16-BIT INS]
     146 00000012 9900              LDR       A2, [SP, #0]          ; [DPU_V7M3_PIPE] |40|  ; [ORIG 16-BIT INS]
     147 00000014 428A              CMP       A3, A2                ; [DPU_V7M3_PIPE] |40|  ; [ORIG 16-BIT INS]
     148 00000016 D300              BCC       ||$C$L1||             ; [DPU_V7M3_PIPE] |40|  ; [ORIG 16-BIT INS]
     149                            ; BRANCHCC OCCURS {||$C$L1||}    ; [] |40| 
     150                    ;* --------------------------------------------------------------------------*
     151 00000018 2001              MOVS      A1, #1                ; [DPU_V7M3_PIPE] |40|  ; [ORIG 16-BIT INS]
     152                    ;* --------------------------------------------------------------------------*
     153 0000001a           ||$C$L1||:    
     154                            .dwpsn  file "../Scoreboard.c",line 41,column 1,is_stmt,isa 1
     155 0000001a B002              ADD       SP, SP, #8            ; [DPU_V7M3_PIPE]  ; [ORIG 16-BIT INS]
     156                            .dwcfi  cfa_offset, 0
     157                    $C$DW$12        .dwtag  DW_TAG_TI_branch
     158                            .dwattr $C$DW$12, DW_AT_low_pc(0x00)
     159                            .dwattr $C$DW$12, DW_AT_TI_return
     160                    
     161 0000001c 4770              BX        LR                    ; [DPU_V7M3_PIPE]  ; [ORIG 16-BIT INS]
     162                            ; BRANCH OCCURS                  ; [] 
     163                            .dwattr $C$DW$9, DW_AT_TI_end_file("../Scoreboard.c")
     164                            .dwattr $C$DW$9, DW_AT_TI_end_line(0x29)
     165                            .dwattr $C$DW$9, DW_AT_TI_end_column(0x01)
TI ARM Assembler PC v20.2.7 Fri Jan 17 11:31:07 2025

Copyright (c) 1996-2018 Texas Instruments Incorporated
Scoreboard.asm                                                       PAGE    4

     166                            .dwendentry
     167                            .dwendtag $C$DW$9
     168                    
     169 0000001e                   .sect   ".text"
     170                            .clink
     171                            .thumbfunc Scoreboard_Init
     172 0000001e                   .thumb
     173                            .global Scoreboard_Init
     174                    
     175                    $C$DW$13        .dwtag  DW_TAG_subprogram
     176                            .dwattr $C$DW$13, DW_AT_name("Scoreboard_Init")
     177                            .dwattr $C$DW$13, DW_AT_low_pc(Scoreboard_Init)
     178                            .dwattr $C$DW$13, DW_AT_high_pc(0x00)
     179                            .dwattr $C$DW$13, DW_AT_TI_symbol_name("Scoreboard_Init")
     180                            .dwattr $C$DW$13, DW_AT_external
     181                            .dwattr $C$DW$13, DW_AT_type(*$C$DW$T$29)
     182                            .dwattr $C$DW$13, DW_AT_TI_begin_file("../Scoreboard.c")
     183                            .dwattr $C$DW$13, DW_AT_TI_begin_line(0x31)
     184                            .dwattr $C$DW$13, DW_AT_TI_begin_column(0x0a)
     185                            .dwattr $C$DW$13, DW_AT_decl_file("../Scoreboard.c")
     186                            .dwattr $C$DW$13, DW_AT_decl_line(0x31)
     187                            .dwattr $C$DW$13, DW_AT_decl_column(0x0a)
     188                            .dwattr $C$DW$13, DW_AT_TI_max_frame_size(0x18)
     189                            .dwpsn  file "../Scoreboard.c",line 49,column 40,is_stmt,address Scoreboard_Init,isa 1
     190                    
     191                            .dwfde $C$DW$CIE, Scoreboard_Init
     192                    $C$DW$14        .dwtag  DW_TAG_formal_parameter
     193                            .dwattr $C$DW$14, DW_AT_name("addr")
     194                            .dwattr $C$DW$14, DW_AT_TI_symbol_name("addr")
     195                            .dwattr $C$DW$14, DW_AT_type(*$C$DW$T$24)
     196                            .dwattr $C$DW$14, DW_AT_location[DW_OP_reg0]
     197                    
     198                    
     199                    ;*****************************************************************************
     200                    ;* FUNCTION NAME: Scoreboard_Init                                            *
     201                    ;*                                                                           *
     202                    ;*   Regs Modified     : A1,A2,A3,A4,SP,LR,SR,FPEXC,FPSCR                    *
     203                    ;*   Regs Used         : A1,A2,A3,A4,SP,LR,SR,FPEXC,FPSCR                    *
     204                    ;*   Local Frame Size  : 0 Args + 20 Auto + 4 Save = 24 byte                 *
     205                    ;*****************************************************************************
     206 0000001e           Scoreboard_Init:
     207                    ;* --------------------------------------------------------------------------*
     208                            .dwcfi  cfa_offset, 0
     209 0000001e B500              PUSH      {LR}                  ; [DPU_V7M3_PIPE]  ; [ORIG 16-BIT INS]
     210                            .dwcfi  cfa_offset, 4
     211                            .dwcfi  save_reg_to_mem, 14, -4
     212 00000020 0D14F1AD          SUB       SP, SP, #20           ; [DPU_V7M3_PIPE]  ; [KEEP 32-BIT INS]
     213                            .dwcfi  cfa_offset, 24
     214                    $C$DW$15        .dwtag  DW_TAG_variable
     215                            .dwattr $C$DW$15, DW_AT_name("addr")
     216                            .dwattr $C$DW$15, DW_AT_TI_symbol_name("addr")
     217                            .dwattr $C$DW$15, DW_AT_type(*$C$DW$T$24)
     218                            .dwattr $C$DW$15, DW_AT_location[DW_OP_breg13 0]
     219                    
     220                    $C$DW$16        .dwtag  DW_TAG_variable
TI ARM Assembler PC v20.2.7 Fri Jan 17 11:31:07 2025

Copyright (c) 1996-2018 Texas Instruments Incorporated
Scoreboard.asm                                                       PAGE    5

     221                            .dwattr $C$DW$16, DW_AT_name("initials")
     222                            .dwattr $C$DW$16, DW_AT_TI_symbol_name("initials")
     223                            .dwattr $C$DW$16, DW_AT_type(*$C$DW$T$24)
     224                            .dwattr $C$DW$16, DW_AT_location[DW_OP_breg13 4]
     225                    
     226                    $C$DW$17        .dwtag  DW_TAG_variable
     227                            .dwattr $C$DW$17, DW_AT_name("score")
     228                            .dwattr $C$DW$17, DW_AT_TI_symbol_name("score")
     229                            .dwattr $C$DW$17, DW_AT_type(*$C$DW$T$24)
     230                            .dwattr $C$DW$17, DW_AT_location[DW_OP_breg13 8]
     231                    
     232                    $C$DW$18        .dwtag  DW_TAG_variable
     233                            .dwattr $C$DW$18, DW_AT_name("i")
     234                            .dwattr $C$DW$18, DW_AT_TI_symbol_name("i")
     235                            .dwattr $C$DW$18, DW_AT_type(*$C$DW$T$10)
     236                            .dwattr $C$DW$18, DW_AT_location[DW_OP_breg13 12]
     237                    
     238                    $C$DW$19        .dwtag  DW_TAG_variable
     239                            .dwattr $C$DW$19, DW_AT_name("j")
     240                            .dwattr $C$DW$19, DW_AT_TI_symbol_name("j")
     241                            .dwattr $C$DW$19, DW_AT_type(*$C$DW$T$10)
     242                            .dwattr $C$DW$19, DW_AT_location[DW_OP_breg13 16]
     243                    
     244                    ;----------------------------------------------------------------------
     245                    ;  49 | SBEType* Scoreboard_Init(uint32_t addr){                               
     246                    ;  50 | uint32_t initials, score;                                              
     247                    ;  51 | int i, j;                                                              
     248                    ;  52 | // initialize blank scoreboard                                         
     249                    ;----------------------------------------------------------------------
     250 00000024 9000              STR       A1, [SP, #0]          ; [DPU_V7M3_PIPE] |49|  ; [ORIG 16-BIT INS]
     251                            .dwpsn  file "../Scoreboard.c",line 53,column 7,is_stmt,isa 1
     252                    ;----------------------------------------------------------------------
     253                    ;  53 | for(i=0; i<SCOREBOARDSIZE; i=i+1){                                     
     254                    ;----------------------------------------------------------------------
     255 00000026 2000              MOVS      A1, #0                ; [DPU_V7M3_PIPE] |53|  ; [ORIG 16-BIT INS]
     256 00000028 9003              STR       A1, [SP, #12]         ; [DPU_V7M3_PIPE] |53|  ; [ORIG 16-BIT INS]
     257                            .dwpsn  file "../Scoreboard.c",line 53,column 12,is_stmt,isa 1
     258 0000002a 9803              LDR       A1, [SP, #12]         ; [DPU_V7M3_PIPE] |53|  ; [ORIG 16-BIT INS]
     259 0000002c 2805              CMP       A1, #5                ; [DPU_V7M3_PIPE] |53|  ; [ORIG 16-BIT INS]
     260 0000002e DA19              BGE       ||$C$L3||             ; [DPU_V7M3_PIPE] |53|  ; [ORIG 16-BIT INS]
     261                            ; BRANCHCC OCCURS {||$C$L3||}    ; [] |53| 
     262                    ;* --------------------------------------------------------------------------*
     263                    ;*   BEGIN LOOP ||$C$L2||
     264                    ;*
     265                    ;*   Loop source line                : 53
     266                    ;*   Loop closing brace source line  : 58
     267                    ;*   Known Minimum Trip Count        : 1
     268                    ;*   Known Maximum Trip Count        : 4294967295
     269                    ;*   Known Max Trip Count Factor     : 1
     270                    ;* --------------------------------------------------------------------------*
     271 00000030           ||$C$L2||:    
     272                            .dwpsn  file "../Scoreboard.c",line 54,column 5,is_stmt,isa 1
     273                    ;----------------------------------------------------------------------
     274                    ;  54 | RAMScoreboard[i].first = ' ';                                          
     275                    ;----------------------------------------------------------------------
TI ARM Assembler PC v20.2.7 Fri Jan 17 11:31:07 2025

Copyright (c) 1996-2018 Texas Instruments Incorporated
Scoreboard.asm                                                       PAGE    6

     276 00000030 9903              LDR       A2, [SP, #12]         ; [DPU_V7M3_PIPE] |54|  ; [ORIG 16-BIT INS]
     277 00000032 4AA8              LDR       A3, $C$CON2           ; [DPU_V7M3_PIPE] |54|  ; [ORIG 16-BIT INS]
     278 00000034 2020              MOVS      A1, #32               ; [DPU_V7M3_PIPE] |54|  ; [ORIG 16-BIT INS]
     279 00000036 0031F802          STRB      A1, [A3, +A2, LSL #3] ; [DPU_V7M3_PIPE] |54|  ; [KEEP 32-BIT INS]
     280                            .dwpsn  file "../Scoreboard.c",line 55,column 5,is_stmt,isa 1
     281                    ;----------------------------------------------------------------------
     282                    ;  55 | RAMScoreboard[i].middle = ' ';                                         
     283                    ;----------------------------------------------------------------------
     284 0000003a 9903              LDR       A2, [SP, #12]         ; [DPU_V7M3_PIPE] |55|  ; [ORIG 16-BIT INS]
     285 0000003c 4AA6              LDR       A3, $C$CON3           ; [DPU_V7M3_PIPE] |55|  ; [ORIG 16-BIT INS]
     286 0000003e 2020              MOVS      A1, #32               ; [DPU_V7M3_PIPE] |55|  ; [ORIG 16-BIT INS]
     287 00000040 0031F802          STRB      A1, [A3, +A2, LSL #3] ; [DPU_V7M3_PIPE] |55|  ; [KEEP 32-BIT INS]
     288                            .dwpsn  file "../Scoreboard.c",line 56,column 5,is_stmt,isa 1
     289                    ;----------------------------------------------------------------------
     290                    ;  56 | RAMScoreboard[i].last = ' ';                                           
     291                    ;----------------------------------------------------------------------
     292 00000044 9903              LDR       A2, [SP, #12]         ; [DPU_V7M3_PIPE] |56|  ; [ORIG 16-BIT INS]
     293 00000046 4AA5              LDR       A3, $C$CON4           ; [DPU_V7M3_PIPE] |56|  ; [ORIG 16-BIT INS]
     294 00000048 2020              MOVS      A1, #32               ; [DPU_V7M3_PIPE] |56|  ; [ORIG 16-BIT INS]
     295 0000004a 0031F802          STRB      A1, [A3, +A2, LSL #3] ; [DPU_V7M3_PIPE] |56|  ; [KEEP 32-BIT INS]
     296                            .dwpsn  file "../Scoreboard.c",line 57,column 5,is_stmt,isa 1
     297                    ;----------------------------------------------------------------------
     298                    ;  57 | RAMScoreboard[i].score = 0;                                            
     299                    ;----------------------------------------------------------------------
     300 0000004e 9903              LDR       A2, [SP, #12]         ; [DPU_V7M3_PIPE] |57|  ; [ORIG 16-BIT INS]
     301 00000050 4AA3              LDR       A3, $C$CON5           ; [DPU_V7M3_PIPE] |57|  ; [ORIG 16-BIT INS]
     302 00000052 2000              MOVS      A1, #0                ; [DPU_V7M3_PIPE] |57|  ; [ORIG 16-BIT INS]
     303 00000054 0031F842          STR       A1, [A3, +A2, LSL #3] ; [DPU_V7M3_PIPE] |57|  ; [KEEP 32-BIT INS]
     304                            .dwpsn  file "../Scoreboard.c",line 53,column 30,is_stmt,isa 1
     305 00000058 9803              LDR       A1, [SP, #12]         ; [DPU_V7M3_PIPE] |53|  ; [ORIG 16-BIT INS]
     306 0000005a 1C40              ADDS      A1, A1, #1            ; [DPU_V7M3_PIPE] |53|  ; [ORIG 16-BIT INS]
     307 0000005c 9003              STR       A1, [SP, #12]         ; [DPU_V7M3_PIPE] |53|  ; [ORIG 16-BIT INS]
     308                            .dwpsn  file "../Scoreboard.c",line 53,column 12,is_stmt,isa 1
     309 0000005e 9803              LDR       A1, [SP, #12]         ; [DPU_V7M3_PIPE] |53|  ; [ORIG 16-BIT INS]
     310 00000060 2805              CMP       A1, #5                ; [DPU_V7M3_PIPE] |53|  ; [ORIG 16-BIT INS]
     311 00000062 DBE5              BLT       ||$C$L2||             ; [DPU_V7M3_PIPE] |53|  ; [ORIG 16-BIT INS]
     312                            ; BRANCHCC OCCURS {||$C$L2||}    ; [] |53| 
     313                    ;* --------------------------------------------------------------------------*
     314 00000064           ||$C$L3||:    
     315                            .dwpsn  file "../Scoreboard.c",line 59,column 3,is_stmt,isa 1
     316                    ;----------------------------------------------------------------------
     317                    ;  59 | if(AddrValid(addr)){                                                   
     318                    ;----------------------------------------------------------------------
     319 00000064 9800              LDR       A1, [SP, #0]          ; [DPU_V7M3_PIPE] |59|  ; [ORIG 16-BIT INS]
     320                    $C$DW$20        .dwtag  DW_TAG_TI_branch
     321                            .dwattr $C$DW$20, DW_AT_low_pc(0x00)
     322                            .dwattr $C$DW$20, DW_AT_name("AddrValid")
     323                            .dwattr $C$DW$20, DW_AT_TI_call
     324                    
     325 00000066 FFFEF7FF!         BL        AddrValid             ; [DPU_V7M3_PIPE] |59|  ; [KEEP 32-BIT INS]
     326                            ; CALL OCCURS {AddrValid }       ; [] |59| 
     327 0000006a 2800              CMP       A1, #0                ; [DPU_V7M3_PIPE] |59|  ; [ORIG 16-BIT INS]
     328 0000006c AFFEF43F!         BEQ       ||$C$L11||            ; [DPU_V7M3_PIPE] |59|  ; [KEEP 32-BIT INS]
     329                            ; BRANCHCC OCCURS {||$C$L11||}   ; [] |59| 
     330                    ;* --------------------------------------------------------------------------*
TI ARM Assembler PC v20.2.7 Fri Jan 17 11:31:07 2025

Copyright (c) 1996-2018 Texas Instruments Incorporated
Scoreboard.asm                                                       PAGE    7

     331                            .dwpsn  file "../Scoreboard.c",line 60,column 5,is_stmt,isa 1
     332                    ;----------------------------------------------------------------------
     333                    ;  60 | scoreblock = addr;                                                     
     334                    ;----------------------------------------------------------------------
     335 00000070 9800              LDR       A1, [SP, #0]          ; [DPU_V7M3_PIPE] |60|  ; [ORIG 16-BIT INS]
     336 00000072 49AC              LDR       A2, $C$CON6           ; [DPU_V7M3_PIPE] |60|  ; [ORIG 16-BIT INS]
     337 00000074 6008              STR       A1, [A2, #0]          ; [DPU_V7M3_PIPE] |60|  ; [ORIG 16-BIT INS]
     338                            .dwpsn  file "../Scoreboard.c",line 61,column 5,is_stmt,isa 1
     339                    ;----------------------------------------------------------------------
     340                    ;  61 | boardptr = (uint32_t *)scoreblock;                                     
     341                    ;----------------------------------------------------------------------
     342 00000076 48AB              LDR       A1, $C$CON6           ; [DPU_V7M3_PIPE] |61|  ; [ORIG 16-BIT INS]
     343 00000078 49AB              LDR       A2, $C$CON7           ; [DPU_V7M3_PIPE] |61|  ; [ORIG 16-BIT INS]
     344 0000007a 6800              LDR       A1, [A1, #0]          ; [DPU_V7M3_PIPE] |61|  ; [ORIG 16-BIT INS]
     345 0000007c 6008              STR       A1, [A2, #0]          ; [DPU_V7M3_PIPE] |61|  ; [ORIG 16-BIT INS]
     346                            .dwpsn  file "../Scoreboard.c",line 62,column 5,is_stmt,isa 1
     347                    ;----------------------------------------------------------------------
     348                    ;  62 | initials = *boardptr;                                                  
     349                    ;----------------------------------------------------------------------
     350 0000007e 48AA              LDR       A1, $C$CON7           ; [DPU_V7M3_PIPE] |62|  ; [ORIG 16-BIT INS]
     351 00000080 6800              LDR       A1, [A1, #0]          ; [DPU_V7M3_PIPE] |62|  ; [ORIG 16-BIT INS]
     352 00000082 6800              LDR       A1, [A1, #0]          ; [DPU_V7M3_PIPE] |62|  ; [ORIG 16-BIT INS]
     353 00000084 9001              STR       A1, [SP, #4]          ; [DPU_V7M3_PIPE] |62|  ; [ORIG 16-BIT INS]
     354                            .dwpsn  file "../Scoreboard.c",line 63,column 5,is_stmt,isa 1
     355                    ;----------------------------------------------------------------------
     356                    ;  63 | score = *(boardptr + 1);                                               
     357                    ;  64 | // step through the flash block, pulling out all scores                
     358                    ;  65 | // in the form:                                                        
     359                    ;  66 | // [8-bit first initial]                                               
     360                    ;  67 | // [8-bit middle initial]                                              
     361                    ;  68 | // [8-bit last initial]                                                
     362                    ;  69 | // [0x00]                                                              
     363                    ;  70 | // [32-bit score]                                                      
     364                    ;----------------------------------------------------------------------
     365 00000086 48A8              LDR       A1, $C$CON7           ; [DPU_V7M3_PIPE] |63|  ; [ORIG 16-BIT INS]
     366 00000088 6800              LDR       A1, [A1, #0]          ; [DPU_V7M3_PIPE] |63|  ; [ORIG 16-BIT INS]
     367 0000008a 6840              LDR       A1, [A1, #4]          ; [DPU_V7M3_PIPE] |63|  ; [ORIG 16-BIT INS]
     368 0000008c 9002              STR       A1, [SP, #8]          ; [DPU_V7M3_PIPE] |63|  ; [ORIG 16-BIT INS]
     369                            .dwpsn  file "../Scoreboard.c",line 71,column 5,is_stmt,isa 1
     370                    ;----------------------------------------------------------------------
     371                    ;  71 | while(((initials&0x000000FF) == 0x00000000) && (boardptr <= (uint32_t *
     372                    ;     | )(scoreblock + 0x3F8))){                                               
     373                    ;  72 |   // compare the score with the RAM scoreboard so far                  
     374                    ;----------------------------------------------------------------------
     375 0000008e E06D              B         ||$C$L10||            ; [DPU_V7M3_PIPE] |71|  ; [ORIG 16-BIT INS]
     376                            ; BRANCH OCCURS {||$C$L10||}     ; [] |71| 
     377                    ;* --------------------------------------------------------------------------*
     378 00000090           ||$C$L4||:    
     379                            .dwpsn  file "../Scoreboard.c",line 73,column 11,is_stmt,isa 1
     380                    ;----------------------------------------------------------------------
     381                    ;  73 | for(i=0; i<SCOREBOARDSIZE; i=i+1){                                     
     382                    ;----------------------------------------------------------------------
     383 00000090 2000              MOVS      A1, #0                ; [DPU_V7M3_PIPE] |73|  ; [ORIG 16-BIT INS]
     384 00000092 9003              STR       A1, [SP, #12]         ; [DPU_V7M3_PIPE] |73|  ; [ORIG 16-BIT INS]
     385                            .dwpsn  file "../Scoreboard.c",line 73,column 16,is_stmt,isa 1
TI ARM Assembler PC v20.2.7 Fri Jan 17 11:31:07 2025

Copyright (c) 1996-2018 Texas Instruments Incorporated
Scoreboard.asm                                                       PAGE    8

     386 00000094 9803              LDR       A1, [SP, #12]         ; [DPU_V7M3_PIPE] |73|  ; [ORIG 16-BIT INS]
     387 00000096 2805              CMP       A1, #5                ; [DPU_V7M3_PIPE] |73|  ; [ORIG 16-BIT INS]
     388 00000098 DA5B              BGE       ||$C$L9||             ; [DPU_V7M3_PIPE] |73|  ; [ORIG 16-BIT INS]
     389                            ; BRANCHCC OCCURS {||$C$L9||}    ; [] |73| 
     390                    ;* --------------------------------------------------------------------------*
     391                    ;*   BEGIN LOOP ||$C$L5||
     392                    ;*
     393                    ;*   Loop source line                : 73
     394                    ;*   Loop closing brace source line  : 91
     395                    ;*   Known Minimum Trip Count        : 1
     396                    ;*   Known Maximum Trip Count        : 4294967295
     397                    ;*   Known Max Trip Count Factor     : 1
     398                    ;* --------------------------------------------------------------------------*
     399 0000009a           ||$C$L5||:    
     400                            .dwpsn  file "../Scoreboard.c",line 74,column 9,is_stmt,isa 1
     401                    ;----------------------------------------------------------------------
     402                    ;  74 | if(score > RAMScoreboard[i].score){                                    
     403                    ;  75 |   // found a score better than one in RAM                              
     404                    ;  76 |   // shift all lower scores down                                       
     405                    ;----------------------------------------------------------------------
     406 0000009a 9803              LDR       A1, [SP, #12]         ; [DPU_V7M3_PIPE] |74|  ; [ORIG 16-BIT INS]
     407 0000009c 4A90              LDR       A3, $C$CON5           ; [DPU_V7M3_PIPE] |74|  ; [ORIG 16-BIT INS]
     408 0000009e 9902              LDR       A2, [SP, #8]          ; [DPU_V7M3_PIPE] |74|  ; [ORIG 16-BIT INS]
     409 000000a0 0030F852          LDR       A1, [A3, +A1, LSL #3] ; [DPU_V7M3_PIPE] |74|  ; [KEEP 32-BIT INS]
     410 000000a4 4288              CMP       A1, A2                ; [DPU_V7M3_PIPE] |74|  ; [ORIG 16-BIT INS]
     411 000000a6 D24E              BCS       ||$C$L8||             ; [DPU_V7M3_PIPE] |74|  ; [ORIG 16-BIT INS]
     412                            ; BRANCHCC OCCURS {||$C$L8||}    ; [] |74| 
     413                    ;* --------------------------------------------------------------------------*
     414                            .dwpsn  file "../Scoreboard.c",line 77,column 15,is_stmt,isa 1
     415                    ;----------------------------------------------------------------------
     416                    ;  77 | for(j=(SCOREBOARDSIZE-1); j>i; j=j-1){                                 
     417                    ;----------------------------------------------------------------------
     418 000000a8 2004              MOVS      A1, #4                ; [DPU_V7M3_PIPE] |77|  ; [ORIG 16-BIT INS]
     419 000000aa 9004              STR       A1, [SP, #16]         ; [DPU_V7M3_PIPE] |77|  ; [ORIG 16-BIT INS]
     420                            .dwpsn  file "../Scoreboard.c",line 77,column 37,is_stmt,isa 1
     421 000000ac 9803              LDR       A1, [SP, #12]         ; [DPU_V7M3_PIPE] |77|  ; [ORIG 16-BIT INS]
     422 000000ae 9904              LDR       A2, [SP, #16]         ; [DPU_V7M3_PIPE] |77|  ; [ORIG 16-BIT INS]
     423 000000b0 4288              CMP       A1, A2                ; [DPU_V7M3_PIPE] |77|  ; [ORIG 16-BIT INS]
     424 000000b2 DA2A              BGE       ||$C$L7||             ; [DPU_V7M3_PIPE] |77|  ; [ORIG 16-BIT INS]
     425                            ; BRANCHCC OCCURS {||$C$L7||}    ; [] |77| 
     426                    ;* --------------------------------------------------------------------------*
     427                    ;*   BEGIN LOOP ||$C$L6||
     428                    ;*
     429                    ;*   Loop source line                : 77
     430                    ;*   Loop closing brace source line  : 82
     431                    ;*   Known Minimum Trip Count        : 1
     432                    ;*   Known Maximum Trip Count        : 4294967295
     433                    ;*   Known Max Trip Count Factor     : 1
     434                    ;* --------------------------------------------------------------------------*
     435 000000b4           ||$C$L6||:    
     436                            .dwpsn  file "../Scoreboard.c",line 78,column 13,is_stmt,isa 1
     437                    ;----------------------------------------------------------------------
     438                    ;  78 | RAMScoreboard[j].first = RAMScoreboard[j-1].first;                     
     439                    ;----------------------------------------------------------------------
     440 000000b4 9804              LDR       A1, [SP, #16]         ; [DPU_V7M3_PIPE] |78|  ; [ORIG 16-BIT INS]
TI ARM Assembler PC v20.2.7 Fri Jan 17 11:31:07 2025

Copyright (c) 1996-2018 Texas Instruments Incorporated
Scoreboard.asm                                                       PAGE    9

     441 000000b6 4987              LDR       A2, $C$CON2           ; [DPU_V7M3_PIPE] |78|  ; [ORIG 16-BIT INS]
     442 000000b8 9A04              LDR       A3, [SP, #16]         ; [DPU_V7M3_PIPE] |78|  ; [ORIG 16-BIT INS]
     443 000000ba 4B86              LDR       A4, $C$CON2           ; [DPU_V7M3_PIPE] |78|  ; [ORIG 16-BIT INS]
     444 000000bc 00C0              LSLS      A1, A1, #3            ; [DPU_V7M3_PIPE] |78|  ; [ORIG 16-BIT INS]
     445 000000be 3808              SUBS      A1, A1, #8            ; [DPU_V7M3_PIPE] |78|  ; [ORIG 16-BIT INS]
     446 000000c0 5C08              LDRB      A1, [A2, +A1]         ; [DPU_V7M3_PIPE] |78|  ; [ORIG 16-BIT INS]
     447 000000c2 0032F803          STRB      A1, [A4, +A3, LSL #3] ; [DPU_V7M3_PIPE] |78|  ; [KEEP 32-BIT INS]
     448                            .dwpsn  file "../Scoreboard.c",line 79,column 13,is_stmt,isa 1
     449                    ;----------------------------------------------------------------------
     450                    ;  79 | RAMScoreboard[j].middle = RAMScoreboard[j-1].middle;                   
     451                    ;----------------------------------------------------------------------
     452 000000c6 9804              LDR       A1, [SP, #16]         ; [DPU_V7M3_PIPE] |79|  ; [ORIG 16-BIT INS]
     453 000000c8 4983              LDR       A2, $C$CON3           ; [DPU_V7M3_PIPE] |79|  ; [ORIG 16-BIT INS]
     454 000000ca 9A04              LDR       A3, [SP, #16]         ; [DPU_V7M3_PIPE] |79|  ; [ORIG 16-BIT INS]
     455 000000cc 4B82              LDR       A4, $C$CON3           ; [DPU_V7M3_PIPE] |79|  ; [ORIG 16-BIT INS]
     456 000000ce 00C0              LSLS      A1, A1, #3            ; [DPU_V7M3_PIPE] |79|  ; [ORIG 16-BIT INS]
     457 000000d0 3808              SUBS      A1, A1, #8            ; [DPU_V7M3_PIPE] |79|  ; [ORIG 16-BIT INS]
     458 000000d2 5C08              LDRB      A1, [A2, +A1]         ; [DPU_V7M3_PIPE] |79|  ; [ORIG 16-BIT INS]
     459 000000d4 0032F803          STRB      A1, [A4, +A3, LSL #3] ; [DPU_V7M3_PIPE] |79|  ; [KEEP 32-BIT INS]
     460                            .dwpsn  file "../Scoreboard.c",line 80,column 13,is_stmt,isa 1
     461                    ;----------------------------------------------------------------------
     462                    ;  80 | RAMScoreboard[j].last = RAMScoreboard[j-1].last;                       
     463                    ;----------------------------------------------------------------------
     464 000000d8 9804              LDR       A1, [SP, #16]         ; [DPU_V7M3_PIPE] |80|  ; [ORIG 16-BIT INS]
     465 000000da 4980              LDR       A2, $C$CON4           ; [DPU_V7M3_PIPE] |80|  ; [ORIG 16-BIT INS]
     466 000000dc 9A04              LDR       A3, [SP, #16]         ; [DPU_V7M3_PIPE] |80|  ; [ORIG 16-BIT INS]
     467 000000de 4B7F              LDR       A4, $C$CON4           ; [DPU_V7M3_PIPE] |80|  ; [ORIG 16-BIT INS]
     468 000000e0 00C0              LSLS      A1, A1, #3            ; [DPU_V7M3_PIPE] |80|  ; [ORIG 16-BIT INS]
     469 000000e2 3808              SUBS      A1, A1, #8            ; [DPU_V7M3_PIPE] |80|  ; [ORIG 16-BIT INS]
     470 000000e4 5C08              LDRB      A1, [A2, +A1]         ; [DPU_V7M3_PIPE] |80|  ; [ORIG 16-BIT INS]
     471 000000e6 0032F803          STRB      A1, [A4, +A3, LSL #3] ; [DPU_V7M3_PIPE] |80|  ; [KEEP 32-BIT INS]
     472                            .dwpsn  file "../Scoreboard.c",line 81,column 13,is_stmt,isa 1
     473                    ;----------------------------------------------------------------------
     474                    ;  81 | RAMScoreboard[j].score = RAMScoreboard[j-1].score;                     
     475                    ;  83 | // insert the new score in the RAM scoreboard                          
     476                    ;----------------------------------------------------------------------
     477 000000ea 9804              LDR       A1, [SP, #16]         ; [DPU_V7M3_PIPE] |81|  ; [ORIG 16-BIT INS]
     478 000000ec 497C              LDR       A2, $C$CON5           ; [DPU_V7M3_PIPE] |81|  ; [ORIG 16-BIT INS]
     479 000000ee 9A04              LDR       A3, [SP, #16]         ; [DPU_V7M3_PIPE] |81|  ; [ORIG 16-BIT INS]
     480 000000f0 4B7B              LDR       A4, $C$CON5           ; [DPU_V7M3_PIPE] |81|  ; [ORIG 16-BIT INS]
     481 000000f2 00C0              LSLS      A1, A1, #3            ; [DPU_V7M3_PIPE] |81|  ; [ORIG 16-BIT INS]
     482 000000f4 3808              SUBS      A1, A1, #8            ; [DPU_V7M3_PIPE] |81|  ; [ORIG 16-BIT INS]
     483 000000f6 5808              LDR       A1, [A2, +A1]         ; [DPU_V7M3_PIPE] |81|  ; [ORIG 16-BIT INS]
     484 000000f8 0032F843          STR       A1, [A4, +A3, LSL #3] ; [DPU_V7M3_PIPE] |81|  ; [KEEP 32-BIT INS]
     485                            .dwpsn  file "../Scoreboard.c",line 77,column 42,is_stmt,isa 1
     486 000000fc 9804              LDR       A1, [SP, #16]         ; [DPU_V7M3_PIPE] |77|  ; [ORIG 16-BIT INS]
     487 000000fe 1E40              SUBS      A1, A1, #1            ; [DPU_V7M3_PIPE] |77|  ; [ORIG 16-BIT INS]
     488 00000100 9004              STR       A1, [SP, #16]         ; [DPU_V7M3_PIPE] |77|  ; [ORIG 16-BIT INS]
     489                            .dwpsn  file "../Scoreboard.c",line 77,column 37,is_stmt,isa 1
     490 00000102 9803              LDR       A1, [SP, #12]         ; [DPU_V7M3_PIPE] |77|  ; [ORIG 16-BIT INS]
     491 00000104 9904              LDR       A2, [SP, #16]         ; [DPU_V7M3_PIPE] |77|  ; [ORIG 16-BIT INS]
     492 00000106 4288              CMP       A1, A2                ; [DPU_V7M3_PIPE] |77|  ; [ORIG 16-BIT INS]
     493 00000108 DBD4              BLT       ||$C$L6||             ; [DPU_V7M3_PIPE] |77|  ; [ORIG 16-BIT INS]
     494                            ; BRANCHCC OCCURS {||$C$L6||}    ; [] |77| 
     495                    ;* --------------------------------------------------------------------------*
TI ARM Assembler PC v20.2.7 Fri Jan 17 11:31:07 2025

Copyright (c) 1996-2018 Texas Instruments Incorporated
Scoreboard.asm                                                       PAGE   10

     496 0000010a           ||$C$L7||:    
     497                            .dwpsn  file "../Scoreboard.c",line 84,column 11,is_stmt,isa 1
     498                    ;----------------------------------------------------------------------
     499                    ;  84 | RAMScoreboard[i].first = (initials&0xFF000000)>>24;                    
     500                    ;----------------------------------------------------------------------
     501 0000010a 9801              LDR       A1, [SP, #4]          ; [DPU_V7M3_PIPE] |84|  ; [ORIG 16-BIT INS]
     502 0000010c 9903              LDR       A2, [SP, #12]         ; [DPU_V7M3_PIPE] |84|  ; [ORIG 16-BIT INS]
     503 0000010e 4A71              LDR       A3, $C$CON2           ; [DPU_V7M3_PIPE] |84|  ; [ORIG 16-BIT INS]
     504 00000110 407FF000          AND       A1, A1, #-16777216    ; [DPU_V7M3_PIPE] |84|  ; [KEEP 32-BIT INS]
     505 00000114 0E00              LSRS      A1, A1, #24           ; [DPU_V7M3_PIPE] |84|  ; [ORIG 16-BIT INS]
     506 00000116 0031F802          STRB      A1, [A3, +A2, LSL #3] ; [DPU_V7M3_PIPE] |84|  ; [KEEP 32-BIT INS]
     507                            .dwpsn  file "../Scoreboard.c",line 85,column 11,is_stmt,isa 1
     508                    ;----------------------------------------------------------------------
     509                    ;  85 | RAMScoreboard[i].middle = (initials&0x00FF0000)>>16;                   
     510                    ;----------------------------------------------------------------------
     511 0000011a 9801              LDR       A1, [SP, #4]          ; [DPU_V7M3_PIPE] |85|  ; [ORIG 16-BIT INS]
     512 0000011c 9903              LDR       A2, [SP, #12]         ; [DPU_V7M3_PIPE] |85|  ; [ORIG 16-BIT INS]
     513 0000011e 4A6E              LDR       A3, $C$CON3           ; [DPU_V7M3_PIPE] |85|  ; [ORIG 16-BIT INS]
     514 00000120 007FF400          AND       A1, A1, #16711680     ; [DPU_V7M3_PIPE] |85|  ; [KEEP 32-BIT INS]
     515 00000124 0C00              LSRS      A1, A1, #16           ; [DPU_V7M3_PIPE] |85|  ; [ORIG 16-BIT INS]
     516 00000126 0031F802          STRB      A1, [A3, +A2, LSL #3] ; [DPU_V7M3_PIPE] |85|  ; [KEEP 32-BIT INS]
     517                            .dwpsn  file "../Scoreboard.c",line 86,column 11,is_stmt,isa 1
     518                    ;----------------------------------------------------------------------
     519                    ;  86 | RAMScoreboard[i].last = (initials&0x0000FF00)>>8;                      
     520                    ;----------------------------------------------------------------------
     521 0000012a 9801              LDR       A1, [SP, #4]          ; [DPU_V7M3_PIPE] |86|  ; [ORIG 16-BIT INS]
     522 0000012c 9903              LDR       A2, [SP, #12]         ; [DPU_V7M3_PIPE] |86|  ; [ORIG 16-BIT INS]
     523 0000012e 4A6B              LDR       A3, $C$CON4           ; [DPU_V7M3_PIPE] |86|  ; [ORIG 16-BIT INS]
     524 00000130 407FF400          AND       A1, A1, #65280        ; [DPU_V7M3_PIPE] |86|  ; [KEEP 32-BIT INS]
     525 00000134 0A00              LSRS      A1, A1, #8            ; [DPU_V7M3_PIPE] |86|  ; [ORIG 16-BIT INS]
     526 00000136 0031F802          STRB      A1, [A3, +A2, LSL #3] ; [DPU_V7M3_PIPE] |86|  ; [KEEP 32-BIT INS]
     527                            .dwpsn  file "../Scoreboard.c",line 87,column 11,is_stmt,isa 1
     528                    ;----------------------------------------------------------------------
     529                    ;  87 | RAMScoreboard[i].score = score;                                        
     530                    ;  88 | // do not over-write all lower scores                                  
     531                    ;----------------------------------------------------------------------
     532 0000013a 9802              LDR       A1, [SP, #8]          ; [DPU_V7M3_PIPE] |87|  ; [ORIG 16-BIT INS]
     533 0000013c 9903              LDR       A2, [SP, #12]         ; [DPU_V7M3_PIPE] |87|  ; [ORIG 16-BIT INS]
     534 0000013e 4A68              LDR       A3, $C$CON5           ; [DPU_V7M3_PIPE] |87|  ; [ORIG 16-BIT INS]
     535 00000140 0031F842          STR       A1, [A3, +A2, LSL #3] ; [DPU_V7M3_PIPE] |87|  ; [KEEP 32-BIT INS]
     536                            .dwpsn  file "../Scoreboard.c",line 89,column 11,is_stmt,isa 1
     537                    ;----------------------------------------------------------------------
     538                    ;  89 | break;                                                                 
     539                    ;----------------------------------------------------------------------
     540 00000144 E005              B         ||$C$L9||             ; [DPU_V7M3_PIPE] |89|  ; [ORIG 16-BIT INS]
     541                            ; BRANCH OCCURS {||$C$L9||}      ; [] |89| 
     542                    ;* --------------------------------------------------------------------------*
     543 00000146           ||$C$L8||:    
     544                            .dwpsn  file "../Scoreboard.c",line 73,column 34,is_stmt,isa 1
     545 00000146 9803              LDR       A1, [SP, #12]         ; [DPU_V7M3_PIPE] |73|  ; [ORIG 16-BIT INS]
     546 00000148 1C40              ADDS      A1, A1, #1            ; [DPU_V7M3_PIPE] |73|  ; [ORIG 16-BIT INS]
     547 0000014a 9003              STR       A1, [SP, #12]         ; [DPU_V7M3_PIPE] |73|  ; [ORIG 16-BIT INS]
     548                            .dwpsn  file "../Scoreboard.c",line 73,column 16,is_stmt,isa 1
     549 0000014c 9803              LDR       A1, [SP, #12]         ; [DPU_V7M3_PIPE] |73|  ; [ORIG 16-BIT INS]
     550 0000014e 2805              CMP       A1, #5                ; [DPU_V7M3_PIPE] |73|  ; [ORIG 16-BIT INS]
TI ARM Assembler PC v20.2.7 Fri Jan 17 11:31:07 2025

Copyright (c) 1996-2018 Texas Instruments Incorporated
Scoreboard.asm                                                       PAGE   11

     551 00000150 DBA3              BLT       ||$C$L5||             ; [DPU_V7M3_PIPE] |73|  ; [ORIG 16-BIT INS]
     552                            ; BRANCHCC OCCURS {||$C$L5||}    ; [] |73| 
     553                    ;* --------------------------------------------------------------------------*
     554 00000152           ||$C$L9||:    
     555                            .dwpsn  file "../Scoreboard.c",line 92,column 7,is_stmt,isa 1
     556                    ;----------------------------------------------------------------------
     557                    ;  92 | boardptr = boardptr + 2;                                               
     558                    ;----------------------------------------------------------------------
     559 00000152 4875              LDR       A1, $C$CON7           ; [DPU_V7M3_PIPE] |92|  ; [ORIG 16-BIT INS]
     560 00000154 4974              LDR       A2, $C$CON7           ; [DPU_V7M3_PIPE] |92|  ; [ORIG 16-BIT INS]
     561 00000156 6800              LDR       A1, [A1, #0]          ; [DPU_V7M3_PIPE] |92|  ; [ORIG 16-BIT INS]
     562 00000158 3008              ADDS      A1, A1, #8            ; [DPU_V7M3_PIPE] |92|  ; [ORIG 16-BIT INS]
     563 0000015a 6008              STR       A1, [A2, #0]          ; [DPU_V7M3_PIPE] |92|  ; [ORIG 16-BIT INS]
     564                            .dwpsn  file "../Scoreboard.c",line 93,column 7,is_stmt,isa 1
     565                    ;----------------------------------------------------------------------
     566                    ;  93 | initials = *boardptr;                                                  
     567                    ;----------------------------------------------------------------------
     568 0000015c 4872              LDR       A1, $C$CON7           ; [DPU_V7M3_PIPE] |93|  ; [ORIG 16-BIT INS]
     569 0000015e 6800              LDR       A1, [A1, #0]          ; [DPU_V7M3_PIPE] |93|  ; [ORIG 16-BIT INS]
     570 00000160 6800              LDR       A1, [A1, #0]          ; [DPU_V7M3_PIPE] |93|  ; [ORIG 16-BIT INS]
     571 00000162 9001              STR       A1, [SP, #4]          ; [DPU_V7M3_PIPE] |93|  ; [ORIG 16-BIT INS]
     572                            .dwpsn  file "../Scoreboard.c",line 94,column 7,is_stmt,isa 1
     573                    ;----------------------------------------------------------------------
     574                    ;  94 | score = *(boardptr + 1);                                               
     575                    ;----------------------------------------------------------------------
     576 00000164 4870              LDR       A1, $C$CON7           ; [DPU_V7M3_PIPE] |94|  ; [ORIG 16-BIT INS]
     577 00000166 6800              LDR       A1, [A1, #0]          ; [DPU_V7M3_PIPE] |94|  ; [ORIG 16-BIT INS]
     578 00000168 6840              LDR       A1, [A1, #4]          ; [DPU_V7M3_PIPE] |94|  ; [ORIG 16-BIT INS]
     579 0000016a 9002              STR       A1, [SP, #8]          ; [DPU_V7M3_PIPE] |94|  ; [ORIG 16-BIT INS]
     580                    ;* --------------------------------------------------------------------------*
     581                    ;*   BEGIN LOOP ||$C$L10||
     582                    ;* --------------------------------------------------------------------------*
     583 0000016c           ||$C$L10||:    
     584                            .dwpsn  file "../Scoreboard.c",line 71,column 11,is_stmt,isa 1
     585 0000016c 9801              LDR       A1, [SP, #4]          ; [DPU_V7M3_PIPE] |71|  ; [ORIG 16-BIT INS]
     586 0000016e 0FFFF010          TST       A1, #255              ; [DPU_V7M3_PIPE] |71|  ; [KEEP 32-BIT INS]
     587 00000172 D107              BNE       ||$C$L11||            ; [DPU_V7M3_PIPE] |71|  ; [ORIG 16-BIT INS]
     588                            ; BRANCHCC OCCURS {||$C$L11||}   ; [] |71| 
     589                    ;* --------------------------------------------------------------------------*
     590 00000174 486B              LDR       A1, $C$CON6           ; [DPU_V7M3_PIPE] |71|  ; [ORIG 16-BIT INS]
     591 00000176 496C              LDR       A2, $C$CON7           ; [DPU_V7M3_PIPE] |71|  ; [ORIG 16-BIT INS]
     592 00000178 6800              LDR       A1, [A1, #0]          ; [DPU_V7M3_PIPE] |71|  ; [ORIG 16-BIT INS]
     593 0000017a 6809              LDR       A2, [A2, #0]          ; [DPU_V7M3_PIPE] |71|  ; [ORIG 16-BIT INS]
     594 0000017c 707EF500          ADD       A1, A1, #1016         ; [DPU_V7M3_PIPE] |71|  ; [KEEP 32-BIT INS]
     595 00000180 4288              CMP       A1, A2                ; [DPU_V7M3_PIPE] |71|  ; [ORIG 16-BIT INS]
     596 00000182 D285              BCS       ||$C$L4||             ; [DPU_V7M3_PIPE] |71|  ; [ORIG 16-BIT INS]
     597                            ; BRANCHCC OCCURS {||$C$L4||}    ; [] |71| 
     598                    ;* --------------------------------------------------------------------------*
     599 00000184           ||$C$L11||:    
     600                            .dwpsn  file "../Scoreboard.c",line 97,column 3,is_stmt,isa 1
     601                    ;----------------------------------------------------------------------
     602                    ;  97 | return RAMScoreboard;                                                  
     603                    ;----------------------------------------------------------------------
     604 00000184 4853              LDR       A1, $C$CON2           ; [DPU_V7M3_PIPE] |97|  ; [ORIG 16-BIT INS]
     605                            .dwpsn  file "../Scoreboard.c",line 98,column 1,is_stmt,isa 1
TI ARM Assembler PC v20.2.7 Fri Jan 17 11:31:07 2025

Copyright (c) 1996-2018 Texas Instruments Incorporated
Scoreboard.asm                                                       PAGE   12

     606 00000186 B005              ADD       SP, SP, #20           ; [DPU_V7M3_PIPE]  ; [ORIG 16-BIT INS]
     607                            .dwcfi  cfa_offset, 4
     608                    $C$DW$21        .dwtag  DW_TAG_TI_branch
     609                            .dwattr $C$DW$21, DW_AT_low_pc(0x00)
     610                            .dwattr $C$DW$21, DW_AT_TI_return
     611                    
     612 00000188 BD00              POP       {PC}                  ; [DPU_V7M3_PIPE]  ; [ORIG 16-BIT INS]
     613                            .dwcfi  cfa_offset, 0
     614                            ; BRANCH OCCURS                  ; [] 
     615                            .dwattr $C$DW$13, DW_AT_TI_end_file("../Scoreboard.c")
     616                            .dwattr $C$DW$13, DW_AT_TI_end_line(0x62)
     617                            .dwattr $C$DW$13, DW_AT_TI_end_column(0x01)
     618                            .dwendentry
     619                            .dwendtag $C$DW$13
     620                    
     621                    ;******************************************************************************
     622                    ;* CONSTANT TABLE                                                             *
     623                    ;******************************************************************************
     624 0000018a                   .sect   ".text"
     625                            .align  4
     626 0000018a FFFF46C0  ||$C$CON1||:    .bits           0x3ffff,32
         0000018e 00000003 
     627                    
     628 00000190                   .sect   ".text"
     629                            .clink
     630                            .thumbfunc Scoreboard_Record
     631 00000190                   .thumb
     632                            .global Scoreboard_Record
     633                    
     634                    $C$DW$22        .dwtag  DW_TAG_subprogram
     635                            .dwattr $C$DW$22, DW_AT_name("Scoreboard_Record")
     636                            .dwattr $C$DW$22, DW_AT_low_pc(Scoreboard_Record)
     637                            .dwattr $C$DW$22, DW_AT_high_pc(0x00)
     638                            .dwattr $C$DW$22, DW_AT_TI_symbol_name("Scoreboard_Record")
     639                            .dwattr $C$DW$22, DW_AT_external
     640                            .dwattr $C$DW$22, DW_AT_TI_begin_file("../Scoreboard.c")
     641                            .dwattr $C$DW$22, DW_AT_TI_begin_line(0x6c)
     642                            .dwattr $C$DW$22, DW_AT_TI_begin_column(0x06)
     643                            .dwattr $C$DW$22, DW_AT_decl_file("../Scoreboard.c")
     644                            .dwattr $C$DW$22, DW_AT_decl_line(0x6c)
     645                            .dwattr $C$DW$22, DW_AT_decl_column(0x06)
     646                            .dwattr $C$DW$22, DW_AT_TI_max_frame_size(0x20)
     647                            .dwpsn  file "../Scoreboard.c",line 108,column 75,is_stmt,address Scoreboard_Record,isa 1
     648                    
     649                            .dwfde $C$DW$CIE, Scoreboard_Record
     650                    $C$DW$23        .dwtag  DW_TAG_formal_parameter
     651                            .dwattr $C$DW$23, DW_AT_name("first")
     652                            .dwattr $C$DW$23, DW_AT_TI_symbol_name("first")
     653                            .dwattr $C$DW$23, DW_AT_type(*$C$DW$T$10)
     654                            .dwattr $C$DW$23, DW_AT_location[DW_OP_reg0]
     655                    
     656                    $C$DW$24        .dwtag  DW_TAG_formal_parameter
     657                            .dwattr $C$DW$24, DW_AT_name("middle")
     658                            .dwattr $C$DW$24, DW_AT_TI_symbol_name("middle")
     659                            .dwattr $C$DW$24, DW_AT_type(*$C$DW$T$10)
TI ARM Assembler PC v20.2.7 Fri Jan 17 11:31:07 2025

Copyright (c) 1996-2018 Texas Instruments Incorporated
Scoreboard.asm                                                       PAGE   13

     660                            .dwattr $C$DW$24, DW_AT_location[DW_OP_reg1]
     661                    
     662                    $C$DW$25        .dwtag  DW_TAG_formal_parameter
     663                            .dwattr $C$DW$25, DW_AT_name("last")
     664                            .dwattr $C$DW$25, DW_AT_TI_symbol_name("last")
     665                            .dwattr $C$DW$25, DW_AT_type(*$C$DW$T$10)
     666                            .dwattr $C$DW$25, DW_AT_location[DW_OP_reg2]
     667                    
     668                    $C$DW$26        .dwtag  DW_TAG_formal_parameter
     669                            .dwattr $C$DW$26, DW_AT_name("score")
     670                            .dwattr $C$DW$26, DW_AT_TI_symbol_name("score")
     671                            .dwattr $C$DW$26, DW_AT_type(*$C$DW$T$24)
     672                            .dwattr $C$DW$26, DW_AT_location[DW_OP_reg3]
     673                    
     674                    
     675                    ;*****************************************************************************
     676                    ;* FUNCTION NAME: Scoreboard_Record                                          *
     677                    ;*                                                                           *
     678                    ;*   Regs Modified     : A1,A2,A3,A4,V1,V2,V3,V9,SP,LR,SR,D0,D0_hi,D1,D1_hi, *
     679                    ;*                           D2,D2_hi,D3,D3_hi,D4,D4_hi,D5,D5_hi,D6,D6_hi,D7,*
     680                    ;*                           D7_hi,FPEXC,FPSCR                               *
     681                    ;*   Regs Used         : A1,A2,A3,A4,V1,V2,V3,V9,SP,LR,SR,D0,D0_hi,D1,D1_hi, *
     682                    ;*                           D2,D2_hi,D3,D3_hi,D4,D4_hi,D5,D5_hi,D6,D6_hi,D7,*
     683                    ;*                           D7_hi,FPEXC,FPSCR                               *
     684                    ;*   Local Frame Size  : 0 Args + 16 Auto + 16 Save = 32 byte                *
     685                    ;*****************************************************************************
     686 00000190           Scoreboard_Record:
     687                    ;* --------------------------------------------------------------------------*
     688                            .dwcfi  cfa_offset, 0
     689 00000190 B57F              PUSH      {A1, A2, A3, A4, V1, V2, V3, LR} ; [DPU_V7M3_PIPE]  ; [ORIG 16-BIT INS]
     690                            .dwcfi  cfa_offset, 32
     691                            .dwcfi  save_reg_to_mem, 14, -4
     692                            .dwcfi  save_reg_to_mem, 6, -8
     693                            .dwcfi  save_reg_to_mem, 5, -12
     694                            .dwcfi  save_reg_to_mem, 4, -16
     695                            .dwcfi  save_reg_to_mem, 3, -20
     696                            .dwcfi  save_reg_to_mem, 2, -24
     697                            .dwcfi  save_reg_to_mem, 1, -28
     698                            .dwcfi  save_reg_to_mem, 0, -32
     699                    $C$DW$27        .dwtag  DW_TAG_variable
     700                            .dwattr $C$DW$27, DW_AT_name("score")
     701                            .dwattr $C$DW$27, DW_AT_TI_symbol_name("score")
     702                            .dwattr $C$DW$27, DW_AT_type(*$C$DW$T$24)
     703                            .dwattr $C$DW$27, DW_AT_location[DW_OP_breg13 0]
     704                    
     705                    $C$DW$28        .dwtag  DW_TAG_variable
     706                            .dwattr $C$DW$28, DW_AT_name("i")
     707                            .dwattr $C$DW$28, DW_AT_TI_symbol_name("i")
     708                            .dwattr $C$DW$28, DW_AT_type(*$C$DW$T$10)
     709                            .dwattr $C$DW$28, DW_AT_location[DW_OP_breg13 4]
     710                    
     711                    $C$DW$29        .dwtag  DW_TAG_variable
     712                            .dwattr $C$DW$29, DW_AT_name("j")
     713                            .dwattr $C$DW$29, DW_AT_TI_symbol_name("j")
     714                            .dwattr $C$DW$29, DW_AT_type(*$C$DW$T$10)
TI ARM Assembler PC v20.2.7 Fri Jan 17 11:31:07 2025

Copyright (c) 1996-2018 Texas Instruments Incorporated
Scoreboard.asm                                                       PAGE   14

     715                            .dwattr $C$DW$29, DW_AT_location[DW_OP_breg13 8]
     716                    
     717                    $C$DW$30        .dwtag  DW_TAG_variable
     718                            .dwattr $C$DW$30, DW_AT_name("first")
     719                            .dwattr $C$DW$30, DW_AT_TI_symbol_name("first")
     720                            .dwattr $C$DW$30, DW_AT_type(*$C$DW$T$6)
     721                            .dwattr $C$DW$30, DW_AT_location[DW_OP_breg13 12]
     722                    
     723                    $C$DW$31        .dwtag  DW_TAG_variable
     724                            .dwattr $C$DW$31, DW_AT_name("middle")
     725                            .dwattr $C$DW$31, DW_AT_TI_symbol_name("middle")
     726                            .dwattr $C$DW$31, DW_AT_type(*$C$DW$T$6)
     727                            .dwattr $C$DW$31, DW_AT_location[DW_OP_breg13 13]
     728                    
     729                    $C$DW$32        .dwtag  DW_TAG_variable
     730                            .dwattr $C$DW$32, DW_AT_name("last")
     731                            .dwattr $C$DW$32, DW_AT_TI_symbol_name("last")
     732                            .dwattr $C$DW$32, DW_AT_type(*$C$DW$T$6)
     733                            .dwattr $C$DW$32, DW_AT_location[DW_OP_breg13 14]
     734                    
     735                    ;----------------------------------------------------------------------
     736                    ; 108 | void Scoreboard_Record(char first, char middle, char last, uint32_t sco
     737                    ;     | re){                                                                   
     738                    ; 109 | int i, j;                                                              
     739                    ; 110 | // compare the score with the RAM scoreboard so far                    
     740                    ;----------------------------------------------------------------------
     741 00000192 9300              STR       A4, [SP, #0]          ; [DPU_V7M3_PIPE] |108|  ; [ORIG 16-BIT INS]
     742 00000194 200EF88D          STRB      A3, [SP, #14]         ; [DPU_V7M3_PIPE] |108|  ; [KEEP 32-BIT INS]
     743 00000198 100DF88D          STRB      A2, [SP, #13]         ; [DPU_V7M3_PIPE] |108|  ; [KEEP 32-BIT INS]
     744 0000019c 000CF88D          STRB      A1, [SP, #12]         ; [DPU_V7M3_PIPE] |108|  ; [KEEP 32-BIT INS]
     745                            .dwpsn  file "../Scoreboard.c",line 111,column 7,is_stmt,isa 1
     746                    ;----------------------------------------------------------------------
     747                    ; 111 | for(i=0; i<SCOREBOARDSIZE; i=i+1){                                     
     748                    ;----------------------------------------------------------------------
     749 000001a0 2000              MOVS      A1, #0                ; [DPU_V7M3_PIPE] |111|  ; [ORIG 16-BIT INS]
     750 000001a2 9001              STR       A1, [SP, #4]          ; [DPU_V7M3_PIPE] |111|  ; [ORIG 16-BIT INS]
     751                            .dwpsn  file "../Scoreboard.c",line 111,column 12,is_stmt,isa 1
     752 000001a4 9801              LDR       A1, [SP, #4]          ; [DPU_V7M3_PIPE] |111|  ; [ORIG 16-BIT INS]
     753 000001a6 2805              CMP       A1, #5                ; [DPU_V7M3_PIPE] |111|  ; [ORIG 16-BIT INS]
     754 000001a8 DA55              BGE       ||$C$L16||            ; [DPU_V7M3_PIPE] |111|  ; [ORIG 16-BIT INS]
     755                            ; BRANCHCC OCCURS {||$C$L16||}   ; [] |111| 
     756                    ;* --------------------------------------------------------------------------*
     757                    ;*   BEGIN LOOP ||$C$L12||
     758                    ;*
     759                    ;*   Loop source line                : 111
     760                    ;*   Loop closing brace source line  : 129
     761                    ;*   Known Minimum Trip Count        : 1
     762                    ;*   Known Maximum Trip Count        : 4294967295
     763                    ;*   Known Max Trip Count Factor     : 1
     764                    ;* --------------------------------------------------------------------------*
     765 000001aa           ||$C$L12||:    
     766                            .dwpsn  file "../Scoreboard.c",line 112,column 5,is_stmt,isa 1
     767                    ;----------------------------------------------------------------------
     768                    ; 112 | if(score > RAMScoreboard[i].score){                                    
     769                    ; 113 |   // found a score better than one in RAM                              
TI ARM Assembler PC v20.2.7 Fri Jan 17 11:31:07 2025

Copyright (c) 1996-2018 Texas Instruments Incorporated
Scoreboard.asm                                                       PAGE   15

     770                    ; 114 |   // shift all lower scores down                                       
     771                    ;----------------------------------------------------------------------
     772 000001aa 9801              LDR       A1, [SP, #4]          ; [DPU_V7M3_PIPE] |112|  ; [ORIG 16-BIT INS]
     773 000001ac 4A4C              LDR       A3, $C$CON5           ; [DPU_V7M3_PIPE] |112|  ; [ORIG 16-BIT INS]
     774 000001ae 9900              LDR       A2, [SP, #0]          ; [DPU_V7M3_PIPE] |112|  ; [ORIG 16-BIT INS]
     775 000001b0 0030F852          LDR       A1, [A3, +A1, LSL #3] ; [DPU_V7M3_PIPE] |112|  ; [KEEP 32-BIT INS]
     776 000001b4 4288              CMP       A1, A2                ; [DPU_V7M3_PIPE] |112|  ; [ORIG 16-BIT INS]
     777 000001b6 D248              BCS       ||$C$L15||            ; [DPU_V7M3_PIPE] |112|  ; [ORIG 16-BIT INS]
     778                            ; BRANCHCC OCCURS {||$C$L15||}   ; [] |112| 
     779                    ;* --------------------------------------------------------------------------*
     780                            .dwpsn  file "../Scoreboard.c",line 115,column 11,is_stmt,isa 1
     781                    ;----------------------------------------------------------------------
     782                    ; 115 | for(j=(SCOREBOARDSIZE-1); j>i; j=j-1){                                 
     783                    ;----------------------------------------------------------------------
     784 000001b8 2004              MOVS      A1, #4                ; [DPU_V7M3_PIPE] |115|  ; [ORIG 16-BIT INS]
     785 000001ba 9002              STR       A1, [SP, #8]          ; [DPU_V7M3_PIPE] |115|  ; [ORIG 16-BIT INS]
     786                            .dwpsn  file "../Scoreboard.c",line 115,column 33,is_stmt,isa 1
     787 000001bc 9801              LDR       A1, [SP, #4]          ; [DPU_V7M3_PIPE] |115|  ; [ORIG 16-BIT INS]
     788 000001be 9902              LDR       A2, [SP, #8]          ; [DPU_V7M3_PIPE] |115|  ; [ORIG 16-BIT INS]
     789 000001c0 4288              CMP       A1, A2                ; [DPU_V7M3_PIPE] |115|  ; [ORIG 16-BIT INS]
     790 000001c2 DA2A              BGE       ||$C$L14||            ; [DPU_V7M3_PIPE] |115|  ; [ORIG 16-BIT INS]
     791                            ; BRANCHCC OCCURS {||$C$L14||}   ; [] |115| 
     792                    ;* --------------------------------------------------------------------------*
     793                    ;*   BEGIN LOOP ||$C$L13||
     794                    ;*
     795                    ;*   Loop source line                : 115
     796                    ;*   Loop closing brace source line  : 120
     797                    ;*   Known Minimum Trip Count        : 1
     798                    ;*   Known Maximum Trip Count        : 4294967295
     799                    ;*   Known Max Trip Count Factor     : 1
     800                    ;* --------------------------------------------------------------------------*
     801 000001c4           ||$C$L13||:    
     802                            .dwpsn  file "../Scoreboard.c",line 116,column 9,is_stmt,isa 1
     803                    ;----------------------------------------------------------------------
     804                    ; 116 | RAMScoreboard[j].first = RAMScoreboard[j-1].first;                     
     805                    ;----------------------------------------------------------------------
     806 000001c4 9802              LDR       A1, [SP, #8]          ; [DPU_V7M3_PIPE] |116|  ; [ORIG 16-BIT INS]
     807 000001c6 4943              LDR       A2, $C$CON2           ; [DPU_V7M3_PIPE] |116|  ; [ORIG 16-BIT INS]
     808 000001c8 9A02              LDR       A3, [SP, #8]          ; [DPU_V7M3_PIPE] |116|  ; [ORIG 16-BIT INS]
     809 000001ca 4B42              LDR       A4, $C$CON2           ; [DPU_V7M3_PIPE] |116|  ; [ORIG 16-BIT INS]
     810 000001cc 00C0              LSLS      A1, A1, #3            ; [DPU_V7M3_PIPE] |116|  ; [ORIG 16-BIT INS]
     811 000001ce 3808              SUBS      A1, A1, #8            ; [DPU_V7M3_PIPE] |116|  ; [ORIG 16-BIT INS]
     812 000001d0 5C08              LDRB      A1, [A2, +A1]         ; [DPU_V7M3_PIPE] |116|  ; [ORIG 16-BIT INS]
     813 000001d2 0032F803          STRB      A1, [A4, +A3, LSL #3] ; [DPU_V7M3_PIPE] |116|  ; [KEEP 32-BIT INS]
     814                            .dwpsn  file "../Scoreboard.c",line 117,column 9,is_stmt,isa 1
     815                    ;----------------------------------------------------------------------
     816                    ; 117 | RAMScoreboard[j].middle = RAMScoreboard[j-1].middle;                   
     817                    ;----------------------------------------------------------------------
     818 000001d6 9802              LDR       A1, [SP, #8]          ; [DPU_V7M3_PIPE] |117|  ; [ORIG 16-BIT INS]
     819 000001d8 493F              LDR       A2, $C$CON3           ; [DPU_V7M3_PIPE] |117|  ; [ORIG 16-BIT INS]
     820 000001da 9A02              LDR       A3, [SP, #8]          ; [DPU_V7M3_PIPE] |117|  ; [ORIG 16-BIT INS]
     821 000001dc 4B3E              LDR       A4, $C$CON3           ; [DPU_V7M3_PIPE] |117|  ; [ORIG 16-BIT INS]
     822 000001de 00C0              LSLS      A1, A1, #3            ; [DPU_V7M3_PIPE] |117|  ; [ORIG 16-BIT INS]
     823 000001e0 3808              SUBS      A1, A1, #8            ; [DPU_V7M3_PIPE] |117|  ; [ORIG 16-BIT INS]
     824 000001e2 5C08              LDRB      A1, [A2, +A1]         ; [DPU_V7M3_PIPE] |117|  ; [ORIG 16-BIT INS]
TI ARM Assembler PC v20.2.7 Fri Jan 17 11:31:07 2025

Copyright (c) 1996-2018 Texas Instruments Incorporated
Scoreboard.asm                                                       PAGE   16

     825 000001e4 0032F803          STRB      A1, [A4, +A3, LSL #3] ; [DPU_V7M3_PIPE] |117|  ; [KEEP 32-BIT INS]
     826                            .dwpsn  file "../Scoreboard.c",line 118,column 9,is_stmt,isa 1
     827                    ;----------------------------------------------------------------------
     828                    ; 118 | RAMScoreboard[j].last = RAMScoreboard[j-1].last;                       
     829                    ;----------------------------------------------------------------------
     830 000001e8 9802              LDR       A1, [SP, #8]          ; [DPU_V7M3_PIPE] |118|  ; [ORIG 16-BIT INS]
     831 000001ea 493C              LDR       A2, $C$CON4           ; [DPU_V7M3_PIPE] |118|  ; [ORIG 16-BIT INS]
     832 000001ec 9A02              LDR       A3, [SP, #8]          ; [DPU_V7M3_PIPE] |118|  ; [ORIG 16-BIT INS]
     833 000001ee 4B3B              LDR       A4, $C$CON4           ; [DPU_V7M3_PIPE] |118|  ; [ORIG 16-BIT INS]
     834 000001f0 00C0              LSLS      A1, A1, #3            ; [DPU_V7M3_PIPE] |118|  ; [ORIG 16-BIT INS]
     835 000001f2 3808              SUBS      A1, A1, #8            ; [DPU_V7M3_PIPE] |118|  ; [ORIG 16-BIT INS]
     836 000001f4 5C08              LDRB      A1, [A2, +A1]         ; [DPU_V7M3_PIPE] |118|  ; [ORIG 16-BIT INS]
     837 000001f6 0032F803          STRB      A1, [A4, +A3, LSL #3] ; [DPU_V7M3_PIPE] |118|  ; [KEEP 32-BIT INS]
     838                            .dwpsn  file "../Scoreboard.c",line 119,column 9,is_stmt,isa 1
     839                    ;----------------------------------------------------------------------
     840                    ; 119 | RAMScoreboard[j].score = RAMScoreboard[j-1].score;                     
     841                    ; 121 | // insert the new score in the RAM scoreboard                          
     842                    ;----------------------------------------------------------------------
     843 000001fa 9802              LDR       A1, [SP, #8]          ; [DPU_V7M3_PIPE] |119|  ; [ORIG 16-BIT INS]
     844 000001fc 4938              LDR       A2, $C$CON5           ; [DPU_V7M3_PIPE] |119|  ; [ORIG 16-BIT INS]
     845 000001fe 9A02              LDR       A3, [SP, #8]          ; [DPU_V7M3_PIPE] |119|  ; [ORIG 16-BIT INS]
     846 00000200 4B37              LDR       A4, $C$CON5           ; [DPU_V7M3_PIPE] |119|  ; [ORIG 16-BIT INS]
     847 00000202 00C0              LSLS      A1, A1, #3            ; [DPU_V7M3_PIPE] |119|  ; [ORIG 16-BIT INS]
     848 00000204 3808              SUBS      A1, A1, #8            ; [DPU_V7M3_PIPE] |119|  ; [ORIG 16-BIT INS]
     849 00000206 5808              LDR       A1, [A2, +A1]         ; [DPU_V7M3_PIPE] |119|  ; [ORIG 16-BIT INS]
     850 00000208 0032F843          STR       A1, [A4, +A3, LSL #3] ; [DPU_V7M3_PIPE] |119|  ; [KEEP 32-BIT INS]
     851                            .dwpsn  file "../Scoreboard.c",line 115,column 38,is_stmt,isa 1
     852 0000020c 9802              LDR       A1, [SP, #8]          ; [DPU_V7M3_PIPE] |115|  ; [ORIG 16-BIT INS]
     853 0000020e 1E40              SUBS      A1, A1, #1            ; [DPU_V7M3_PIPE] |115|  ; [ORIG 16-BIT INS]
     854 00000210 9002              STR       A1, [SP, #8]          ; [DPU_V7M3_PIPE] |115|  ; [ORIG 16-BIT INS]
     855                            .dwpsn  file "../Scoreboard.c",line 115,column 33,is_stmt,isa 1
     856 00000212 9801              LDR       A1, [SP, #4]          ; [DPU_V7M3_PIPE] |115|  ; [ORIG 16-BIT INS]
     857 00000214 9902              LDR       A2, [SP, #8]          ; [DPU_V7M3_PIPE] |115|  ; [ORIG 16-BIT INS]
     858 00000216 4288              CMP       A1, A2                ; [DPU_V7M3_PIPE] |115|  ; [ORIG 16-BIT INS]
     859 00000218 DBD4              BLT       ||$C$L13||            ; [DPU_V7M3_PIPE] |115|  ; [ORIG 16-BIT INS]
     860                            ; BRANCHCC OCCURS {||$C$L13||}   ; [] |115| 
     861                    ;* --------------------------------------------------------------------------*
     862 0000021a           ||$C$L14||:    
     863                            .dwpsn  file "../Scoreboard.c",line 122,column 7,is_stmt,isa 1
     864                    ;----------------------------------------------------------------------
     865                    ; 122 | RAMScoreboard[i].first = first;                                        
     866                    ;----------------------------------------------------------------------
     867 0000021a 9901              LDR       A2, [SP, #4]          ; [DPU_V7M3_PIPE] |122|  ; [ORIG 16-BIT INS]
     868 0000021c 4A2D              LDR       A3, $C$CON2           ; [DPU_V7M3_PIPE] |122|  ; [ORIG 16-BIT INS]
     869 0000021e 000CF89D          LDRB      A1, [SP, #12]         ; [DPU_V7M3_PIPE] |122|  ; [KEEP 32-BIT INS]
     870 00000222 0031F802          STRB      A1, [A3, +A2, LSL #3] ; [DPU_V7M3_PIPE] |122|  ; [KEEP 32-BIT INS]
     871                            .dwpsn  file "../Scoreboard.c",line 123,column 7,is_stmt,isa 1
     872                    ;----------------------------------------------------------------------
     873                    ; 123 | RAMScoreboard[i].middle = middle;                                      
     874                    ;----------------------------------------------------------------------
     875 00000226 9901              LDR       A2, [SP, #4]          ; [DPU_V7M3_PIPE] |123|  ; [ORIG 16-BIT INS]
     876 00000228 4A2B              LDR       A3, $C$CON3           ; [DPU_V7M3_PIPE] |123|  ; [ORIG 16-BIT INS]
     877 0000022a 000DF89D          LDRB      A1, [SP, #13]         ; [DPU_V7M3_PIPE] |123|  ; [KEEP 32-BIT INS]
     878 0000022e 0031F802          STRB      A1, [A3, +A2, LSL #3] ; [DPU_V7M3_PIPE] |123|  ; [KEEP 32-BIT INS]
     879                            .dwpsn  file "../Scoreboard.c",line 124,column 7,is_stmt,isa 1
TI ARM Assembler PC v20.2.7 Fri Jan 17 11:31:07 2025

Copyright (c) 1996-2018 Texas Instruments Incorporated
Scoreboard.asm                                                       PAGE   17

     880                    ;----------------------------------------------------------------------
     881                    ; 124 | RAMScoreboard[i].last = last;                                          
     882                    ;----------------------------------------------------------------------
     883 00000232 9901              LDR       A2, [SP, #4]          ; [DPU_V7M3_PIPE] |124|  ; [ORIG 16-BIT INS]
     884 00000234 4A29              LDR       A3, $C$CON4           ; [DPU_V7M3_PIPE] |124|  ; [ORIG 16-BIT INS]
     885 00000236 000EF89D          LDRB      A1, [SP, #14]         ; [DPU_V7M3_PIPE] |124|  ; [KEEP 32-BIT INS]
     886 0000023a 0031F802          STRB      A1, [A3, +A2, LSL #3] ; [DPU_V7M3_PIPE] |124|  ; [KEEP 32-BIT INS]
     887                            .dwpsn  file "../Scoreboard.c",line 125,column 7,is_stmt,isa 1
     888                    ;----------------------------------------------------------------------
     889                    ; 125 | RAMScoreboard[i].score = score;                                        
     890                    ; 126 | // do not over-write all lower scores                                  
     891                    ;----------------------------------------------------------------------
     892 0000023e 9901              LDR       A2, [SP, #4]          ; [DPU_V7M3_PIPE] |125|  ; [ORIG 16-BIT INS]
     893 00000240 4A27              LDR       A3, $C$CON5           ; [DPU_V7M3_PIPE] |125|  ; [ORIG 16-BIT INS]
     894 00000242 9800              LDR       A1, [SP, #0]          ; [DPU_V7M3_PIPE] |125|  ; [ORIG 16-BIT INS]
     895 00000244 0031F842          STR       A1, [A3, +A2, LSL #3] ; [DPU_V7M3_PIPE] |125|  ; [KEEP 32-BIT INS]
     896                            .dwpsn  file "../Scoreboard.c",line 127,column 7,is_stmt,isa 1
     897                    ;----------------------------------------------------------------------
     898                    ; 127 | break;                                                                 
     899                    ;----------------------------------------------------------------------
     900 00000248 E005              B         ||$C$L16||            ; [DPU_V7M3_PIPE] |127|  ; [ORIG 16-BIT INS]
     901                            ; BRANCH OCCURS {||$C$L16||}     ; [] |127| 
     902                    ;* --------------------------------------------------------------------------*
     903 0000024a           ||$C$L15||:    
     904                            .dwpsn  file "../Scoreboard.c",line 111,column 30,is_stmt,isa 1
     905 0000024a 9801              LDR       A1, [SP, #4]          ; [DPU_V7M3_PIPE] |111|  ; [ORIG 16-BIT INS]
     906 0000024c 1C40              ADDS      A1, A1, #1            ; [DPU_V7M3_PIPE] |111|  ; [ORIG 16-BIT INS]
     907 0000024e 9001              STR       A1, [SP, #4]          ; [DPU_V7M3_PIPE] |111|  ; [ORIG 16-BIT INS]
     908                            .dwpsn  file "../Scoreboard.c",line 111,column 12,is_stmt,isa 1
     909 00000250 9801              LDR       A1, [SP, #4]          ; [DPU_V7M3_PIPE] |111|  ; [ORIG 16-BIT INS]
     910 00000252 2805              CMP       A1, #5                ; [DPU_V7M3_PIPE] |111|  ; [ORIG 16-BIT INS]
     911 00000254 DBA9              BLT       ||$C$L12||            ; [DPU_V7M3_PIPE] |111|  ; [ORIG 16-BIT INS]
     912                            ; BRANCHCC OCCURS {||$C$L12||}   ; [] |111| 
     913                    ;* --------------------------------------------------------------------------*
     914 00000256           ||$C$L16||:    
     915                            .dwpsn  file "../Scoreboard.c",line 130,column 3,is_stmt,isa 1
     916                    ;----------------------------------------------------------------------
     917                    ; 130 | if((boardptr <= (uint32_t *)(scoreblock + 0x3F8))){                    
     918                    ; 131 |   // there is still room in the block to hold more scores              
     919                    ; 132 |   // append the new score to the end of the scores in flash            
     920                    ;----------------------------------------------------------------------
     921 00000256 4833              LDR       A1, $C$CON6           ; [DPU_V7M3_PIPE] |130|  ; [ORIG 16-BIT INS]
     922 00000258 4933              LDR       A2, $C$CON7           ; [DPU_V7M3_PIPE] |130|  ; [ORIG 16-BIT INS]
     923 0000025a 6800              LDR       A1, [A1, #0]          ; [DPU_V7M3_PIPE] |130|  ; [ORIG 16-BIT INS]
     924 0000025c 6809              LDR       A2, [A2, #0]          ; [DPU_V7M3_PIPE] |130|  ; [ORIG 16-BIT INS]
     925 0000025e 707EF500          ADD       A1, A1, #1016         ; [DPU_V7M3_PIPE] |130|  ; [KEEP 32-BIT INS]
     926 00000262 4288              CMP       A1, A2                ; [DPU_V7M3_PIPE] |130|  ; [ORIG 16-BIT INS]
     927 00000264 D31A              BCC       ||$C$L17||            ; [DPU_V7M3_PIPE] |130|  ; [ORIG 16-BIT INS]
     928                            ; BRANCHCC OCCURS {||$C$L17||}   ; [] |130| 
     929                    ;* --------------------------------------------------------------------------*
     930                            .dwpsn  file "../Scoreboard.c",line 133,column 5,is_stmt,isa 1
     931                    ;----------------------------------------------------------------------
     932                    ; 133 | Flash_Write((uint32_t)boardptr, (first<<24)|(middle<<16)|(last<<8));   
     933                    ;----------------------------------------------------------------------
     934 00000266 4830              LDR       A1, $C$CON7           ; [DPU_V7M3_PIPE] |133|  ; [ORIG 16-BIT INS]
TI ARM Assembler PC v20.2.7 Fri Jan 17 11:31:07 2025

Copyright (c) 1996-2018 Texas Instruments Incorporated
Scoreboard.asm                                                       PAGE   18

     935 00000268 100CF89D          LDRB      A2, [SP, #12]         ; [DPU_V7M3_PIPE] |133|  ; [KEEP 32-BIT INS]
     936 0000026c 300DF89D          LDRB      A4, [SP, #13]         ; [DPU_V7M3_PIPE] |133|  ; [KEEP 32-BIT INS]
     937 00000270 200EF89D          LDRB      A3, [SP, #14]         ; [DPU_V7M3_PIPE] |133|  ; [KEEP 32-BIT INS]
     938 00000274 6800              LDR       A1, [A1, #0]          ; [DPU_V7M3_PIPE] |133|  ; [ORIG 16-BIT INS]
     939 00000276 0609              LSLS      A2, A2, #24           ; [DPU_V7M3_PIPE] |133|  ; [ORIG 16-BIT INS]
     940 00000278 4103EA41          ORR       A2, A2, A4, LSL #16   ; [DPU_V7M3_PIPE] |133|  ; [KEEP 32-BIT INS]
     941 0000027c 2102EA41          ORR       A2, A2, A3, LSL #8    ; [DPU_V7M3_PIPE] |133|  ; [KEEP 32-BIT INS]
     942                    $C$DW$33        .dwtag  DW_TAG_TI_branch
     943                            .dwattr $C$DW$33, DW_AT_low_pc(0x00)
     944                            .dwattr $C$DW$33, DW_AT_name("Flash_Write")
     945                            .dwattr $C$DW$33, DW_AT_TI_call
     946                    
     947 00000280 FFFEF7FF!         BL        Flash_Write           ; [DPU_V7M3_PIPE] |133|  ; [KEEP 32-BIT INS]
     948                            ; CALL OCCURS {Flash_Write }     ; [] |133| 
     949                            .dwpsn  file "../Scoreboard.c",line 134,column 5,is_stmt,isa 1
     950                    ;----------------------------------------------------------------------
     951                    ; 134 | Flash_Write((uint32_t)(boardptr + 1), score);                          
     952                    ;----------------------------------------------------------------------
     953 00000284 4828              LDR       A1, $C$CON7           ; [DPU_V7M3_PIPE] |134|  ; [ORIG 16-BIT INS]
     954 00000286 9900              LDR       A2, [SP, #0]          ; [DPU_V7M3_PIPE] |134|  ; [ORIG 16-BIT INS]
     955 00000288 6800              LDR       A1, [A1, #0]          ; [DPU_V7M3_PIPE] |134|  ; [ORIG 16-BIT INS]
     956 0000028a 1D00              ADDS      A1, A1, #4            ; [DPU_V7M3_PIPE] |134|  ; [ORIG 16-BIT INS]
     957                    $C$DW$34        .dwtag  DW_TAG_TI_branch
     958                            .dwattr $C$DW$34, DW_AT_low_pc(0x00)
     959                            .dwattr $C$DW$34, DW_AT_name("Flash_Write")
     960                            .dwattr $C$DW$34, DW_AT_TI_call
     961                    
     962 0000028c FFFEF7FF!         BL        Flash_Write           ; [DPU_V7M3_PIPE] |134|  ; [KEEP 32-BIT INS]
     963                            ; CALL OCCURS {Flash_Write }     ; [] |134| 
     964                            .dwpsn  file "../Scoreboard.c",line 135,column 5,is_stmt,isa 1
     965                    ;----------------------------------------------------------------------
     966                    ; 135 | boardptr = boardptr + 2;                                               
     967                    ; 136 | } else{                                                                
     968                    ; 137 | // there is no more room in the block to hold more scores              
     969                    ; 138 | // clear the block                                                     
     970                    ;----------------------------------------------------------------------
     971 00000290 4825              LDR       A1, $C$CON7           ; [DPU_V7M3_PIPE] |135|  ; [ORIG 16-BIT INS]
     972 00000292 4925              LDR       A2, $C$CON7           ; [DPU_V7M3_PIPE] |135|  ; [ORIG 16-BIT INS]
     973 00000294 6800              LDR       A1, [A1, #0]          ; [DPU_V7M3_PIPE] |135|  ; [ORIG 16-BIT INS]
     974 00000296 3008              ADDS      A1, A1, #8            ; [DPU_V7M3_PIPE] |135|  ; [ORIG 16-BIT INS]
     975 00000298 6008              STR       A1, [A2, #0]          ; [DPU_V7M3_PIPE] |135|  ; [ORIG 16-BIT INS]
     976 0000029a E03E              B         ||$C$L20||            ; [DPU_V7M3_PIPE]  ; [ORIG 16-BIT INS]
     977                            ; BRANCH OCCURS {||$C$L20||}     ; [] 
     978                    ;* --------------------------------------------------------------------------*
     979 0000029c           ||$C$L17||:    
     980                            .dwpsn  file "../Scoreboard.c",line 139,column 5,is_stmt,isa 1
     981                    ;----------------------------------------------------------------------
     982                    ; 139 | Flash_Erase(scoreblock);                                               
     983                    ;----------------------------------------------------------------------
     984 0000029c 4821              LDR       A1, $C$CON6           ; [DPU_V7M3_PIPE] |139|  ; [ORIG 16-BIT INS]
     985 0000029e 6800              LDR       A1, [A1, #0]          ; [DPU_V7M3_PIPE] |139|  ; [ORIG 16-BIT INS]
     986                    $C$DW$35        .dwtag  DW_TAG_TI_branch
     987                            .dwattr $C$DW$35, DW_AT_low_pc(0x00)
     988                            .dwattr $C$DW$35, DW_AT_name("Flash_Erase")
     989                            .dwattr $C$DW$35, DW_AT_TI_call
TI ARM Assembler PC v20.2.7 Fri Jan 17 11:31:07 2025

Copyright (c) 1996-2018 Texas Instruments Incorporated
Scoreboard.asm                                                       PAGE   19

     990                    
     991 000002a0 FFFEF7FF!         BL        Flash_Erase           ; [DPU_V7M3_PIPE] |139|  ; [KEEP 32-BIT INS]
     992                            ; CALL OCCURS {Flash_Erase }     ; [] |139| 
     993                            .dwpsn  file "../Scoreboard.c",line 140,column 5,is_stmt,isa 1
     994                    ;----------------------------------------------------------------------
     995                    ; 140 | boardptr = (uint32_t *)scoreblock;                                     
     996                    ; 141 | // store the top 'SCOREBOARDSIZE' scores from the RAM buffer           
     997                    ;----------------------------------------------------------------------
     998 000002a4 481F              LDR       A1, $C$CON6           ; [DPU_V7M3_PIPE] |140|  ; [ORIG 16-BIT INS]
     999 000002a6 4920              LDR       A2, $C$CON7           ; [DPU_V7M3_PIPE] |140|  ; [ORIG 16-BIT INS]
    1000 000002a8 6800              LDR       A1, [A1, #0]          ; [DPU_V7M3_PIPE] |140|  ; [ORIG 16-BIT INS]
    1001 000002aa 6008              STR       A1, [A2, #0]          ; [DPU_V7M3_PIPE] |140|  ; [ORIG 16-BIT INS]
    1002                            .dwpsn  file "../Scoreboard.c",line 142,column 9,is_stmt,isa 1
    1003                    ;----------------------------------------------------------------------
    1004                    ; 142 | for(i=0; i<SCOREBOARDSIZE; i=i+1){                                     
    1005                    ;----------------------------------------------------------------------
    1006 000002ac 2000              MOVS      A1, #0                ; [DPU_V7M3_PIPE] |142|  ; [ORIG 16-BIT INS]
    1007 000002ae 9001              STR       A1, [SP, #4]          ; [DPU_V7M3_PIPE] |142|  ; [ORIG 16-BIT INS]
    1008                            .dwpsn  file "../Scoreboard.c",line 142,column 14,is_stmt,isa 1
    1009 000002b0 9801              LDR       A1, [SP, #4]          ; [DPU_V7M3_PIPE] |142|  ; [ORIG 16-BIT INS]
    1010 000002b2 2805              CMP       A1, #5                ; [DPU_V7M3_PIPE] |142|  ; [ORIG 16-BIT INS]
    1011 000002b4 DA31              BGE       ||$C$L20||            ; [DPU_V7M3_PIPE] |142|  ; [ORIG 16-BIT INS]
    1012                            ; BRANCHCC OCCURS {||$C$L20||}   ; [] |142| 
    1013                    ;* --------------------------------------------------------------------------*
    1014                    ;*   BEGIN LOOP ||$C$L18||
    1015                    ;*
    1016                    ;*   Loop source line                : 142
    1017                    ;*   Loop closing brace source line  : 146
    1018                    ;*   Known Minimum Trip Count        : 1
    1019                    ;*   Known Maximum Trip Count        : 4294967295
    1020                    ;*   Known Max Trip Count Factor     : 1
    1021                    ;* --------------------------------------------------------------------------*
    1022 000002b6           ||$C$L18||:    
    1023                            .dwpsn  file "../Scoreboard.c",line 143,column 7,is_stmt,isa 1
    1024                    ;----------------------------------------------------------------------
    1025                    ; 143 | Flash_Write((uint32_t)boardptr, (RAMScoreboard[i].first<<24)|(RAMScoreb
    1026                    ;     | oard[i].middle<<16)|(RAMScoreboard[i].last<<8));                       
    1027                    ;----------------------------------------------------------------------
    1028 000002b6 9901              LDR       A2, [SP, #4]          ; [] |143|  ; [ORIG 16-BIT INS]
    1029 000002b8 4E06              LDR       V3, $C$CON2           ; [] |143|  ; [ORIG 16-BIT INS]
    1030 000002ba 9B01              LDR       A4, [SP, #4]          ; [] |143|  ; [ORIG 16-BIT INS]
    1031 000002bc 4D06              LDR       V2, $C$CON3           ; [] |143|  ; [ORIG 16-BIT INS]
    1032 000002be 481A              LDR       A1, $C$CON7           ; [] |143|  ; [ORIG 16-BIT INS]
    1033 000002c0 9A01              LDR       A3, [SP, #4]          ; [] |143|  ; [ORIG 16-BIT INS]
    1034 000002c2 4C06              LDR       V1, $C$CON4           ; [] |143|  ; [ORIG 16-BIT INS]
    1035 000002c4 1031F816          LDRB      A2, [V3, +A2, LSL #3] ; [] |143|  ; [KEEP 32-BIT INS]
    1036 000002c8 3033F815          LDRB      A4, [V2, +A4, LSL #3] ; [] |143|  ; [KEEP 32-BIT INS]
    1037 000002cc 6800              LDR       A1, [A1, #0]          ; [] |143|  ; [ORIG 16-BIT INS]
    1038 000002ce 2032F814          LDRB      A3, [V1, +A3, LSL #3] ; [] |143|  ; [KEEP 32-BIT INS]
    1039 000002d2 E007              B         ||$C$L19||            ; []  ; [ORIG 16-BIT INS]
    1040                            ; BRANCH OCCURS {||$C$L19||}     ; [] 
    1041                    ;******************************************************************************
    1042                    ;* CONSTANT TABLE                                                             *
    1043                    ;******************************************************************************
    1044 000002d4                   .sect   ".text"
TI ARM Assembler PC v20.2.7 Fri Jan 17 11:31:07 2025

Copyright (c) 1996-2018 Texas Instruments Incorporated
Scoreboard.asm                                                       PAGE   20

    1045                            .align  4
    1046 000002d4 00000000! ||$C$CON2||:    .bits   RAMScoreboard,32
    1047                            .align  4
    1048 000002d8 00000001! ||$C$CON3||:    .bits   RAMScoreboard+1,32
    1049                            .align  4
    1050 000002dc 00000002! ||$C$CON4||:    .bits   RAMScoreboard+2,32
    1051                            .align  4
    1052 000002e0 00000004! ||$C$CON5||:    .bits   RAMScoreboard+4,32
    1053                    ;* --------------------------------------------------------------------------*
    1054 000002e4           ||$C$L19||:    
    1055 000002e4 0609              LSLS      A2, A2, #24           ; [] |143|  ; [ORIG 16-BIT INS]
    1056 000002e6 4103EA41          ORR       A2, A2, A4, LSL #16   ; [] |143|  ; [KEEP 32-BIT INS]
    1057 000002ea 2102EA41          ORR       A2, A2, A3, LSL #8    ; [] |143|  ; [KEEP 32-BIT INS]
    1058                    $C$DW$36        .dwtag  DW_TAG_TI_branch
    1059                            .dwattr $C$DW$36, DW_AT_low_pc(0x00)
    1060                            .dwattr $C$DW$36, DW_AT_name("Flash_Write")
    1061                            .dwattr $C$DW$36, DW_AT_TI_call
    1062                    
    1063 000002ee FFFEF7FF!         BL        Flash_Write           ; [] |143|  ; [KEEP 32-BIT INS]
    1064                            ; CALL OCCURS {Flash_Write }     ; [] |143| 
    1065                            .dwpsn  file "../Scoreboard.c",line 144,column 7,is_stmt,isa 1
    1066                    ;----------------------------------------------------------------------
    1067                    ; 144 | Flash_Write((uint32_t)(boardptr + 1), RAMScoreboard[i].score);         
    1068                    ;----------------------------------------------------------------------
    1069 000002f2 480D              LDR       A1, $C$CON7           ; [] |144|  ; [ORIG 16-BIT INS]
    1070 000002f4 9901              LDR       A2, [SP, #4]          ; [] |144|  ; [ORIG 16-BIT INS]
    1071 000002f6 4A0D              LDR       A3, $C$CON8           ; [] |144|  ; [ORIG 16-BIT INS]
    1072 000002f8 6800              LDR       A1, [A1, #0]          ; [] |144|  ; [ORIG 16-BIT INS]
    1073 000002fa 1031F852          LDR       A2, [A3, +A2, LSL #3] ; [] |144|  ; [KEEP 32-BIT INS]
    1074 000002fe 1D00              ADDS      A1, A1, #4            ; [] |144|  ; [ORIG 16-BIT INS]
    1075                    $C$DW$37        .dwtag  DW_TAG_TI_branch
    1076                            .dwattr $C$DW$37, DW_AT_low_pc(0x00)
    1077                            .dwattr $C$DW$37, DW_AT_name("Flash_Write")
    1078                            .dwattr $C$DW$37, DW_AT_TI_call
    1079                    
    1080 00000300 FFFEF7FF!         BL        Flash_Write           ; [] |144|  ; [KEEP 32-BIT INS]
    1081                            ; CALL OCCURS {Flash_Write }     ; [] |144| 
    1082                            .dwpsn  file "../Scoreboard.c",line 145,column 7,is_stmt,isa 1
    1083                    ;----------------------------------------------------------------------
    1084                    ; 145 | boardptr = boardptr + 2;                                               
    1085                    ;----------------------------------------------------------------------
    1086 00000304 4808              LDR       A1, $C$CON7           ; [] |145|  ; [ORIG 16-BIT INS]
    1087 00000306 4908              LDR       A2, $C$CON7           ; [] |145|  ; [ORIG 16-BIT INS]
    1088 00000308 6800              LDR       A1, [A1, #0]          ; [] |145|  ; [ORIG 16-BIT INS]
    1089 0000030a 3008              ADDS      A1, A1, #8            ; [] |145|  ; [ORIG 16-BIT INS]
    1090 0000030c 6008              STR       A1, [A2, #0]          ; [] |145|  ; [ORIG 16-BIT INS]
    1091                            .dwpsn  file "../Scoreboard.c",line 142,column 32,is_stmt,isa 1
    1092 0000030e 9801              LDR       A1, [SP, #4]          ; [] |142|  ; [ORIG 16-BIT INS]
    1093 00000310 1C40              ADDS      A1, A1, #1            ; [] |142|  ; [ORIG 16-BIT INS]
    1094 00000312 9001              STR       A1, [SP, #4]          ; [] |142|  ; [ORIG 16-BIT INS]
    1095                            .dwpsn  file "../Scoreboard.c",line 142,column 14,is_stmt,isa 1
    1096 00000314 9801              LDR       A1, [SP, #4]          ; [] |142|  ; [ORIG 16-BIT INS]
    1097 00000316 2805              CMP       A1, #5                ; [] |142|  ; [ORIG 16-BIT INS]
    1098 00000318 DBCD              BLT       ||$C$L18||            ; [] |142|  ; [ORIG 16-BIT INS]
    1099                            ; BRANCHCC OCCURS {||$C$L18||}   ; [] |142| 
TI ARM Assembler PC v20.2.7 Fri Jan 17 11:31:07 2025

Copyright (c) 1996-2018 Texas Instruments Incorporated
Scoreboard.asm                                                       PAGE   21

    1100                    ;* --------------------------------------------------------------------------*
    1101                            .dwpsn  file "../Scoreboard.c",line 148,column 1,is_stmt,isa 1
    1102                    ;* --------------------------------------------------------------------------*
    1103 0000031a           ||$C$L20||:    
    1104 0000031a 9000              STR       A1, [SP, #0]          ; [DPU_V7M3_PIPE]  ; [ORIG 16-BIT INS]
    1105                    $C$DW$38        .dwtag  DW_TAG_TI_branch
    1106                            .dwattr $C$DW$38, DW_AT_low_pc(0x00)
    1107                            .dwattr $C$DW$38, DW_AT_TI_return
    1108                    
    1109 0000031c BD7F              POP       {A1, A2, A3, A4, V1, V2, V3, PC} ; [DPU_V7M3_PIPE]  ; [ORIG 16-BIT INS]
    1110                            .dwcfi  cfa_offset, 0
    1111                            .dwcfi  restore_reg, 6
    1112                            .dwcfi  restore_reg, 5
    1113                            .dwcfi  restore_reg, 4
    1114                            .dwcfi  restore_reg, 3
    1115                            .dwcfi  restore_reg, 2
    1116                            .dwcfi  restore_reg, 1
    1117                            .dwcfi  restore_reg, 0
    1118                            ; BRANCH OCCURS                  ; [] 
    1119                            .dwattr $C$DW$22, DW_AT_TI_end_file("../Scoreboard.c")
    1120                            .dwattr $C$DW$22, DW_AT_TI_end_line(0x94)
    1121                            .dwattr $C$DW$22, DW_AT_TI_end_column(0x01)
    1122                            .dwendentry
    1123                            .dwendtag $C$DW$22
    1124                    
    1125 0000031e                   .sect   ".text"
    1126                            .clink
    1127                            .thumbfunc Scoreboard_Get
    1128 0000031e                   .thumb
    1129                            .global Scoreboard_Get
    1130                    
    1131                    $C$DW$39        .dwtag  DW_TAG_subprogram
    1132                            .dwattr $C$DW$39, DW_AT_name("Scoreboard_Get")
    1133                            .dwattr $C$DW$39, DW_AT_low_pc(Scoreboard_Get)
    1134                            .dwattr $C$DW$39, DW_AT_high_pc(0x00)
    1135                            .dwattr $C$DW$39, DW_AT_TI_symbol_name("Scoreboard_Get")
    1136                            .dwattr $C$DW$39, DW_AT_external
    1137                            .dwattr $C$DW$39, DW_AT_type(*$C$DW$T$29)
    1138                            .dwattr $C$DW$39, DW_AT_TI_begin_file("../Scoreboard.c")
    1139                            .dwattr $C$DW$39, DW_AT_TI_begin_line(0x9b)
    1140                            .dwattr $C$DW$39, DW_AT_TI_begin_column(0x0a)
    1141                            .dwattr $C$DW$39, DW_AT_decl_file("../Scoreboard.c")
    1142                            .dwattr $C$DW$39, DW_AT_decl_line(0x9b)
    1143                            .dwattr $C$DW$39, DW_AT_decl_column(0x0a)
    1144                            .dwattr $C$DW$39, DW_AT_TI_max_frame_size(0x00)
    1145                            .dwpsn  file "../Scoreboard.c",line 155,column 30,is_stmt,address Scoreboard_Get,isa 1
    1146                    
    1147                            .dwfde $C$DW$CIE, Scoreboard_Get
    1148                    ;----------------------------------------------------------------------
    1149                    ; 155 | SBEType* Scoreboard_Get(void){                                         
    1150                    ;----------------------------------------------------------------------
    1151                    
    1152                    ;*****************************************************************************
    1153                    ;* FUNCTION NAME: Scoreboard_Get                                             *
    1154                    ;*                                                                           *
TI ARM Assembler PC v20.2.7 Fri Jan 17 11:31:07 2025

Copyright (c) 1996-2018 Texas Instruments Incorporated
Scoreboard.asm                                                       PAGE   22

    1155                    ;*   Regs Modified     : A1                                                  *
    1156                    ;*   Regs Used         : A1,LR                                               *
    1157                    ;*   Local Frame Size  : 0 Args + 0 Auto + 0 Save = 0 byte                   *
    1158                    ;*****************************************************************************
    1159 0000031e           Scoreboard_Get:
    1160                    ;* --------------------------------------------------------------------------*
    1161                            .dwcfi  cfa_offset, 0
    1162                            .dwpsn  file "../Scoreboard.c",line 156,column 3,is_stmt,isa 1
    1163                    ;----------------------------------------------------------------------
    1164                    ; 156 | return RAMScoreboard;                                                  
    1165                    ;----------------------------------------------------------------------
    1166 0000031e 4804              LDR       A1, $C$CON9           ; [DPU_V7M3_PIPE] |156|  ; [ORIG 16-BIT INS]
    1167                            .dwpsn  file "../Scoreboard.c",line 157,column 1,is_stmt,isa 1
    1168                    $C$DW$40        .dwtag  DW_TAG_TI_branch
    1169                            .dwattr $C$DW$40, DW_AT_low_pc(0x00)
    1170                            .dwattr $C$DW$40, DW_AT_TI_return
    1171                    
    1172 00000320 4770              BX        LR                    ; [DPU_V7M3_PIPE]  ; [ORIG 16-BIT INS]
    1173                            ; BRANCH OCCURS                  ; [] 
    1174                            .dwattr $C$DW$39, DW_AT_TI_end_file("../Scoreboard.c")
    1175                            .dwattr $C$DW$39, DW_AT_TI_end_line(0x9d)
    1176                            .dwattr $C$DW$39, DW_AT_TI_end_column(0x01)
    1177                            .dwendentry
    1178                            .dwendtag $C$DW$39
    1179                    
    1180                    ;******************************************************************************
    1181                    ;* CONSTANT TABLE                                                             *
    1182                    ;******************************************************************************
    1183 00000322                   .sect   ".text"
    1184                            .align  4
    1185 00000322 000046C0! ||$C$CON6||:    .bits   scoreblock,32
         00000326 00000000 
    1186                            .align  4
    1187 00000326 00000000! ||$C$CON7||:    .bits   boardptr,32
         0000032a 00000000 
    1188                            .align  4
    1189 0000032a 00040000! ||$C$CON8||:    .bits   RAMScoreboard+4,32
         0000032e 00000000 
    1190                            .align  4
    1191 0000032e 00000000! ||$C$CON9||:    .bits   RAMScoreboard,32
         00000332 00000000 
    1192                    ;*****************************************************************************
    1193                    ;* UNDEFINED EXTERNAL REFERENCES                                             *
    1194                    ;*****************************************************************************
    1195                            .global Flash_Write
    1196                            .global Flash_Erase
    1197                    
    1198                    ;******************************************************************************
    1199                    ;* BUILD ATTRIBUTES                                                           *
    1200                    ;******************************************************************************
    1201                            .battr "aeabi", Tag_File, 1, Tag_ABI_PCS_wchar_t(2)
    1202                            .battr "aeabi", Tag_File, 1, Tag_ABI_FP_rounding(0)
    1203                            .battr "aeabi", Tag_File, 1, Tag_ABI_FP_denormal(0)
    1204                            .battr "aeabi", Tag_File, 1, Tag_ABI_FP_exceptions(0)
    1205                            .battr "aeabi", Tag_File, 1, Tag_ABI_FP_number_model(1)
TI ARM Assembler PC v20.2.7 Fri Jan 17 11:31:07 2025

Copyright (c) 1996-2018 Texas Instruments Incorporated
Scoreboard.asm                                                       PAGE   23

    1206                            .battr "aeabi", Tag_File, 1, Tag_ABI_enum_size(0)
    1207                            .battr "aeabi", Tag_File, 1, Tag_ABI_optimization_goals(5)
    1208                            .battr "aeabi", Tag_File, 1, Tag_ABI_FP_optimization_goals(0)
    1209                            .battr "TI", Tag_File, 1, Tag_Bitfield_layout(2)
    1210                            .battr "aeabi", Tag_File, 1, Tag_ABI_VFP_args(3)
    1211                            .battr "TI", Tag_File, 1, Tag_FP_interface(1)
    1212                    
    1213                    ;******************************************************************************
    1214                    ;* TYPE INFORMATION                                                           *
    1215                    ;******************************************************************************
    1216                    
    1217                    $C$DW$T$21      .dwtag  DW_TAG_structure_type
    1218                            .dwattr $C$DW$T$21, DW_AT_byte_size(0x10)
    1219                    $C$DW$41        .dwtag  DW_TAG_member
    1220                            .dwattr $C$DW$41, DW_AT_type(*$C$DW$T$14)
    1221                            .dwattr $C$DW$41, DW_AT_name("__max_align1")
    1222                            .dwattr $C$DW$41, DW_AT_TI_symbol_name("__max_align1")
    1223                            .dwattr $C$DW$41, DW_AT_data_member_location[DW_OP_plus_uconst 0x0]
    1224                            .dwattr $C$DW$41, DW_AT_accessibility(DW_ACCESS_public)
    1225                            .dwattr $C$DW$41, DW_AT_decl_file("C:/ti/ccs1230/ccs/tools/compiler/ti-cgt-arm_20.2.7.LTS/incl
    1226                            .dwattr $C$DW$41, DW_AT_decl_line(0x7b)
    1227                            .dwattr $C$DW$41, DW_AT_decl_column(0x0c)
    1228                    
    1229                    $C$DW$42        .dwtag  DW_TAG_member
    1230                            .dwattr $C$DW$42, DW_AT_type(*$C$DW$T$18)
    1231                            .dwattr $C$DW$42, DW_AT_name("__max_align2")
    1232                            .dwattr $C$DW$42, DW_AT_TI_symbol_name("__max_align2")
    1233                            .dwattr $C$DW$42, DW_AT_data_member_location[DW_OP_plus_uconst 0x8]
    1234                            .dwattr $C$DW$42, DW_AT_accessibility(DW_ACCESS_public)
    1235                            .dwattr $C$DW$42, DW_AT_decl_file("C:/ti/ccs1230/ccs/tools/compiler/ti-cgt-arm_20.2.7.LTS/incl
    1236                            .dwattr $C$DW$42, DW_AT_decl_line(0x7c)
    1237                            .dwattr $C$DW$42, DW_AT_decl_column(0x0e)
    1238                    
    1239                            .dwattr $C$DW$T$21, DW_AT_decl_file("C:/ti/ccs1230/ccs/tools/compiler/ti-cgt-arm_20.2.7.LTS/in
    1240                            .dwattr $C$DW$T$21, DW_AT_decl_line(0x7a)
    1241                            .dwattr $C$DW$T$21, DW_AT_decl_column(0x10)
    1242                            .dwendtag $C$DW$T$21
    1243                    
    1244                    $C$DW$T$27      .dwtag  DW_TAG_typedef
    1245                            .dwattr $C$DW$T$27, DW_AT_name("__max_align_t")
    1246                            .dwattr $C$DW$T$27, DW_AT_type(*$C$DW$T$21)
    1247                            .dwattr $C$DW$T$27, DW_AT_language(DW_LANG_C)
    1248                            .dwattr $C$DW$T$27, DW_AT_decl_file("C:/ti/ccs1230/ccs/tools/compiler/ti-cgt-arm_20.2.7.LTS/in
    1249                            .dwattr $C$DW$T$27, DW_AT_decl_line(0x7d)
    1250                            .dwattr $C$DW$T$27, DW_AT_decl_column(0x03)
    1251                    
    1252                    
    1253                    $C$DW$T$25      .dwtag  DW_TAG_structure_type
    1254                            .dwattr $C$DW$T$25, DW_AT_name("ScoreboardElement")
    1255                            .dwattr $C$DW$T$25, DW_AT_byte_size(0x08)
    1256                    $C$DW$43        .dwtag  DW_TAG_member
    1257                            .dwattr $C$DW$43, DW_AT_type(*$C$DW$T$6)
    1258                            .dwattr $C$DW$43, DW_AT_name("first")
    1259                            .dwattr $C$DW$43, DW_AT_TI_symbol_name("first")
    1260                            .dwattr $C$DW$43, DW_AT_data_member_location[DW_OP_plus_uconst 0x0]
TI ARM Assembler PC v20.2.7 Fri Jan 17 11:31:07 2025

Copyright (c) 1996-2018 Texas Instruments Incorporated
Scoreboard.asm                                                       PAGE   24

    1261                            .dwattr $C$DW$43, DW_AT_accessibility(DW_ACCESS_public)
    1262                            .dwattr $C$DW$43, DW_AT_decl_file("..\Scoreboard.h")
    1263                            .dwattr $C$DW$43, DW_AT_decl_line(0x1e)
    1264                            .dwattr $C$DW$43, DW_AT_decl_column(0x08)
    1265                    
    1266                    $C$DW$44        .dwtag  DW_TAG_member
    1267                            .dwattr $C$DW$44, DW_AT_type(*$C$DW$T$6)
    1268                            .dwattr $C$DW$44, DW_AT_name("middle")
    1269                            .dwattr $C$DW$44, DW_AT_TI_symbol_name("middle")
    1270                            .dwattr $C$DW$44, DW_AT_data_member_location[DW_OP_plus_uconst 0x1]
    1271                            .dwattr $C$DW$44, DW_AT_accessibility(DW_ACCESS_public)
    1272                            .dwattr $C$DW$44, DW_AT_decl_file("..\Scoreboard.h")
    1273                            .dwattr $C$DW$44, DW_AT_decl_line(0x1e)
    1274                            .dwattr $C$DW$44, DW_AT_decl_column(0x0f)
    1275                    
    1276                    $C$DW$45        .dwtag  DW_TAG_member
    1277                            .dwattr $C$DW$45, DW_AT_type(*$C$DW$T$6)
    1278                            .dwattr $C$DW$45, DW_AT_name("last")
    1279                            .dwattr $C$DW$45, DW_AT_TI_symbol_name("last")
    1280                            .dwattr $C$DW$45, DW_AT_data_member_location[DW_OP_plus_uconst 0x2]
    1281                            .dwattr $C$DW$45, DW_AT_accessibility(DW_ACCESS_public)
    1282                            .dwattr $C$DW$45, DW_AT_decl_file("..\Scoreboard.h")
    1283                            .dwattr $C$DW$45, DW_AT_decl_line(0x1e)
    1284                            .dwattr $C$DW$45, DW_AT_decl_column(0x17)
    1285                    
    1286                    $C$DW$46        .dwtag  DW_TAG_member
    1287                            .dwattr $C$DW$46, DW_AT_type(*$C$DW$T$24)
    1288                            .dwattr $C$DW$46, DW_AT_name("score")
    1289                            .dwattr $C$DW$46, DW_AT_TI_symbol_name("score")
    1290                            .dwattr $C$DW$46, DW_AT_data_member_location[DW_OP_plus_uconst 0x4]
    1291                            .dwattr $C$DW$46, DW_AT_accessibility(DW_ACCESS_public)
    1292                            .dwattr $C$DW$46, DW_AT_decl_file("..\Scoreboard.h")
    1293                            .dwattr $C$DW$46, DW_AT_decl_line(0x1f)
    1294                            .dwattr $C$DW$46, DW_AT_decl_column(0x0c)
    1295                    
    1296                            .dwattr $C$DW$T$25, DW_AT_decl_file("..\Scoreboard.h")
    1297                            .dwattr $C$DW$T$25, DW_AT_decl_line(0x1d)
    1298                            .dwattr $C$DW$T$25, DW_AT_decl_column(0x08)
    1299                            .dwendtag $C$DW$T$25
    1300                    
    1301                    $C$DW$T$28      .dwtag  DW_TAG_typedef
    1302                            .dwattr $C$DW$T$28, DW_AT_name("SBEType")
    1303                            .dwattr $C$DW$T$28, DW_AT_type(*$C$DW$T$25)
    1304                            .dwattr $C$DW$T$28, DW_AT_language(DW_LANG_C)
    1305                            .dwattr $C$DW$T$28, DW_AT_decl_file("..\Scoreboard.h")
    1306                            .dwattr $C$DW$T$28, DW_AT_decl_line(0x21)
    1307                            .dwattr $C$DW$T$28, DW_AT_decl_column(0x22)
    1308                    
    1309                    $C$DW$T$29      .dwtag  DW_TAG_pointer_type
    1310                            .dwattr $C$DW$T$29, DW_AT_type(*$C$DW$T$28)
    1311                            .dwattr $C$DW$T$29, DW_AT_address_class(0x20)
    1312                    
    1313                    
    1314                    $C$DW$T$32      .dwtag  DW_TAG_array_type
    1315                            .dwattr $C$DW$T$32, DW_AT_type(*$C$DW$T$28)
TI ARM Assembler PC v20.2.7 Fri Jan 17 11:31:07 2025

Copyright (c) 1996-2018 Texas Instruments Incorporated
Scoreboard.asm                                                       PAGE   25

    1316                            .dwattr $C$DW$T$32, DW_AT_language(DW_LANG_C)
    1317                            .dwattr $C$DW$T$32, DW_AT_byte_size(0x28)
    1318                    $C$DW$47        .dwtag  DW_TAG_subrange_type
    1319                            .dwattr $C$DW$47, DW_AT_upper_bound(0x04)
    1320                    
    1321                            .dwendtag $C$DW$T$32
    1322                    
    1323                    $C$DW$T$2       .dwtag  DW_TAG_unspecified_type
    1324                            .dwattr $C$DW$T$2, DW_AT_name("void")
    1325                    
    1326                    $C$DW$T$3       .dwtag  DW_TAG_pointer_type
    1327                            .dwattr $C$DW$T$3, DW_AT_type(*$C$DW$T$2)
    1328                            .dwattr $C$DW$T$3, DW_AT_address_class(0x20)
    1329                    
    1330                    $C$DW$T$4       .dwtag  DW_TAG_base_type
    1331                            .dwattr $C$DW$T$4, DW_AT_encoding(DW_ATE_boolean)
    1332                            .dwattr $C$DW$T$4, DW_AT_name("bool")
    1333                            .dwattr $C$DW$T$4, DW_AT_byte_size(0x01)
    1334                    
    1335                    $C$DW$T$5       .dwtag  DW_TAG_base_type
    1336                            .dwattr $C$DW$T$5, DW_AT_encoding(DW_ATE_signed_char)
    1337                            .dwattr $C$DW$T$5, DW_AT_name("signed char")
    1338                            .dwattr $C$DW$T$5, DW_AT_byte_size(0x01)
    1339                    
    1340                    $C$DW$T$34      .dwtag  DW_TAG_typedef
    1341                            .dwattr $C$DW$T$34, DW_AT_name("__int8_t")
    1342                            .dwattr $C$DW$T$34, DW_AT_type(*$C$DW$T$5)
    1343                            .dwattr $C$DW$T$34, DW_AT_language(DW_LANG_C)
    1344                            .dwattr $C$DW$T$34, DW_AT_decl_file("C:/ti/ccs1230/ccs/tools/compiler/ti-cgt-arm_20.2.7.LTS/in
    1345                            .dwattr $C$DW$T$34, DW_AT_decl_line(0x4a)
    1346                            .dwattr $C$DW$T$34, DW_AT_decl_column(0x16)
    1347                    
    1348                    $C$DW$T$35      .dwtag  DW_TAG_typedef
    1349                            .dwattr $C$DW$T$35, DW_AT_name("__int_least8_t")
    1350                            .dwattr $C$DW$T$35, DW_AT_type(*$C$DW$T$34)
    1351                            .dwattr $C$DW$T$35, DW_AT_language(DW_LANG_C)
    1352                            .dwattr $C$DW$T$35, DW_AT_decl_file("C:/ti/ccs1230/ccs/tools/compiler/ti-cgt-arm_20.2.7.LTS/in
    1353                            .dwattr $C$DW$T$35, DW_AT_decl_line(0x69)
    1354                            .dwattr $C$DW$T$35, DW_AT_decl_column(0x12)
    1355                    
    1356                    $C$DW$T$36      .dwtag  DW_TAG_typedef
    1357                            .dwattr $C$DW$T$36, DW_AT_name("int_least8_t")
    1358                            .dwattr $C$DW$T$36, DW_AT_type(*$C$DW$T$35)
    1359                            .dwattr $C$DW$T$36, DW_AT_language(DW_LANG_C)
    1360                            .dwattr $C$DW$T$36, DW_AT_decl_file("C:/ti/ccs1230/ccs/tools/compiler/ti-cgt-arm_20.2.7.LTS/in
    1361                            .dwattr $C$DW$T$36, DW_AT_decl_line(0x2a)
    1362                            .dwattr $C$DW$T$36, DW_AT_decl_column(0x19)
    1363                    
    1364                    $C$DW$T$37      .dwtag  DW_TAG_typedef
    1365                            .dwattr $C$DW$T$37, DW_AT_name("int8_t")
    1366                            .dwattr $C$DW$T$37, DW_AT_type(*$C$DW$T$34)
    1367                            .dwattr $C$DW$T$37, DW_AT_language(DW_LANG_C)
    1368                            .dwattr $C$DW$T$37, DW_AT_decl_file("C:/ti/ccs1230/ccs/tools/compiler/ti-cgt-arm_20.2.7.LTS/in
    1369                            .dwattr $C$DW$T$37, DW_AT_decl_line(0x25)
    1370                            .dwattr $C$DW$T$37, DW_AT_decl_column(0x13)
TI ARM Assembler PC v20.2.7 Fri Jan 17 11:31:07 2025

Copyright (c) 1996-2018 Texas Instruments Incorporated
Scoreboard.asm                                                       PAGE   26

    1371                    
    1372                    $C$DW$T$6       .dwtag  DW_TAG_base_type
    1373                            .dwattr $C$DW$T$6, DW_AT_encoding(DW_ATE_unsigned_char)
    1374                            .dwattr $C$DW$T$6, DW_AT_name("unsigned char")
    1375                            .dwattr $C$DW$T$6, DW_AT_byte_size(0x01)
    1376                    
    1377                    $C$DW$T$38      .dwtag  DW_TAG_typedef
    1378                            .dwattr $C$DW$T$38, DW_AT_name("__uint8_t")
    1379                            .dwattr $C$DW$T$38, DW_AT_type(*$C$DW$T$6)
    1380                            .dwattr $C$DW$T$38, DW_AT_language(DW_LANG_C)
    1381                            .dwattr $C$DW$T$38, DW_AT_decl_file("C:/ti/ccs1230/ccs/tools/compiler/ti-cgt-arm_20.2.7.LTS/in
    1382                            .dwattr $C$DW$T$38, DW_AT_decl_line(0x4b)
    1383                            .dwattr $C$DW$T$38, DW_AT_decl_column(0x18)
    1384                    
    1385                    $C$DW$T$39      .dwtag  DW_TAG_typedef
    1386                            .dwattr $C$DW$T$39, DW_AT_name("__sa_family_t")
    1387                            .dwattr $C$DW$T$39, DW_AT_type(*$C$DW$T$38)
    1388                            .dwattr $C$DW$T$39, DW_AT_language(DW_LANG_C)
    1389                            .dwattr $C$DW$T$39, DW_AT_decl_file("C:/ti/ccs1230/ccs/tools/compiler/ti-cgt-arm_20.2.7.LTS/in
    1390                            .dwattr $C$DW$T$39, DW_AT_decl_line(0x47)
    1391                            .dwattr $C$DW$T$39, DW_AT_decl_column(0x13)
    1392                    
    1393                    $C$DW$T$40      .dwtag  DW_TAG_typedef
    1394                            .dwattr $C$DW$T$40, DW_AT_name("__uint_least8_t")
    1395                            .dwattr $C$DW$T$40, DW_AT_type(*$C$DW$T$38)
    1396                            .dwattr $C$DW$T$40, DW_AT_language(DW_LANG_C)
    1397                            .dwattr $C$DW$T$40, DW_AT_decl_file("C:/ti/ccs1230/ccs/tools/compiler/ti-cgt-arm_20.2.7.LTS/in
    1398                            .dwattr $C$DW$T$40, DW_AT_decl_line(0x7f)
    1399                            .dwattr $C$DW$T$40, DW_AT_decl_column(0x13)
    1400                    
    1401                    $C$DW$T$41      .dwtag  DW_TAG_typedef
    1402                            .dwattr $C$DW$T$41, DW_AT_name("uint_least8_t")
    1403                            .dwattr $C$DW$T$41, DW_AT_type(*$C$DW$T$40)
    1404                            .dwattr $C$DW$T$41, DW_AT_language(DW_LANG_C)
    1405                            .dwattr $C$DW$T$41, DW_AT_decl_file("C:/ti/ccs1230/ccs/tools/compiler/ti-cgt-arm_20.2.7.LTS/in
    1406                            .dwattr $C$DW$T$41, DW_AT_decl_line(0x2f)
    1407                            .dwattr $C$DW$T$41, DW_AT_decl_column(0x1a)
    1408                    
    1409                    $C$DW$T$42      .dwtag  DW_TAG_typedef
    1410                            .dwattr $C$DW$T$42, DW_AT_name("uint8_t")
    1411                            .dwattr $C$DW$T$42, DW_AT_type(*$C$DW$T$38)
    1412                            .dwattr $C$DW$T$42, DW_AT_language(DW_LANG_C)
    1413                            .dwattr $C$DW$T$42, DW_AT_decl_file("C:/ti/ccs1230/ccs/tools/compiler/ti-cgt-arm_20.2.7.LTS/in
    1414                            .dwattr $C$DW$T$42, DW_AT_decl_line(0x3b)
    1415                            .dwattr $C$DW$T$42, DW_AT_decl_column(0x14)
    1416                    
    1417                    $C$DW$T$7       .dwtag  DW_TAG_base_type
    1418                            .dwattr $C$DW$T$7, DW_AT_encoding(DW_ATE_signed_char)
    1419                            .dwattr $C$DW$T$7, DW_AT_name("wchar_t")
    1420                            .dwattr $C$DW$T$7, DW_AT_byte_size(0x02)
    1421                    
    1422                    $C$DW$T$8       .dwtag  DW_TAG_base_type
    1423                            .dwattr $C$DW$T$8, DW_AT_encoding(DW_ATE_signed)
    1424                            .dwattr $C$DW$T$8, DW_AT_name("short")
    1425                            .dwattr $C$DW$T$8, DW_AT_byte_size(0x02)
TI ARM Assembler PC v20.2.7 Fri Jan 17 11:31:07 2025

Copyright (c) 1996-2018 Texas Instruments Incorporated
Scoreboard.asm                                                       PAGE   27

    1426                    
    1427                    $C$DW$T$43      .dwtag  DW_TAG_typedef
    1428                            .dwattr $C$DW$T$43, DW_AT_name("__int16_t")
    1429                            .dwattr $C$DW$T$43, DW_AT_type(*$C$DW$T$8)
    1430                            .dwattr $C$DW$T$43, DW_AT_language(DW_LANG_C)
    1431                            .dwattr $C$DW$T$43, DW_AT_decl_file("C:/ti/ccs1230/ccs/tools/compiler/ti-cgt-arm_20.2.7.LTS/in
    1432                            .dwattr $C$DW$T$43, DW_AT_decl_line(0x4c)
    1433                            .dwattr $C$DW$T$43, DW_AT_decl_column(0x11)
    1434                    
    1435                    $C$DW$T$44      .dwtag  DW_TAG_typedef
    1436                            .dwattr $C$DW$T$44, DW_AT_name("__int_least16_t")
    1437                            .dwattr $C$DW$T$44, DW_AT_type(*$C$DW$T$43)
    1438                            .dwattr $C$DW$T$44, DW_AT_language(DW_LANG_C)
    1439                            .dwattr $C$DW$T$44, DW_AT_decl_file("C:/ti/ccs1230/ccs/tools/compiler/ti-cgt-arm_20.2.7.LTS/in
    1440                            .dwattr $C$DW$T$44, DW_AT_decl_line(0x6a)
    1441                            .dwattr $C$DW$T$44, DW_AT_decl_column(0x13)
    1442                    
    1443                    $C$DW$T$45      .dwtag  DW_TAG_typedef
    1444                            .dwattr $C$DW$T$45, DW_AT_name("int_least16_t")
    1445                            .dwattr $C$DW$T$45, DW_AT_type(*$C$DW$T$44)
    1446                            .dwattr $C$DW$T$45, DW_AT_language(DW_LANG_C)
    1447                            .dwattr $C$DW$T$45, DW_AT_decl_file("C:/ti/ccs1230/ccs/tools/compiler/ti-cgt-arm_20.2.7.LTS/in
    1448                            .dwattr $C$DW$T$45, DW_AT_decl_line(0x2b)
    1449                            .dwattr $C$DW$T$45, DW_AT_decl_column(0x1a)
    1450                    
    1451                    $C$DW$T$46      .dwtag  DW_TAG_typedef
    1452                            .dwattr $C$DW$T$46, DW_AT_name("int16_t")
    1453                            .dwattr $C$DW$T$46, DW_AT_type(*$C$DW$T$43)
    1454                            .dwattr $C$DW$T$46, DW_AT_language(DW_LANG_C)
    1455                            .dwattr $C$DW$T$46, DW_AT_decl_file("C:/ti/ccs1230/ccs/tools/compiler/ti-cgt-arm_20.2.7.LTS/in
    1456                            .dwattr $C$DW$T$46, DW_AT_decl_line(0x2b)
    1457                            .dwattr $C$DW$T$46, DW_AT_decl_column(0x14)
    1458                    
    1459                    $C$DW$T$9       .dwtag  DW_TAG_base_type
    1460                            .dwattr $C$DW$T$9, DW_AT_encoding(DW_ATE_unsigned)
    1461                            .dwattr $C$DW$T$9, DW_AT_name("unsigned short")
    1462                            .dwattr $C$DW$T$9, DW_AT_byte_size(0x02)
    1463                    
    1464                    $C$DW$T$47      .dwtag  DW_TAG_typedef
    1465                            .dwattr $C$DW$T$47, DW_AT_name("___wchar_t")
    1466                            .dwattr $C$DW$T$47, DW_AT_type(*$C$DW$T$9)
    1467                            .dwattr $C$DW$T$47, DW_AT_language(DW_LANG_C)
    1468                            .dwattr $C$DW$T$47, DW_AT_decl_file("C:/ti/ccs1230/ccs/tools/compiler/ti-cgt-arm_20.2.7.LTS/in
    1469                            .dwattr $C$DW$T$47, DW_AT_decl_line(0x8b)
    1470                            .dwattr $C$DW$T$47, DW_AT_decl_column(0x1a)
    1471                    
    1472                    $C$DW$T$48      .dwtag  DW_TAG_typedef
    1473                            .dwattr $C$DW$T$48, DW_AT_name("__uint16_t")
    1474                            .dwattr $C$DW$T$48, DW_AT_type(*$C$DW$T$9)
    1475                            .dwattr $C$DW$T$48, DW_AT_language(DW_LANG_C)
    1476                            .dwattr $C$DW$T$48, DW_AT_decl_file("C:/ti/ccs1230/ccs/tools/compiler/ti-cgt-arm_20.2.7.LTS/in
    1477                            .dwattr $C$DW$T$48, DW_AT_decl_line(0x4d)
    1478                            .dwattr $C$DW$T$48, DW_AT_decl_column(0x19)
    1479                    
    1480                    $C$DW$T$49      .dwtag  DW_TAG_typedef
TI ARM Assembler PC v20.2.7 Fri Jan 17 11:31:07 2025

Copyright (c) 1996-2018 Texas Instruments Incorporated
Scoreboard.asm                                                       PAGE   28

    1481                            .dwattr $C$DW$T$49, DW_AT_name("__mode_t")
    1482                            .dwattr $C$DW$T$49, DW_AT_type(*$C$DW$T$48)
    1483                            .dwattr $C$DW$T$49, DW_AT_language(DW_LANG_C)
    1484                            .dwattr $C$DW$T$49, DW_AT_decl_file("C:/ti/ccs1230/ccs/tools/compiler/ti-cgt-arm_20.2.7.LTS/in
    1485                            .dwattr $C$DW$T$49, DW_AT_decl_line(0x3a)
    1486                            .dwattr $C$DW$T$49, DW_AT_decl_column(0x14)
    1487                    
    1488                    $C$DW$T$50      .dwtag  DW_TAG_typedef
    1489                            .dwattr $C$DW$T$50, DW_AT_name("__uint_least16_t")
    1490                            .dwattr $C$DW$T$50, DW_AT_type(*$C$DW$T$48)
    1491                            .dwattr $C$DW$T$50, DW_AT_language(DW_LANG_C)
    1492                            .dwattr $C$DW$T$50, DW_AT_decl_file("C:/ti/ccs1230/ccs/tools/compiler/ti-cgt-arm_20.2.7.LTS/in
    1493                            .dwattr $C$DW$T$50, DW_AT_decl_line(0x80)
    1494                            .dwattr $C$DW$T$50, DW_AT_decl_column(0x14)
    1495                    
    1496                    $C$DW$T$51      .dwtag  DW_TAG_typedef
    1497                            .dwattr $C$DW$T$51, DW_AT_name("__char16_t")
    1498                            .dwattr $C$DW$T$51, DW_AT_type(*$C$DW$T$50)
    1499                            .dwattr $C$DW$T$51, DW_AT_language(DW_LANG_C)
    1500                            .dwattr $C$DW$T$51, DW_AT_decl_file("C:/ti/ccs1230/ccs/tools/compiler/ti-cgt-arm_20.2.7.LTS/in
    1501                            .dwattr $C$DW$T$51, DW_AT_decl_line(0x71)
    1502                            .dwattr $C$DW$T$51, DW_AT_decl_column(0x1a)
    1503                    
    1504                    $C$DW$T$52      .dwtag  DW_TAG_typedef
    1505                            .dwattr $C$DW$T$52, DW_AT_name("uint_least16_t")
    1506                            .dwattr $C$DW$T$52, DW_AT_type(*$C$DW$T$50)
    1507                            .dwattr $C$DW$T$52, DW_AT_language(DW_LANG_C)
    1508                            .dwattr $C$DW$T$52, DW_AT_decl_file("C:/ti/ccs1230/ccs/tools/compiler/ti-cgt-arm_20.2.7.LTS/in
    1509                            .dwattr $C$DW$T$52, DW_AT_decl_line(0x30)
    1510                            .dwattr $C$DW$T$52, DW_AT_decl_column(0x1a)
    1511                    
    1512                    $C$DW$T$53      .dwtag  DW_TAG_typedef
    1513                            .dwattr $C$DW$T$53, DW_AT_name("uint16_t")
    1514                            .dwattr $C$DW$T$53, DW_AT_type(*$C$DW$T$48)
    1515                            .dwattr $C$DW$T$53, DW_AT_language(DW_LANG_C)
    1516                            .dwattr $C$DW$T$53, DW_AT_decl_file("C:/ti/ccs1230/ccs/tools/compiler/ti-cgt-arm_20.2.7.LTS/in
    1517                            .dwattr $C$DW$T$53, DW_AT_decl_line(0x41)
    1518                            .dwattr $C$DW$T$53, DW_AT_decl_column(0x15)
    1519                    
    1520                    $C$DW$T$10      .dwtag  DW_TAG_base_type
    1521                            .dwattr $C$DW$T$10, DW_AT_encoding(DW_ATE_signed)
    1522                            .dwattr $C$DW$T$10, DW_AT_name("int")
    1523                            .dwattr $C$DW$T$10, DW_AT_byte_size(0x04)
    1524                    
    1525                    $C$DW$T$54      .dwtag  DW_TAG_typedef
    1526                            .dwattr $C$DW$T$54, DW_AT_name("_Mbstatet")
    1527                            .dwattr $C$DW$T$54, DW_AT_type(*$C$DW$T$10)
    1528                            .dwattr $C$DW$T$54, DW_AT_language(DW_LANG_C)
    1529                            .dwattr $C$DW$T$54, DW_AT_decl_file("C:/ti/ccs1230/ccs/tools/compiler/ti-cgt-arm_20.2.7.LTS/in
    1530                            .dwattr $C$DW$T$54, DW_AT_decl_line(0x8f)
    1531                            .dwattr $C$DW$T$54, DW_AT_decl_column(0x0d)
    1532                    
    1533                    $C$DW$T$55      .dwtag  DW_TAG_typedef
    1534                            .dwattr $C$DW$T$55, DW_AT_name("__mbstate_t")
    1535                            .dwattr $C$DW$T$55, DW_AT_type(*$C$DW$T$54)
TI ARM Assembler PC v20.2.7 Fri Jan 17 11:31:07 2025

Copyright (c) 1996-2018 Texas Instruments Incorporated
Scoreboard.asm                                                       PAGE   29

    1536                            .dwattr $C$DW$T$55, DW_AT_language(DW_LANG_C)
    1537                            .dwattr $C$DW$T$55, DW_AT_decl_file("C:/ti/ccs1230/ccs/tools/compiler/ti-cgt-arm_20.2.7.LTS/in
    1538                            .dwattr $C$DW$T$55, DW_AT_decl_line(0x92)
    1539                            .dwattr $C$DW$T$55, DW_AT_decl_column(0x13)
    1540                    
    1541                    $C$DW$T$56      .dwtag  DW_TAG_typedef
    1542                            .dwattr $C$DW$T$56, DW_AT_name("__accmode_t")
    1543                            .dwattr $C$DW$T$56, DW_AT_type(*$C$DW$T$10)
    1544                            .dwattr $C$DW$T$56, DW_AT_language(DW_LANG_C)
    1545                            .dwattr $C$DW$T$56, DW_AT_decl_file("C:/ti/ccs1230/ccs/tools/compiler/ti-cgt-arm_20.2.7.LTS/in
    1546                            .dwattr $C$DW$T$56, DW_AT_decl_line(0x3b)
    1547                            .dwattr $C$DW$T$56, DW_AT_decl_column(0x0e)
    1548                    
    1549                    $C$DW$T$61      .dwtag  DW_TAG_typedef
    1550                            .dwattr $C$DW$T$61, DW_AT_name("__cpulevel_t")
    1551                            .dwattr $C$DW$T$61, DW_AT_type(*$C$DW$T$10)
    1552                            .dwattr $C$DW$T$61, DW_AT_language(DW_LANG_C)
    1553                            .dwattr $C$DW$T$61, DW_AT_decl_file("C:/ti/ccs1230/ccs/tools/compiler/ti-cgt-arm_20.2.7.LTS/in
    1554                            .dwattr $C$DW$T$61, DW_AT_decl_line(0x50)
    1555                            .dwattr $C$DW$T$61, DW_AT_decl_column(0x0e)
    1556                    
    1557                    $C$DW$T$62      .dwtag  DW_TAG_typedef
    1558                            .dwattr $C$DW$T$62, DW_AT_name("__cpusetid_t")
    1559                            .dwattr $C$DW$T$62, DW_AT_type(*$C$DW$T$10)
    1560                            .dwattr $C$DW$T$62, DW_AT_language(DW_LANG_C)
    1561                            .dwattr $C$DW$T$62, DW_AT_decl_file("C:/ti/ccs1230/ccs/tools/compiler/ti-cgt-arm_20.2.7.LTS/in
    1562                            .dwattr $C$DW$T$62, DW_AT_decl_line(0x51)
    1563                            .dwattr $C$DW$T$62, DW_AT_decl_column(0x0e)
    1564                    
    1565                    $C$DW$T$63      .dwtag  DW_TAG_typedef
    1566                            .dwattr $C$DW$T$63, DW_AT_name("__cpuwhich_t")
    1567                            .dwattr $C$DW$T$63, DW_AT_type(*$C$DW$T$10)
    1568                            .dwattr $C$DW$T$63, DW_AT_language(DW_LANG_C)
    1569                            .dwattr $C$DW$T$63, DW_AT_decl_file("C:/ti/ccs1230/ccs/tools/compiler/ti-cgt-arm_20.2.7.LTS/in
    1570                            .dwattr $C$DW$T$63, DW_AT_decl_line(0x4f)
    1571                            .dwattr $C$DW$T$63, DW_AT_decl_column(0x0e)
    1572                    
    1573                    $C$DW$T$64      .dwtag  DW_TAG_typedef
    1574                            .dwattr $C$DW$T$64, DW_AT_name("__ct_rune_t")
    1575                            .dwattr $C$DW$T$64, DW_AT_type(*$C$DW$T$10)
    1576                            .dwattr $C$DW$T$64, DW_AT_language(DW_LANG_C)
    1577                            .dwattr $C$DW$T$64, DW_AT_decl_file("C:/ti/ccs1230/ccs/tools/compiler/ti-cgt-arm_20.2.7.LTS/in
    1578                            .dwattr $C$DW$T$64, DW_AT_decl_line(0x69)
    1579                            .dwattr $C$DW$T$64, DW_AT_decl_column(0x0e)
    1580                    
    1581                    $C$DW$T$65      .dwtag  DW_TAG_typedef
    1582                            .dwattr $C$DW$T$65, DW_AT_name("__rune_t")
    1583                            .dwattr $C$DW$T$65, DW_AT_type(*$C$DW$T$64)
    1584                            .dwattr $C$DW$T$65, DW_AT_language(DW_LANG_C)
    1585                            .dwattr $C$DW$T$65, DW_AT_decl_file("C:/ti/ccs1230/ccs/tools/compiler/ti-cgt-arm_20.2.7.LTS/in
    1586                            .dwattr $C$DW$T$65, DW_AT_decl_line(0x6c)
    1587                            .dwattr $C$DW$T$65, DW_AT_decl_column(0x15)
    1588                    
    1589                    $C$DW$T$66      .dwtag  DW_TAG_typedef
    1590                            .dwattr $C$DW$T$66, DW_AT_name("__wint_t")
TI ARM Assembler PC v20.2.7 Fri Jan 17 11:31:07 2025

Copyright (c) 1996-2018 Texas Instruments Incorporated
Scoreboard.asm                                                       PAGE   30

    1591                            .dwattr $C$DW$T$66, DW_AT_type(*$C$DW$T$64)
    1592                            .dwattr $C$DW$T$66, DW_AT_language(DW_LANG_C)
    1593                            .dwattr $C$DW$T$66, DW_AT_decl_file("C:/ti/ccs1230/ccs/tools/compiler/ti-cgt-arm_20.2.7.LTS/in
    1594                            .dwattr $C$DW$T$66, DW_AT_decl_line(0x6d)
    1595                            .dwattr $C$DW$T$66, DW_AT_decl_column(0x15)
    1596                    
    1597                    $C$DW$T$67      .dwtag  DW_TAG_typedef
    1598                            .dwattr $C$DW$T$67, DW_AT_name("__int32_t")
    1599                            .dwattr $C$DW$T$67, DW_AT_type(*$C$DW$T$10)
    1600                            .dwattr $C$DW$T$67, DW_AT_language(DW_LANG_C)
    1601                            .dwattr $C$DW$T$67, DW_AT_decl_file("C:/ti/ccs1230/ccs/tools/compiler/ti-cgt-arm_20.2.7.LTS/in
    1602                            .dwattr $C$DW$T$67, DW_AT_decl_line(0x4e)
    1603                            .dwattr $C$DW$T$67, DW_AT_decl_column(0x0f)
    1604                    
    1605                    $C$DW$T$68      .dwtag  DW_TAG_typedef
    1606                            .dwattr $C$DW$T$68, DW_AT_name("__blksize_t")
    1607                            .dwattr $C$DW$T$68, DW_AT_type(*$C$DW$T$67)
    1608                            .dwattr $C$DW$T$68, DW_AT_language(DW_LANG_C)
    1609                            .dwattr $C$DW$T$68, DW_AT_decl_file("C:/ti/ccs1230/ccs/tools/compiler/ti-cgt-arm_20.2.7.LTS/in
    1610                            .dwattr $C$DW$T$68, DW_AT_decl_line(0x2f)
    1611                            .dwattr $C$DW$T$68, DW_AT_decl_column(0x13)
    1612                    
    1613                    $C$DW$T$69      .dwtag  DW_TAG_typedef
    1614                            .dwattr $C$DW$T$69, DW_AT_name("__clockid_t")
    1615                            .dwattr $C$DW$T$69, DW_AT_type(*$C$DW$T$67)
    1616                            .dwattr $C$DW$T$69, DW_AT_language(DW_LANG_C)
    1617                            .dwattr $C$DW$T$69, DW_AT_decl_file("C:/ti/ccs1230/ccs/tools/compiler/ti-cgt-arm_20.2.7.LTS/in
    1618                            .dwattr $C$DW$T$69, DW_AT_decl_line(0x31)
    1619                            .dwattr $C$DW$T$69, DW_AT_decl_column(0x13)
    1620                    
    1621                    $C$DW$T$70      .dwtag  DW_TAG_typedef
    1622                            .dwattr $C$DW$T$70, DW_AT_name("__critical_t")
    1623                            .dwattr $C$DW$T$70, DW_AT_type(*$C$DW$T$67)
    1624                            .dwattr $C$DW$T$70, DW_AT_language(DW_LANG_C)
    1625                            .dwattr $C$DW$T$70, DW_AT_decl_file("C:/ti/ccs1230/ccs/tools/compiler/ti-cgt-arm_20.2.7.LTS/in
    1626                            .dwattr $C$DW$T$70, DW_AT_decl_line(0x5f)
    1627                            .dwattr $C$DW$T$70, DW_AT_decl_column(0x13)
    1628                    
    1629                    $C$DW$T$71      .dwtag  DW_TAG_typedef
    1630                            .dwattr $C$DW$T$71, DW_AT_name("__int_fast16_t")
    1631                            .dwattr $C$DW$T$71, DW_AT_type(*$C$DW$T$67)
    1632                            .dwattr $C$DW$T$71, DW_AT_language(DW_LANG_C)
    1633                            .dwattr $C$DW$T$71, DW_AT_decl_file("C:/ti/ccs1230/ccs/tools/compiler/ti-cgt-arm_20.2.7.LTS/in
    1634                            .dwattr $C$DW$T$71, DW_AT_decl_line(0x66)
    1635                            .dwattr $C$DW$T$71, DW_AT_decl_column(0x13)
    1636                    
    1637                    $C$DW$T$72      .dwtag  DW_TAG_typedef
    1638                            .dwattr $C$DW$T$72, DW_AT_name("int_fast16_t")
    1639                            .dwattr $C$DW$T$72, DW_AT_type(*$C$DW$T$71)
    1640                            .dwattr $C$DW$T$72, DW_AT_language(DW_LANG_C)
    1641                            .dwattr $C$DW$T$72, DW_AT_decl_file("C:/ti/ccs1230/ccs/tools/compiler/ti-cgt-arm_20.2.7.LTS/in
    1642                            .dwattr $C$DW$T$72, DW_AT_decl_line(0x35)
    1643                            .dwattr $C$DW$T$72, DW_AT_decl_column(0x19)
    1644                    
    1645                    $C$DW$T$73      .dwtag  DW_TAG_typedef
TI ARM Assembler PC v20.2.7 Fri Jan 17 11:31:07 2025

Copyright (c) 1996-2018 Texas Instruments Incorporated
Scoreboard.asm                                                       PAGE   31

    1646                            .dwattr $C$DW$T$73, DW_AT_name("__int_fast32_t")
    1647                            .dwattr $C$DW$T$73, DW_AT_type(*$C$DW$T$67)
    1648                            .dwattr $C$DW$T$73, DW_AT_language(DW_LANG_C)
    1649                            .dwattr $C$DW$T$73, DW_AT_decl_file("C:/ti/ccs1230/ccs/tools/compiler/ti-cgt-arm_20.2.7.LTS/in
    1650                            .dwattr $C$DW$T$73, DW_AT_decl_line(0x67)
    1651                            .dwattr $C$DW$T$73, DW_AT_decl_column(0x13)
    1652                    
    1653                    $C$DW$T$74      .dwtag  DW_TAG_typedef
    1654                            .dwattr $C$DW$T$74, DW_AT_name("int_fast32_t")
    1655                            .dwattr $C$DW$T$74, DW_AT_type(*$C$DW$T$73)
    1656                            .dwattr $C$DW$T$74, DW_AT_language(DW_LANG_C)
    1657                            .dwattr $C$DW$T$74, DW_AT_decl_file("C:/ti/ccs1230/ccs/tools/compiler/ti-cgt-arm_20.2.7.LTS/in
    1658                            .dwattr $C$DW$T$74, DW_AT_decl_line(0x36)
    1659                            .dwattr $C$DW$T$74, DW_AT_decl_column(0x19)
    1660                    
    1661                    $C$DW$T$75      .dwtag  DW_TAG_typedef
    1662                            .dwattr $C$DW$T$75, DW_AT_name("__int_fast8_t")
    1663                            .dwattr $C$DW$T$75, DW_AT_type(*$C$DW$T$67)
    1664                            .dwattr $C$DW$T$75, DW_AT_language(DW_LANG_C)
    1665                            .dwattr $C$DW$T$75, DW_AT_decl_file("C:/ti/ccs1230/ccs/tools/compiler/ti-cgt-arm_20.2.7.LTS/in
    1666                            .dwattr $C$DW$T$75, DW_AT_decl_line(0x65)
    1667                            .dwattr $C$DW$T$75, DW_AT_decl_column(0x13)
    1668                    
    1669                    $C$DW$T$76      .dwtag  DW_TAG_typedef
    1670                            .dwattr $C$DW$T$76, DW_AT_name("int_fast8_t")
    1671                            .dwattr $C$DW$T$76, DW_AT_type(*$C$DW$T$75)
    1672                            .dwattr $C$DW$T$76, DW_AT_language(DW_LANG_C)
    1673                            .dwattr $C$DW$T$76, DW_AT_decl_file("C:/ti/ccs1230/ccs/tools/compiler/ti-cgt-arm_20.2.7.LTS/in
    1674                            .dwattr $C$DW$T$76, DW_AT_decl_line(0x34)
    1675                            .dwattr $C$DW$T$76, DW_AT_decl_column(0x18)
    1676                    
    1677                    $C$DW$T$77      .dwtag  DW_TAG_typedef
    1678                            .dwattr $C$DW$T$77, DW_AT_name("__int_least32_t")
    1679                            .dwattr $C$DW$T$77, DW_AT_type(*$C$DW$T$67)
    1680                            .dwattr $C$DW$T$77, DW_AT_language(DW_LANG_C)
    1681                            .dwattr $C$DW$T$77, DW_AT_decl_file("C:/ti/ccs1230/ccs/tools/compiler/ti-cgt-arm_20.2.7.LTS/in
    1682                            .dwattr $C$DW$T$77, DW_AT_decl_line(0x6b)
    1683                            .dwattr $C$DW$T$77, DW_AT_decl_column(0x13)
    1684                    
    1685                    $C$DW$T$78      .dwtag  DW_TAG_typedef
    1686                            .dwattr $C$DW$T$78, DW_AT_name("int_least32_t")
    1687                            .dwattr $C$DW$T$78, DW_AT_type(*$C$DW$T$77)
    1688                            .dwattr $C$DW$T$78, DW_AT_language(DW_LANG_C)
    1689                            .dwattr $C$DW$T$78, DW_AT_decl_file("C:/ti/ccs1230/ccs/tools/compiler/ti-cgt-arm_20.2.7.LTS/in
    1690                            .dwattr $C$DW$T$78, DW_AT_decl_line(0x2c)
    1691                            .dwattr $C$DW$T$78, DW_AT_decl_column(0x1a)
    1692                    
    1693                    $C$DW$T$79      .dwtag  DW_TAG_typedef
    1694                            .dwattr $C$DW$T$79, DW_AT_name("__intfptr_t")
    1695                            .dwattr $C$DW$T$79, DW_AT_type(*$C$DW$T$67)
    1696                            .dwattr $C$DW$T$79, DW_AT_language(DW_LANG_C)
    1697                            .dwattr $C$DW$T$79, DW_AT_decl_file("C:/ti/ccs1230/ccs/tools/compiler/ti-cgt-arm_20.2.7.LTS/in
    1698                            .dwattr $C$DW$T$79, DW_AT_decl_line(0x62)
    1699                            .dwattr $C$DW$T$79, DW_AT_decl_column(0x13)
    1700                    
TI ARM Assembler PC v20.2.7 Fri Jan 17 11:31:07 2025

Copyright (c) 1996-2018 Texas Instruments Incorporated
Scoreboard.asm                                                       PAGE   32

    1701                    $C$DW$T$80      .dwtag  DW_TAG_typedef
    1702                            .dwattr $C$DW$T$80, DW_AT_name("__intptr_t")
    1703                            .dwattr $C$DW$T$80, DW_AT_type(*$C$DW$T$67)
    1704                            .dwattr $C$DW$T$80, DW_AT_language(DW_LANG_C)
    1705                            .dwattr $C$DW$T$80, DW_AT_decl_file("C:/ti/ccs1230/ccs/tools/compiler/ti-cgt-arm_20.2.7.LTS/in
    1706                            .dwattr $C$DW$T$80, DW_AT_decl_line(0x64)
    1707                            .dwattr $C$DW$T$80, DW_AT_decl_column(0x13)
    1708                    
    1709                    $C$DW$T$81      .dwtag  DW_TAG_typedef
    1710                            .dwattr $C$DW$T$81, DW_AT_name("intptr_t")
    1711                            .dwattr $C$DW$T$81, DW_AT_type(*$C$DW$T$80)
    1712                            .dwattr $C$DW$T$81, DW_AT_language(DW_LANG_C)
    1713                            .dwattr $C$DW$T$81, DW_AT_decl_file("C:/ti/ccs1230/ccs/tools/compiler/ti-cgt-arm_20.2.7.LTS/in
    1714                            .dwattr $C$DW$T$81, DW_AT_decl_line(0x50)
    1715                            .dwattr $C$DW$T$81, DW_AT_decl_column(0x15)
    1716                    
    1717                    $C$DW$T$82      .dwtag  DW_TAG_typedef
    1718                            .dwattr $C$DW$T$82, DW_AT_name("__lwpid_t")
    1719                            .dwattr $C$DW$T$82, DW_AT_type(*$C$DW$T$67)
    1720                            .dwattr $C$DW$T$82, DW_AT_language(DW_LANG_C)
    1721                            .dwattr $C$DW$T$82, DW_AT_decl_file("C:/ti/ccs1230/ccs/tools/compiler/ti-cgt-arm_20.2.7.LTS/in
    1722                            .dwattr $C$DW$T$82, DW_AT_decl_line(0x39)
    1723                            .dwattr $C$DW$T$82, DW_AT_decl_column(0x13)
    1724                    
    1725                    $C$DW$T$83      .dwtag  DW_TAG_typedef
    1726                            .dwattr $C$DW$T$83, DW_AT_name("__pid_t")
    1727                            .dwattr $C$DW$T$83, DW_AT_type(*$C$DW$T$67)
    1728                            .dwattr $C$DW$T$83, DW_AT_language(DW_LANG_C)
    1729                            .dwattr $C$DW$T$83, DW_AT_decl_file("C:/ti/ccs1230/ccs/tools/compiler/ti-cgt-arm_20.2.7.LTS/in
    1730                            .dwattr $C$DW$T$83, DW_AT_decl_line(0x40)
    1731                            .dwattr $C$DW$T$83, DW_AT_decl_column(0x13)
    1732                    
    1733                    $C$DW$T$84      .dwtag  DW_TAG_typedef
    1734                            .dwattr $C$DW$T$84, DW_AT_name("__ptrdiff_t")
    1735                            .dwattr $C$DW$T$84, DW_AT_type(*$C$DW$T$67)
    1736                            .dwattr $C$DW$T$84, DW_AT_language(DW_LANG_C)
    1737                            .dwattr $C$DW$T$84, DW_AT_decl_file("C:/ti/ccs1230/ccs/tools/compiler/ti-cgt-arm_20.2.7.LTS/in
    1738                            .dwattr $C$DW$T$84, DW_AT_decl_line(0x6d)
    1739                            .dwattr $C$DW$T$84, DW_AT_decl_column(0x13)
    1740                    
    1741                    $C$DW$T$85      .dwtag  DW_TAG_typedef
    1742                            .dwattr $C$DW$T$85, DW_AT_name("__register_t")
    1743                            .dwattr $C$DW$T$85, DW_AT_type(*$C$DW$T$67)
    1744                            .dwattr $C$DW$T$85, DW_AT_language(DW_LANG_C)
    1745                            .dwattr $C$DW$T$85, DW_AT_decl_file("C:/ti/ccs1230/ccs/tools/compiler/ti-cgt-arm_20.2.7.LTS/in
    1746                            .dwattr $C$DW$T$85, DW_AT_decl_line(0x6e)
    1747                            .dwattr $C$DW$T$85, DW_AT_decl_column(0x13)
    1748                    
    1749                    $C$DW$T$86      .dwtag  DW_TAG_typedef
    1750                            .dwattr $C$DW$T$86, DW_AT_name("__segsz_t")
    1751                            .dwattr $C$DW$T$86, DW_AT_type(*$C$DW$T$67)
    1752                            .dwattr $C$DW$T$86, DW_AT_language(DW_LANG_C)
    1753                            .dwattr $C$DW$T$86, DW_AT_decl_file("C:/ti/ccs1230/ccs/tools/compiler/ti-cgt-arm_20.2.7.LTS/in
    1754                            .dwattr $C$DW$T$86, DW_AT_decl_line(0x6f)
    1755                            .dwattr $C$DW$T$86, DW_AT_decl_column(0x13)
TI ARM Assembler PC v20.2.7 Fri Jan 17 11:31:07 2025

Copyright (c) 1996-2018 Texas Instruments Incorporated
Scoreboard.asm                                                       PAGE   33

    1756                    
    1757                    $C$DW$T$87      .dwtag  DW_TAG_typedef
    1758                            .dwattr $C$DW$T$87, DW_AT_name("__ssize_t")
    1759                            .dwattr $C$DW$T$87, DW_AT_type(*$C$DW$T$67)
    1760                            .dwattr $C$DW$T$87, DW_AT_language(DW_LANG_C)
    1761                            .dwattr $C$DW$T$87, DW_AT_decl_file("C:/ti/ccs1230/ccs/tools/compiler/ti-cgt-arm_20.2.7.LTS/in
    1762                            .dwattr $C$DW$T$87, DW_AT_decl_line(0x71)
    1763                            .dwattr $C$DW$T$87, DW_AT_decl_column(0x13)
    1764                    
    1765                    $C$DW$T$88      .dwtag  DW_TAG_typedef
    1766                            .dwattr $C$DW$T$88, DW_AT_name("int32_t")
    1767                            .dwattr $C$DW$T$88, DW_AT_type(*$C$DW$T$67)
    1768                            .dwattr $C$DW$T$88, DW_AT_language(DW_LANG_C)
    1769                            .dwattr $C$DW$T$88, DW_AT_decl_file("C:/ti/ccs1230/ccs/tools/compiler/ti-cgt-arm_20.2.7.LTS/in
    1770                            .dwattr $C$DW$T$88, DW_AT_decl_line(0x30)
    1771                            .dwattr $C$DW$T$88, DW_AT_decl_column(0x14)
    1772                    
    1773                    $C$DW$T$89      .dwtag  DW_TAG_typedef
    1774                            .dwattr $C$DW$T$89, DW_AT_name("__nl_item")
    1775                            .dwattr $C$DW$T$89, DW_AT_type(*$C$DW$T$10)
    1776                            .dwattr $C$DW$T$89, DW_AT_language(DW_LANG_C)
    1777                            .dwattr $C$DW$T$89, DW_AT_decl_file("C:/ti/ccs1230/ccs/tools/compiler/ti-cgt-arm_20.2.7.LTS/in
    1778                            .dwattr $C$DW$T$89, DW_AT_decl_line(0x3c)
    1779                            .dwattr $C$DW$T$89, DW_AT_decl_column(0x0e)
    1780                    
    1781                    $C$DW$T$11      .dwtag  DW_TAG_base_type
    1782                            .dwattr $C$DW$T$11, DW_AT_encoding(DW_ATE_unsigned)
    1783                            .dwattr $C$DW$T$11, DW_AT_name("unsigned int")
    1784                            .dwattr $C$DW$T$11, DW_AT_byte_size(0x04)
    1785                    
    1786                    $C$DW$T$23      .dwtag  DW_TAG_typedef
    1787                            .dwattr $C$DW$T$23, DW_AT_name("__uint32_t")
    1788                            .dwattr $C$DW$T$23, DW_AT_type(*$C$DW$T$11)
    1789                            .dwattr $C$DW$T$23, DW_AT_language(DW_LANG_C)
    1790                            .dwattr $C$DW$T$23, DW_AT_decl_file("C:/ti/ccs1230/ccs/tools/compiler/ti-cgt-arm_20.2.7.LTS/in
    1791                            .dwattr $C$DW$T$23, DW_AT_decl_line(0x4f)
    1792                            .dwattr $C$DW$T$23, DW_AT_decl_column(0x17)
    1793                    
    1794                    $C$DW$T$90      .dwtag  DW_TAG_typedef
    1795                            .dwattr $C$DW$T$90, DW_AT_name("__clock_t")
    1796                            .dwattr $C$DW$T$90, DW_AT_type(*$C$DW$T$23)
    1797                            .dwattr $C$DW$T$90, DW_AT_language(DW_LANG_C)
    1798                            .dwattr $C$DW$T$90, DW_AT_decl_file("C:/ti/ccs1230/ccs/tools/compiler/ti-cgt-arm_20.2.7.LTS/in
    1799                            .dwattr $C$DW$T$90, DW_AT_decl_line(0x5e)
    1800                            .dwattr $C$DW$T$90, DW_AT_decl_column(0x14)
    1801                    
    1802                    $C$DW$T$91      .dwtag  DW_TAG_typedef
    1803                            .dwattr $C$DW$T$91, DW_AT_name("__fflags_t")
    1804                            .dwattr $C$DW$T$91, DW_AT_type(*$C$DW$T$23)
    1805                            .dwattr $C$DW$T$91, DW_AT_language(DW_LANG_C)
    1806                            .dwattr $C$DW$T$91, DW_AT_decl_file("C:/ti/ccs1230/ccs/tools/compiler/ti-cgt-arm_20.2.7.LTS/in
    1807                            .dwattr $C$DW$T$91, DW_AT_decl_line(0x32)
    1808                            .dwattr $C$DW$T$91, DW_AT_decl_column(0x14)
    1809                    
    1810                    $C$DW$T$92      .dwtag  DW_TAG_typedef
TI ARM Assembler PC v20.2.7 Fri Jan 17 11:31:07 2025

Copyright (c) 1996-2018 Texas Instruments Incorporated
Scoreboard.asm                                                       PAGE   34

    1811                            .dwattr $C$DW$T$92, DW_AT_name("__fixpt_t")
    1812                            .dwattr $C$DW$T$92, DW_AT_type(*$C$DW$T$23)
    1813                            .dwattr $C$DW$T$92, DW_AT_language(DW_LANG_C)
    1814                            .dwattr $C$DW$T$92, DW_AT_decl_file("C:/ti/ccs1230/ccs/tools/compiler/ti-cgt-arm_20.2.7.LTS/in
    1815                            .dwattr $C$DW$T$92, DW_AT_decl_line(0x81)
    1816                            .dwattr $C$DW$T$92, DW_AT_decl_column(0x14)
    1817                    
    1818                    $C$DW$T$93      .dwtag  DW_TAG_typedef
    1819                            .dwattr $C$DW$T$93, DW_AT_name("__gid_t")
    1820                            .dwattr $C$DW$T$93, DW_AT_type(*$C$DW$T$23)
    1821                            .dwattr $C$DW$T$93, DW_AT_language(DW_LANG_C)
    1822                            .dwattr $C$DW$T$93, DW_AT_decl_file("C:/ti/ccs1230/ccs/tools/compiler/ti-cgt-arm_20.2.7.LTS/in
    1823                            .dwattr $C$DW$T$93, DW_AT_decl_line(0x35)
    1824                            .dwattr $C$DW$T$93, DW_AT_decl_column(0x14)
    1825                    
    1826                    $C$DW$T$94      .dwtag  DW_TAG_typedef
    1827                            .dwattr $C$DW$T$94, DW_AT_name("__size_t")
    1828                            .dwattr $C$DW$T$94, DW_AT_type(*$C$DW$T$23)
    1829                            .dwattr $C$DW$T$94, DW_AT_language(DW_LANG_C)
    1830                            .dwattr $C$DW$T$94, DW_AT_decl_file("C:/ti/ccs1230/ccs/tools/compiler/ti-cgt-arm_20.2.7.LTS/in
    1831                            .dwattr $C$DW$T$94, DW_AT_decl_line(0x70)
    1832                            .dwattr $C$DW$T$94, DW_AT_decl_column(0x14)
    1833                    
    1834                    $C$DW$T$95      .dwtag  DW_TAG_typedef
    1835                            .dwattr $C$DW$T$95, DW_AT_name("__socklen_t")
    1836                            .dwattr $C$DW$T$95, DW_AT_type(*$C$DW$T$23)
    1837                            .dwattr $C$DW$T$95, DW_AT_language(DW_LANG_C)
    1838                            .dwattr $C$DW$T$95, DW_AT_decl_file("C:/ti/ccs1230/ccs/tools/compiler/ti-cgt-arm_20.2.7.LTS/in
    1839                            .dwattr $C$DW$T$95, DW_AT_decl_line(0x49)
    1840                            .dwattr $C$DW$T$95, DW_AT_decl_column(0x14)
    1841                    
    1842                    $C$DW$T$96      .dwtag  DW_TAG_typedef
    1843                            .dwattr $C$DW$T$96, DW_AT_name("__time_t")
    1844                            .dwattr $C$DW$T$96, DW_AT_type(*$C$DW$T$23)
    1845                            .dwattr $C$DW$T$96, DW_AT_language(DW_LANG_C)
    1846                            .dwattr $C$DW$T$96, DW_AT_decl_file("C:/ti/ccs1230/ccs/tools/compiler/ti-cgt-arm_20.2.7.LTS/in
    1847                            .dwattr $C$DW$T$96, DW_AT_decl_line(0x76)
    1848                            .dwattr $C$DW$T$96, DW_AT_decl_column(0x19)
    1849                    
    1850                    $C$DW$T$97      .dwtag  DW_TAG_typedef
    1851                            .dwattr $C$DW$T$97, DW_AT_name("__u_register_t")
    1852                            .dwattr $C$DW$T$97, DW_AT_type(*$C$DW$T$23)
    1853                            .dwattr $C$DW$T$97, DW_AT_language(DW_LANG_C)
    1854                            .dwattr $C$DW$T$97, DW_AT_decl_file("C:/ti/ccs1230/ccs/tools/compiler/ti-cgt-arm_20.2.7.LTS/in
    1855                            .dwattr $C$DW$T$97, DW_AT_decl_line(0x83)
    1856                            .dwattr $C$DW$T$97, DW_AT_decl_column(0x14)
    1857                    
    1858                    $C$DW$T$98      .dwtag  DW_TAG_typedef
    1859                            .dwattr $C$DW$T$98, DW_AT_name("__uid_t")
    1860                            .dwattr $C$DW$T$98, DW_AT_type(*$C$DW$T$23)
    1861                            .dwattr $C$DW$T$98, DW_AT_language(DW_LANG_C)
    1862                            .dwattr $C$DW$T$98, DW_AT_decl_file("C:/ti/ccs1230/ccs/tools/compiler/ti-cgt-arm_20.2.7.LTS/in
    1863                            .dwattr $C$DW$T$98, DW_AT_decl_line(0x4d)
    1864                            .dwattr $C$DW$T$98, DW_AT_decl_column(0x14)
    1865                    
TI ARM Assembler PC v20.2.7 Fri Jan 17 11:31:07 2025

Copyright (c) 1996-2018 Texas Instruments Incorporated
Scoreboard.asm                                                       PAGE   35

    1866                    $C$DW$T$99      .dwtag  DW_TAG_typedef
    1867                            .dwattr $C$DW$T$99, DW_AT_name("__uint_fast16_t")
    1868                            .dwattr $C$DW$T$99, DW_AT_type(*$C$DW$T$23)
    1869                            .dwattr $C$DW$T$99, DW_AT_language(DW_LANG_C)
    1870                            .dwattr $C$DW$T$99, DW_AT_decl_file("C:/ti/ccs1230/ccs/tools/compiler/ti-cgt-arm_20.2.7.LTS/in
    1871                            .dwattr $C$DW$T$99, DW_AT_decl_line(0x7c)
    1872                            .dwattr $C$DW$T$99, DW_AT_decl_column(0x14)
    1873                    
    1874                    $C$DW$T$100     .dwtag  DW_TAG_typedef
    1875                            .dwattr $C$DW$T$100, DW_AT_name("uint_fast16_t")
    1876                            .dwattr $C$DW$T$100, DW_AT_type(*$C$DW$T$99)
    1877                            .dwattr $C$DW$T$100, DW_AT_language(DW_LANG_C)
    1878                            .dwattr $C$DW$T$100, DW_AT_decl_file("C:/ti/ccs1230/ccs/tools/compiler/ti-cgt-arm_20.2.7.LTS/i
    1879                            .dwattr $C$DW$T$100, DW_AT_decl_line(0x3a)
    1880                            .dwattr $C$DW$T$100, DW_AT_decl_column(0x1a)
    1881                    
    1882                    $C$DW$T$101     .dwtag  DW_TAG_typedef
    1883                            .dwattr $C$DW$T$101, DW_AT_name("__uint_fast32_t")
    1884                            .dwattr $C$DW$T$101, DW_AT_type(*$C$DW$T$23)
    1885                            .dwattr $C$DW$T$101, DW_AT_language(DW_LANG_C)
    1886                            .dwattr $C$DW$T$101, DW_AT_decl_file("C:/ti/ccs1230/ccs/tools/compiler/ti-cgt-arm_20.2.7.LTS/i
    1887                            .dwattr $C$DW$T$101, DW_AT_decl_line(0x7d)
    1888                            .dwattr $C$DW$T$101, DW_AT_decl_column(0x14)
    1889                    
    1890                    $C$DW$T$102     .dwtag  DW_TAG_typedef
    1891                            .dwattr $C$DW$T$102, DW_AT_name("uint_fast32_t")
    1892                            .dwattr $C$DW$T$102, DW_AT_type(*$C$DW$T$101)
    1893                            .dwattr $C$DW$T$102, DW_AT_language(DW_LANG_C)
    1894                            .dwattr $C$DW$T$102, DW_AT_decl_file("C:/ti/ccs1230/ccs/tools/compiler/ti-cgt-arm_20.2.7.LTS/i
    1895                            .dwattr $C$DW$T$102, DW_AT_decl_line(0x3b)
    1896                            .dwattr $C$DW$T$102, DW_AT_decl_column(0x1a)
    1897                    
    1898                    $C$DW$T$103     .dwtag  DW_TAG_typedef
    1899                            .dwattr $C$DW$T$103, DW_AT_name("__uint_fast8_t")
    1900                            .dwattr $C$DW$T$103, DW_AT_type(*$C$DW$T$23)
    1901                            .dwattr $C$DW$T$103, DW_AT_language(DW_LANG_C)
    1902                            .dwattr $C$DW$T$103, DW_AT_decl_file("C:/ti/ccs1230/ccs/tools/compiler/ti-cgt-arm_20.2.7.LTS/i
    1903                            .dwattr $C$DW$T$103, DW_AT_decl_line(0x7b)
    1904                            .dwattr $C$DW$T$103, DW_AT_decl_column(0x14)
    1905                    
    1906                    $C$DW$T$104     .dwtag  DW_TAG_typedef
    1907                            .dwattr $C$DW$T$104, DW_AT_name("uint_fast8_t")
    1908                            .dwattr $C$DW$T$104, DW_AT_type(*$C$DW$T$103)
    1909                            .dwattr $C$DW$T$104, DW_AT_language(DW_LANG_C)
    1910                            .dwattr $C$DW$T$104, DW_AT_decl_file("C:/ti/ccs1230/ccs/tools/compiler/ti-cgt-arm_20.2.7.LTS/i
    1911                            .dwattr $C$DW$T$104, DW_AT_decl_line(0x39)
    1912                            .dwattr $C$DW$T$104, DW_AT_decl_column(0x19)
    1913                    
    1914                    $C$DW$T$105     .dwtag  DW_TAG_typedef
    1915                            .dwattr $C$DW$T$105, DW_AT_name("__uint_least32_t")
    1916                            .dwattr $C$DW$T$105, DW_AT_type(*$C$DW$T$23)
    1917                            .dwattr $C$DW$T$105, DW_AT_language(DW_LANG_C)
    1918                            .dwattr $C$DW$T$105, DW_AT_decl_file("C:/ti/ccs1230/ccs/tools/compiler/ti-cgt-arm_20.2.7.LTS/i
    1919                            .dwattr $C$DW$T$105, DW_AT_decl_line(0x81)
    1920                            .dwattr $C$DW$T$105, DW_AT_decl_column(0x14)
TI ARM Assembler PC v20.2.7 Fri Jan 17 11:31:07 2025

Copyright (c) 1996-2018 Texas Instruments Incorporated
Scoreboard.asm                                                       PAGE   36

    1921                    
    1922                    $C$DW$T$106     .dwtag  DW_TAG_typedef
    1923                            .dwattr $C$DW$T$106, DW_AT_name("__char32_t")
    1924                            .dwattr $C$DW$T$106, DW_AT_type(*$C$DW$T$105)
    1925                            .dwattr $C$DW$T$106, DW_AT_language(DW_LANG_C)
    1926                            .dwattr $C$DW$T$106, DW_AT_decl_file("C:/ti/ccs1230/ccs/tools/compiler/ti-cgt-arm_20.2.7.LTS/i
    1927                            .dwattr $C$DW$T$106, DW_AT_decl_line(0x72)
    1928                            .dwattr $C$DW$T$106, DW_AT_decl_column(0x1a)
    1929                    
    1930                    $C$DW$T$107     .dwtag  DW_TAG_typedef
    1931                            .dwattr $C$DW$T$107, DW_AT_name("uint_least32_t")
    1932                            .dwattr $C$DW$T$107, DW_AT_type(*$C$DW$T$105)
    1933                            .dwattr $C$DW$T$107, DW_AT_language(DW_LANG_C)
    1934                            .dwattr $C$DW$T$107, DW_AT_decl_file("C:/ti/ccs1230/ccs/tools/compiler/ti-cgt-arm_20.2.7.LTS/i
    1935                            .dwattr $C$DW$T$107, DW_AT_decl_line(0x31)
    1936                            .dwattr $C$DW$T$107, DW_AT_decl_column(0x1a)
    1937                    
    1938                    $C$DW$T$108     .dwtag  DW_TAG_typedef
    1939                            .dwattr $C$DW$T$108, DW_AT_name("__uintfptr_t")
    1940                            .dwattr $C$DW$T$108, DW_AT_type(*$C$DW$T$23)
    1941                            .dwattr $C$DW$T$108, DW_AT_language(DW_LANG_C)
    1942                            .dwattr $C$DW$T$108, DW_AT_decl_file("C:/ti/ccs1230/ccs/tools/compiler/ti-cgt-arm_20.2.7.LTS/i
    1943                            .dwattr $C$DW$T$108, DW_AT_decl_line(0x78)
    1944                            .dwattr $C$DW$T$108, DW_AT_decl_column(0x14)
    1945                    
    1946                    $C$DW$T$109     .dwtag  DW_TAG_typedef
    1947                            .dwattr $C$DW$T$109, DW_AT_name("__uintptr_t")
    1948                            .dwattr $C$DW$T$109, DW_AT_type(*$C$DW$T$23)
    1949                            .dwattr $C$DW$T$109, DW_AT_language(DW_LANG_C)
    1950                            .dwattr $C$DW$T$109, DW_AT_decl_file("C:/ti/ccs1230/ccs/tools/compiler/ti-cgt-arm_20.2.7.LTS/i
    1951                            .dwattr $C$DW$T$109, DW_AT_decl_line(0x7a)
    1952                            .dwattr $C$DW$T$109, DW_AT_decl_column(0x14)
    1953                    
    1954                    $C$DW$T$110     .dwtag  DW_TAG_typedef
    1955                            .dwattr $C$DW$T$110, DW_AT_name("uintptr_t")
    1956                            .dwattr $C$DW$T$110, DW_AT_type(*$C$DW$T$109)
    1957                            .dwattr $C$DW$T$110, DW_AT_language(DW_LANG_C)
    1958                            .dwattr $C$DW$T$110, DW_AT_decl_file("C:/ti/ccs1230/ccs/tools/compiler/ti-cgt-arm_20.2.7.LTS/i
    1959                            .dwattr $C$DW$T$110, DW_AT_decl_line(0x54)
    1960                            .dwattr $C$DW$T$110, DW_AT_decl_column(0x16)
    1961                    
    1962                    $C$DW$T$111     .dwtag  DW_TAG_typedef
    1963                            .dwattr $C$DW$T$111, DW_AT_name("__vm_offset_t")
    1964                            .dwattr $C$DW$T$111, DW_AT_type(*$C$DW$T$23)
    1965                            .dwattr $C$DW$T$111, DW_AT_language(DW_LANG_C)
    1966                            .dwattr $C$DW$T$111, DW_AT_decl_file("C:/ti/ccs1230/ccs/tools/compiler/ti-cgt-arm_20.2.7.LTS/i
    1967                            .dwattr $C$DW$T$111, DW_AT_decl_line(0x84)
    1968                            .dwattr $C$DW$T$111, DW_AT_decl_column(0x14)
    1969                    
    1970                    $C$DW$T$112     .dwtag  DW_TAG_typedef
    1971                            .dwattr $C$DW$T$112, DW_AT_name("__vm_paddr_t")
    1972                            .dwattr $C$DW$T$112, DW_AT_type(*$C$DW$T$23)
    1973                            .dwattr $C$DW$T$112, DW_AT_language(DW_LANG_C)
    1974                            .dwattr $C$DW$T$112, DW_AT_decl_file("C:/ti/ccs1230/ccs/tools/compiler/ti-cgt-arm_20.2.7.LTS/i
    1975                            .dwattr $C$DW$T$112, DW_AT_decl_line(0x85)
TI ARM Assembler PC v20.2.7 Fri Jan 17 11:31:07 2025

Copyright (c) 1996-2018 Texas Instruments Incorporated
Scoreboard.asm                                                       PAGE   37

    1976                            .dwattr $C$DW$T$112, DW_AT_decl_column(0x14)
    1977                    
    1978                    $C$DW$T$113     .dwtag  DW_TAG_typedef
    1979                            .dwattr $C$DW$T$113, DW_AT_name("__vm_size_t")
    1980                            .dwattr $C$DW$T$113, DW_AT_type(*$C$DW$T$23)
    1981                            .dwattr $C$DW$T$113, DW_AT_language(DW_LANG_C)
    1982                            .dwattr $C$DW$T$113, DW_AT_decl_file("C:/ti/ccs1230/ccs/tools/compiler/ti-cgt-arm_20.2.7.LTS/i
    1983                            .dwattr $C$DW$T$113, DW_AT_decl_line(0x86)
    1984                            .dwattr $C$DW$T$113, DW_AT_decl_column(0x14)
    1985                    
    1986                    $C$DW$T$24      .dwtag  DW_TAG_typedef
    1987                            .dwattr $C$DW$T$24, DW_AT_name("uint32_t")
    1988                            .dwattr $C$DW$T$24, DW_AT_type(*$C$DW$T$23)
    1989                            .dwattr $C$DW$T$24, DW_AT_language(DW_LANG_C)
    1990                            .dwattr $C$DW$T$24, DW_AT_decl_file("C:/ti/ccs1230/ccs/tools/compiler/ti-cgt-arm_20.2.7.LTS/in
    1991                            .dwattr $C$DW$T$24, DW_AT_decl_line(0x46)
    1992                            .dwattr $C$DW$T$24, DW_AT_decl_column(0x15)
    1993                    
    1994                    $C$DW$T$114     .dwtag  DW_TAG_pointer_type
    1995                            .dwattr $C$DW$T$114, DW_AT_type(*$C$DW$T$24)
    1996                            .dwattr $C$DW$T$114, DW_AT_address_class(0x20)
    1997                    
    1998                    $C$DW$T$115     .dwtag  DW_TAG_typedef
    1999                            .dwattr $C$DW$T$115, DW_AT_name("__useconds_t")
    2000                            .dwattr $C$DW$T$115, DW_AT_type(*$C$DW$T$11)
    2001                            .dwattr $C$DW$T$115, DW_AT_language(DW_LANG_C)
    2002                            .dwattr $C$DW$T$115, DW_AT_decl_file("C:/ti/ccs1230/ccs/tools/compiler/ti-cgt-arm_20.2.7.LTS/i
    2003                            .dwattr $C$DW$T$115, DW_AT_decl_line(0x4e)
    2004                            .dwattr $C$DW$T$115, DW_AT_decl_column(0x16)
    2005                    
    2006                    $C$DW$T$12      .dwtag  DW_TAG_base_type
    2007                            .dwattr $C$DW$T$12, DW_AT_encoding(DW_ATE_signed)
    2008                            .dwattr $C$DW$T$12, DW_AT_name("long")
    2009                            .dwattr $C$DW$T$12, DW_AT_byte_size(0x04)
    2010                    
    2011                    $C$DW$T$116     .dwtag  DW_TAG_typedef
    2012                            .dwattr $C$DW$T$116, DW_AT_name("__key_t")
    2013                            .dwattr $C$DW$T$116, DW_AT_type(*$C$DW$T$12)
    2014                            .dwattr $C$DW$T$116, DW_AT_language(DW_LANG_C)
    2015                            .dwattr $C$DW$T$116, DW_AT_decl_file("C:/ti/ccs1230/ccs/tools/compiler/ti-cgt-arm_20.2.7.LTS/i
    2016                            .dwattr $C$DW$T$116, DW_AT_decl_line(0x38)
    2017                            .dwattr $C$DW$T$116, DW_AT_decl_column(0x0f)
    2018                    
    2019                    $C$DW$T$117     .dwtag  DW_TAG_typedef
    2020                            .dwattr $C$DW$T$117, DW_AT_name("__suseconds_t")
    2021                            .dwattr $C$DW$T$117, DW_AT_type(*$C$DW$T$12)
    2022                            .dwattr $C$DW$T$117, DW_AT_language(DW_LANG_C)
    2023                            .dwattr $C$DW$T$117, DW_AT_decl_file("C:/ti/ccs1230/ccs/tools/compiler/ti-cgt-arm_20.2.7.LTS/i
    2024                            .dwattr $C$DW$T$117, DW_AT_decl_line(0x4a)
    2025                            .dwattr $C$DW$T$117, DW_AT_decl_column(0x0f)
    2026                    
    2027                    $C$DW$T$118     .dwtag  DW_TAG_typedef
    2028                            .dwattr $C$DW$T$118, DW_AT_name("_off_t")
    2029                            .dwattr $C$DW$T$118, DW_AT_type(*$C$DW$T$12)
    2030                            .dwattr $C$DW$T$118, DW_AT_language(DW_LANG_C)
TI ARM Assembler PC v20.2.7 Fri Jan 17 11:31:07 2025

Copyright (c) 1996-2018 Texas Instruments Incorporated
Scoreboard.asm                                                       PAGE   38

    2031                            .dwattr $C$DW$T$118, DW_AT_decl_file("C:/ti/ccs1230/ccs/tools/compiler/ti-cgt-arm_20.2.7.LTS/i
    2032                            .dwattr $C$DW$T$118, DW_AT_decl_line(0x9d)
    2033                            .dwattr $C$DW$T$118, DW_AT_decl_column(0x0e)
    2034                    
    2035                    $C$DW$T$119     .dwtag  DW_TAG_typedef
    2036                            .dwattr $C$DW$T$119, DW_AT_name("__off_t")
    2037                            .dwattr $C$DW$T$119, DW_AT_type(*$C$DW$T$118)
    2038                            .dwattr $C$DW$T$119, DW_AT_language(DW_LANG_C)
    2039                            .dwattr $C$DW$T$119, DW_AT_decl_file("C:/ti/ccs1230/ccs/tools/compiler/ti-cgt-arm_20.2.7.LTS/i
    2040                            .dwattr $C$DW$T$119, DW_AT_decl_line(0x3e)
    2041                            .dwattr $C$DW$T$119, DW_AT_decl_column(0x18)
    2042                    
    2043                    $C$DW$T$13      .dwtag  DW_TAG_base_type
    2044                            .dwattr $C$DW$T$13, DW_AT_encoding(DW_ATE_unsigned)
    2045                            .dwattr $C$DW$T$13, DW_AT_name("unsigned long")
    2046                            .dwattr $C$DW$T$13, DW_AT_byte_size(0x04)
    2047                    
    2048                    $C$DW$T$14      .dwtag  DW_TAG_base_type
    2049                            .dwattr $C$DW$T$14, DW_AT_encoding(DW_ATE_signed)
    2050                            .dwattr $C$DW$T$14, DW_AT_name("long long")
    2051                            .dwattr $C$DW$T$14, DW_AT_byte_size(0x08)
    2052                    
    2053                    $C$DW$T$120     .dwtag  DW_TAG_typedef
    2054                            .dwattr $C$DW$T$120, DW_AT_name("__int64_t")
    2055                            .dwattr $C$DW$T$120, DW_AT_type(*$C$DW$T$14)
    2056                            .dwattr $C$DW$T$120, DW_AT_language(DW_LANG_C)
    2057                            .dwattr $C$DW$T$120, DW_AT_decl_file("C:/ti/ccs1230/ccs/tools/compiler/ti-cgt-arm_20.2.7.LTS/i
    2058                            .dwattr $C$DW$T$120, DW_AT_decl_line(0x54)
    2059                            .dwattr $C$DW$T$120, DW_AT_decl_column(0x14)
    2060                    
    2061                    $C$DW$T$121     .dwtag  DW_TAG_typedef
    2062                            .dwattr $C$DW$T$121, DW_AT_name("__blkcnt_t")
    2063                            .dwattr $C$DW$T$121, DW_AT_type(*$C$DW$T$120)
    2064                            .dwattr $C$DW$T$121, DW_AT_language(DW_LANG_C)
    2065                            .dwattr $C$DW$T$121, DW_AT_decl_file("C:/ti/ccs1230/ccs/tools/compiler/ti-cgt-arm_20.2.7.LTS/i
    2066                            .dwattr $C$DW$T$121, DW_AT_decl_line(0x30)
    2067                            .dwattr $C$DW$T$121, DW_AT_decl_column(0x13)
    2068                    
    2069                    $C$DW$T$122     .dwtag  DW_TAG_typedef
    2070                            .dwattr $C$DW$T$122, DW_AT_name("__id_t")
    2071                            .dwattr $C$DW$T$122, DW_AT_type(*$C$DW$T$120)
    2072                            .dwattr $C$DW$T$122, DW_AT_language(DW_LANG_C)
    2073                            .dwattr $C$DW$T$122, DW_AT_decl_file("C:/ti/ccs1230/ccs/tools/compiler/ti-cgt-arm_20.2.7.LTS/i
    2074                            .dwattr $C$DW$T$122, DW_AT_decl_line(0x36)
    2075                            .dwattr $C$DW$T$122, DW_AT_decl_column(0x13)
    2076                    
    2077                    $C$DW$T$123     .dwtag  DW_TAG_typedef
    2078                            .dwattr $C$DW$T$123, DW_AT_name("__int_fast64_t")
    2079                            .dwattr $C$DW$T$123, DW_AT_type(*$C$DW$T$120)
    2080                            .dwattr $C$DW$T$123, DW_AT_language(DW_LANG_C)
    2081                            .dwattr $C$DW$T$123, DW_AT_decl_file("C:/ti/ccs1230/ccs/tools/compiler/ti-cgt-arm_20.2.7.LTS/i
    2082                            .dwattr $C$DW$T$123, DW_AT_decl_line(0x68)
    2083                            .dwattr $C$DW$T$123, DW_AT_decl_column(0x13)
    2084                    
    2085                    $C$DW$T$124     .dwtag  DW_TAG_typedef
TI ARM Assembler PC v20.2.7 Fri Jan 17 11:31:07 2025

Copyright (c) 1996-2018 Texas Instruments Incorporated
Scoreboard.asm                                                       PAGE   39

    2086                            .dwattr $C$DW$T$124, DW_AT_name("int_fast64_t")
    2087                            .dwattr $C$DW$T$124, DW_AT_type(*$C$DW$T$123)
    2088                            .dwattr $C$DW$T$124, DW_AT_language(DW_LANG_C)
    2089                            .dwattr $C$DW$T$124, DW_AT_decl_file("C:/ti/ccs1230/ccs/tools/compiler/ti-cgt-arm_20.2.7.LTS/i
    2090                            .dwattr $C$DW$T$124, DW_AT_decl_line(0x37)
    2091                            .dwattr $C$DW$T$124, DW_AT_decl_column(0x19)
    2092                    
    2093                    $C$DW$T$125     .dwtag  DW_TAG_typedef
    2094                            .dwattr $C$DW$T$125, DW_AT_name("__int_least64_t")
    2095                            .dwattr $C$DW$T$125, DW_AT_type(*$C$DW$T$120)
    2096                            .dwattr $C$DW$T$125, DW_AT_language(DW_LANG_C)
    2097                            .dwattr $C$DW$T$125, DW_AT_decl_file("C:/ti/ccs1230/ccs/tools/compiler/ti-cgt-arm_20.2.7.LTS/i
    2098                            .dwattr $C$DW$T$125, DW_AT_decl_line(0x6c)
    2099                            .dwattr $C$DW$T$125, DW_AT_decl_column(0x13)
    2100                    
    2101                    $C$DW$T$126     .dwtag  DW_TAG_typedef
    2102                            .dwattr $C$DW$T$126, DW_AT_name("int_least64_t")
    2103                            .dwattr $C$DW$T$126, DW_AT_type(*$C$DW$T$125)
    2104                            .dwattr $C$DW$T$126, DW_AT_language(DW_LANG_C)
    2105                            .dwattr $C$DW$T$126, DW_AT_decl_file("C:/ti/ccs1230/ccs/tools/compiler/ti-cgt-arm_20.2.7.LTS/i
    2106                            .dwattr $C$DW$T$126, DW_AT_decl_line(0x2d)
    2107                            .dwattr $C$DW$T$126, DW_AT_decl_column(0x1a)
    2108                    
    2109                    $C$DW$T$127     .dwtag  DW_TAG_typedef
    2110                            .dwattr $C$DW$T$127, DW_AT_name("__intmax_t")
    2111                            .dwattr $C$DW$T$127, DW_AT_type(*$C$DW$T$120)
    2112                            .dwattr $C$DW$T$127, DW_AT_language(DW_LANG_C)
    2113                            .dwattr $C$DW$T$127, DW_AT_decl_file("C:/ti/ccs1230/ccs/tools/compiler/ti-cgt-arm_20.2.7.LTS/i
    2114                            .dwattr $C$DW$T$127, DW_AT_decl_line(0x63)
    2115                            .dwattr $C$DW$T$127, DW_AT_decl_column(0x13)
    2116                    
    2117                    $C$DW$T$128     .dwtag  DW_TAG_typedef
    2118                            .dwattr $C$DW$T$128, DW_AT_name("intmax_t")
    2119                            .dwattr $C$DW$T$128, DW_AT_type(*$C$DW$T$127)
    2120                            .dwattr $C$DW$T$128, DW_AT_language(DW_LANG_C)
    2121                            .dwattr $C$DW$T$128, DW_AT_decl_file("C:/ti/ccs1230/ccs/tools/compiler/ti-cgt-arm_20.2.7.LTS/i
    2122                            .dwattr $C$DW$T$128, DW_AT_decl_line(0x58)
    2123                            .dwattr $C$DW$T$128, DW_AT_decl_column(0x15)
    2124                    
    2125                    $C$DW$T$129     .dwtag  DW_TAG_typedef
    2126                            .dwattr $C$DW$T$129, DW_AT_name("__off64_t")
    2127                            .dwattr $C$DW$T$129, DW_AT_type(*$C$DW$T$120)
    2128                            .dwattr $C$DW$T$129, DW_AT_language(DW_LANG_C)
    2129                            .dwattr $C$DW$T$129, DW_AT_decl_file("C:/ti/ccs1230/ccs/tools/compiler/ti-cgt-arm_20.2.7.LTS/i
    2130                            .dwattr $C$DW$T$129, DW_AT_decl_line(0x3f)
    2131                            .dwattr $C$DW$T$129, DW_AT_decl_column(0x13)
    2132                    
    2133                    $C$DW$T$130     .dwtag  DW_TAG_typedef
    2134                            .dwattr $C$DW$T$130, DW_AT_name("__rlim_t")
    2135                            .dwattr $C$DW$T$130, DW_AT_type(*$C$DW$T$120)
    2136                            .dwattr $C$DW$T$130, DW_AT_language(DW_LANG_C)
    2137                            .dwattr $C$DW$T$130, DW_AT_decl_file("C:/ti/ccs1230/ccs/tools/compiler/ti-cgt-arm_20.2.7.LTS/i
    2138                            .dwattr $C$DW$T$130, DW_AT_decl_line(0x41)
    2139                            .dwattr $C$DW$T$130, DW_AT_decl_column(0x13)
    2140                    
TI ARM Assembler PC v20.2.7 Fri Jan 17 11:31:07 2025

Copyright (c) 1996-2018 Texas Instruments Incorporated
Scoreboard.asm                                                       PAGE   40

    2141                    $C$DW$T$131     .dwtag  DW_TAG_typedef
    2142                            .dwattr $C$DW$T$131, DW_AT_name("int64_t")
    2143                            .dwattr $C$DW$T$131, DW_AT_type(*$C$DW$T$120)
    2144                            .dwattr $C$DW$T$131, DW_AT_language(DW_LANG_C)
    2145                            .dwattr $C$DW$T$131, DW_AT_decl_file("C:/ti/ccs1230/ccs/tools/compiler/ti-cgt-arm_20.2.7.LTS/i
    2146                            .dwattr $C$DW$T$131, DW_AT_decl_line(0x35)
    2147                            .dwattr $C$DW$T$131, DW_AT_decl_column(0x14)
    2148                    
    2149                    $C$DW$T$15      .dwtag  DW_TAG_base_type
    2150                            .dwattr $C$DW$T$15, DW_AT_encoding(DW_ATE_unsigned)
    2151                            .dwattr $C$DW$T$15, DW_AT_name("unsigned long long")
    2152                            .dwattr $C$DW$T$15, DW_AT_byte_size(0x08)
    2153                    
    2154                    $C$DW$T$132     .dwtag  DW_TAG_typedef
    2155                            .dwattr $C$DW$T$132, DW_AT_name("__uint64_t")
    2156                            .dwattr $C$DW$T$132, DW_AT_type(*$C$DW$T$15)
    2157                            .dwattr $C$DW$T$132, DW_AT_language(DW_LANG_C)
    2158                            .dwattr $C$DW$T$132, DW_AT_decl_file("C:/ti/ccs1230/ccs/tools/compiler/ti-cgt-arm_20.2.7.LTS/i
    2159                            .dwattr $C$DW$T$132, DW_AT_decl_line(0x59)
    2160                            .dwattr $C$DW$T$132, DW_AT_decl_column(0x1c)
    2161                    
    2162                    $C$DW$T$133     .dwtag  DW_TAG_typedef
    2163                            .dwattr $C$DW$T$133, DW_AT_name("__dev_t")
    2164                            .dwattr $C$DW$T$133, DW_AT_type(*$C$DW$T$132)
    2165                            .dwattr $C$DW$T$133, DW_AT_language(DW_LANG_C)
    2166                            .dwattr $C$DW$T$133, DW_AT_decl_file("C:/ti/ccs1230/ccs/tools/compiler/ti-cgt-arm_20.2.7.LTS/i
    2167                            .dwattr $C$DW$T$133, DW_AT_decl_line(0x7f)
    2168                            .dwattr $C$DW$T$133, DW_AT_decl_column(0x14)
    2169                    
    2170                    $C$DW$T$134     .dwtag  DW_TAG_typedef
    2171                            .dwattr $C$DW$T$134, DW_AT_name("__fsblkcnt_t")
    2172                            .dwattr $C$DW$T$134, DW_AT_type(*$C$DW$T$132)
    2173                            .dwattr $C$DW$T$134, DW_AT_language(DW_LANG_C)
    2174                            .dwattr $C$DW$T$134, DW_AT_decl_file("C:/ti/ccs1230/ccs/tools/compiler/ti-cgt-arm_20.2.7.LTS/i
    2175                            .dwattr $C$DW$T$134, DW_AT_decl_line(0x33)
    2176                            .dwattr $C$DW$T$134, DW_AT_decl_column(0x14)
    2177                    
    2178                    $C$DW$T$135     .dwtag  DW_TAG_typedef
    2179                            .dwattr $C$DW$T$135, DW_AT_name("__fsfilcnt_t")
    2180                            .dwattr $C$DW$T$135, DW_AT_type(*$C$DW$T$132)
    2181                            .dwattr $C$DW$T$135, DW_AT_language(DW_LANG_C)
    2182                            .dwattr $C$DW$T$135, DW_AT_decl_file("C:/ti/ccs1230/ccs/tools/compiler/ti-cgt-arm_20.2.7.LTS/i
    2183                            .dwattr $C$DW$T$135, DW_AT_decl_line(0x34)
    2184                            .dwattr $C$DW$T$135, DW_AT_decl_column(0x14)
    2185                    
    2186                    $C$DW$T$136     .dwtag  DW_TAG_typedef
    2187                            .dwattr $C$DW$T$136, DW_AT_name("__ino_t")
    2188                            .dwattr $C$DW$T$136, DW_AT_type(*$C$DW$T$132)
    2189                            .dwattr $C$DW$T$136, DW_AT_language(DW_LANG_C)
    2190                            .dwattr $C$DW$T$136, DW_AT_decl_file("C:/ti/ccs1230/ccs/tools/compiler/ti-cgt-arm_20.2.7.LTS/i
    2191                            .dwattr $C$DW$T$136, DW_AT_decl_line(0x37)
    2192                            .dwattr $C$DW$T$136, DW_AT_decl_column(0x14)
    2193                    
    2194                    $C$DW$T$137     .dwtag  DW_TAG_typedef
    2195                            .dwattr $C$DW$T$137, DW_AT_name("__nlink_t")
TI ARM Assembler PC v20.2.7 Fri Jan 17 11:31:07 2025

Copyright (c) 1996-2018 Texas Instruments Incorporated
Scoreboard.asm                                                       PAGE   41

    2196                            .dwattr $C$DW$T$137, DW_AT_type(*$C$DW$T$132)
    2197                            .dwattr $C$DW$T$137, DW_AT_language(DW_LANG_C)
    2198                            .dwattr $C$DW$T$137, DW_AT_decl_file("C:/ti/ccs1230/ccs/tools/compiler/ti-cgt-arm_20.2.7.LTS/i
    2199                            .dwattr $C$DW$T$137, DW_AT_decl_line(0x3d)
    2200                            .dwattr $C$DW$T$137, DW_AT_decl_column(0x14)
    2201                    
    2202                    $C$DW$T$138     .dwtag  DW_TAG_typedef
    2203                            .dwattr $C$DW$T$138, DW_AT_name("__uint_fast64_t")
    2204                            .dwattr $C$DW$T$138, DW_AT_type(*$C$DW$T$132)
    2205                            .dwattr $C$DW$T$138, DW_AT_language(DW_LANG_C)
    2206                            .dwattr $C$DW$T$138, DW_AT_decl_file("C:/ti/ccs1230/ccs/tools/compiler/ti-cgt-arm_20.2.7.LTS/i
    2207                            .dwattr $C$DW$T$138, DW_AT_decl_line(0x7e)
    2208                            .dwattr $C$DW$T$138, DW_AT_decl_column(0x14)
    2209                    
    2210                    $C$DW$T$139     .dwtag  DW_TAG_typedef
    2211                            .dwattr $C$DW$T$139, DW_AT_name("uint_fast64_t")
    2212                            .dwattr $C$DW$T$139, DW_AT_type(*$C$DW$T$138)
    2213                            .dwattr $C$DW$T$139, DW_AT_language(DW_LANG_C)
    2214                            .dwattr $C$DW$T$139, DW_AT_decl_file("C:/ti/ccs1230/ccs/tools/compiler/ti-cgt-arm_20.2.7.LTS/i
    2215                            .dwattr $C$DW$T$139, DW_AT_decl_line(0x3c)
    2216                            .dwattr $C$DW$T$139, DW_AT_decl_column(0x1a)
    2217                    
    2218                    $C$DW$T$140     .dwtag  DW_TAG_typedef
    2219                            .dwattr $C$DW$T$140, DW_AT_name("__uint_least64_t")
    2220                            .dwattr $C$DW$T$140, DW_AT_type(*$C$DW$T$132)
    2221                            .dwattr $C$DW$T$140, DW_AT_language(DW_LANG_C)
    2222                            .dwattr $C$DW$T$140, DW_AT_decl_file("C:/ti/ccs1230/ccs/tools/compiler/ti-cgt-arm_20.2.7.LTS/i
    2223                            .dwattr $C$DW$T$140, DW_AT_decl_line(0x82)
    2224                            .dwattr $C$DW$T$140, DW_AT_decl_column(0x14)
    2225                    
    2226                    $C$DW$T$141     .dwtag  DW_TAG_typedef
    2227                            .dwattr $C$DW$T$141, DW_AT_name("uint_least64_t")
    2228                            .dwattr $C$DW$T$141, DW_AT_type(*$C$DW$T$140)
    2229                            .dwattr $C$DW$T$141, DW_AT_language(DW_LANG_C)
    2230                            .dwattr $C$DW$T$141, DW_AT_decl_file("C:/ti/ccs1230/ccs/tools/compiler/ti-cgt-arm_20.2.7.LTS/i
    2231                            .dwattr $C$DW$T$141, DW_AT_decl_line(0x32)
    2232                            .dwattr $C$DW$T$141, DW_AT_decl_column(0x1a)
    2233                    
    2234                    $C$DW$T$142     .dwtag  DW_TAG_typedef
    2235                            .dwattr $C$DW$T$142, DW_AT_name("__uintmax_t")
    2236                            .dwattr $C$DW$T$142, DW_AT_type(*$C$DW$T$132)
    2237                            .dwattr $C$DW$T$142, DW_AT_language(DW_LANG_C)
    2238                            .dwattr $C$DW$T$142, DW_AT_decl_file("C:/ti/ccs1230/ccs/tools/compiler/ti-cgt-arm_20.2.7.LTS/i
    2239                            .dwattr $C$DW$T$142, DW_AT_decl_line(0x79)
    2240                            .dwattr $C$DW$T$142, DW_AT_decl_column(0x14)
    2241                    
    2242                    $C$DW$T$143     .dwtag  DW_TAG_typedef
    2243                            .dwattr $C$DW$T$143, DW_AT_name("__rman_res_t")
    2244                            .dwattr $C$DW$T$143, DW_AT_type(*$C$DW$T$142)
    2245                            .dwattr $C$DW$T$143, DW_AT_language(DW_LANG_C)
    2246                            .dwattr $C$DW$T$143, DW_AT_decl_file("C:/ti/ccs1230/ccs/tools/compiler/ti-cgt-arm_20.2.7.LTS/i
    2247                            .dwattr $C$DW$T$143, DW_AT_decl_line(0x9a)
    2248                            .dwattr $C$DW$T$143, DW_AT_decl_column(0x19)
    2249                    
    2250                    $C$DW$T$144     .dwtag  DW_TAG_typedef
TI ARM Assembler PC v20.2.7 Fri Jan 17 11:31:07 2025

Copyright (c) 1996-2018 Texas Instruments Incorporated
Scoreboard.asm                                                       PAGE   42

    2251                            .dwattr $C$DW$T$144, DW_AT_name("uintmax_t")
    2252                            .dwattr $C$DW$T$144, DW_AT_type(*$C$DW$T$142)
    2253                            .dwattr $C$DW$T$144, DW_AT_language(DW_LANG_C)
    2254                            .dwattr $C$DW$T$144, DW_AT_decl_file("C:/ti/ccs1230/ccs/tools/compiler/ti-cgt-arm_20.2.7.LTS/i
    2255                            .dwattr $C$DW$T$144, DW_AT_decl_line(0x5c)
    2256                            .dwattr $C$DW$T$144, DW_AT_decl_column(0x16)
    2257                    
    2258                    $C$DW$T$145     .dwtag  DW_TAG_typedef
    2259                            .dwattr $C$DW$T$145, DW_AT_name("uint64_t")
    2260                            .dwattr $C$DW$T$145, DW_AT_type(*$C$DW$T$132)
    2261                            .dwattr $C$DW$T$145, DW_AT_language(DW_LANG_C)
    2262                            .dwattr $C$DW$T$145, DW_AT_decl_file("C:/ti/ccs1230/ccs/tools/compiler/ti-cgt-arm_20.2.7.LTS/i
    2263                            .dwattr $C$DW$T$145, DW_AT_decl_line(0x4b)
    2264                            .dwattr $C$DW$T$145, DW_AT_decl_column(0x15)
    2265                    
    2266                    $C$DW$T$16      .dwtag  DW_TAG_base_type
    2267                            .dwattr $C$DW$T$16, DW_AT_encoding(DW_ATE_float)
    2268                            .dwattr $C$DW$T$16, DW_AT_name("float")
    2269                            .dwattr $C$DW$T$16, DW_AT_byte_size(0x04)
    2270                    
    2271                    $C$DW$T$146     .dwtag  DW_TAG_typedef
    2272                            .dwattr $C$DW$T$146, DW_AT_name("__float_t")
    2273                            .dwattr $C$DW$T$146, DW_AT_type(*$C$DW$T$16)
    2274                            .dwattr $C$DW$T$146, DW_AT_language(DW_LANG_C)
    2275                            .dwattr $C$DW$T$146, DW_AT_decl_file("C:/ti/ccs1230/ccs/tools/compiler/ti-cgt-arm_20.2.7.LTS/i
    2276                            .dwattr $C$DW$T$146, DW_AT_decl_line(0x61)
    2277                            .dwattr $C$DW$T$146, DW_AT_decl_column(0x10)
    2278                    
    2279                    $C$DW$T$17      .dwtag  DW_TAG_base_type
    2280                            .dwattr $C$DW$T$17, DW_AT_encoding(DW_ATE_float)
    2281                            .dwattr $C$DW$T$17, DW_AT_name("double")
    2282                            .dwattr $C$DW$T$17, DW_AT_byte_size(0x08)
    2283                    
    2284                    $C$DW$T$147     .dwtag  DW_TAG_typedef
    2285                            .dwattr $C$DW$T$147, DW_AT_name("__double_t")
    2286                            .dwattr $C$DW$T$147, DW_AT_type(*$C$DW$T$17)
    2287                            .dwattr $C$DW$T$147, DW_AT_language(DW_LANG_C)
    2288                            .dwattr $C$DW$T$147, DW_AT_decl_file("C:/ti/ccs1230/ccs/tools/compiler/ti-cgt-arm_20.2.7.LTS/i
    2289                            .dwattr $C$DW$T$147, DW_AT_decl_line(0x60)
    2290                            .dwattr $C$DW$T$147, DW_AT_decl_column(0x11)
    2291                    
    2292                    $C$DW$T$18      .dwtag  DW_TAG_base_type
    2293                            .dwattr $C$DW$T$18, DW_AT_encoding(DW_ATE_float)
    2294                            .dwattr $C$DW$T$18, DW_AT_name("long double")
    2295                            .dwattr $C$DW$T$18, DW_AT_byte_size(0x08)
    2296                    
    2297                    
    2298                    $C$DW$T$19      .dwtag  DW_TAG_structure_type
    2299                            .dwattr $C$DW$T$19, DW_AT_name("__mq")
    2300                            .dwattr $C$DW$T$19, DW_AT_declaration
    2301                            .dwattr $C$DW$T$19, DW_AT_decl_file("C:/ti/ccs1230/ccs/tools/compiler/ti-cgt-arm_20.2.7.LTS/in
    2302                            .dwattr $C$DW$T$19, DW_AT_decl_line(0x4c)
    2303                            .dwattr $C$DW$T$19, DW_AT_decl_column(0x10)
    2304                            .dwendtag $C$DW$T$19
    2305                    
TI ARM Assembler PC v20.2.7 Fri Jan 17 11:31:07 2025

Copyright (c) 1996-2018 Texas Instruments Incorporated
Scoreboard.asm                                                       PAGE   43

    2306                    $C$DW$T$148     .dwtag  DW_TAG_pointer_type
    2307                            .dwattr $C$DW$T$148, DW_AT_type(*$C$DW$T$19)
    2308                            .dwattr $C$DW$T$148, DW_AT_address_class(0x20)
    2309                    
    2310                    $C$DW$T$149     .dwtag  DW_TAG_typedef
    2311                            .dwattr $C$DW$T$149, DW_AT_name("__mqd_t")
    2312                            .dwattr $C$DW$T$149, DW_AT_type(*$C$DW$T$148)
    2313                            .dwattr $C$DW$T$149, DW_AT_language(DW_LANG_C)
    2314                            .dwattr $C$DW$T$149, DW_AT_decl_file("C:/ti/ccs1230/ccs/tools/compiler/ti-cgt-arm_20.2.7.LTS/i
    2315                            .dwattr $C$DW$T$149, DW_AT_decl_line(0x4c)
    2316                            .dwattr $C$DW$T$149, DW_AT_decl_column(0x16)
    2317                    
    2318                    
    2319                    $C$DW$T$20      .dwtag  DW_TAG_structure_type
    2320                            .dwattr $C$DW$T$20, DW_AT_name("__timer")
    2321                            .dwattr $C$DW$T$20, DW_AT_declaration
    2322                            .dwattr $C$DW$T$20, DW_AT_decl_file("C:/ti/ccs1230/ccs/tools/compiler/ti-cgt-arm_20.2.7.LTS/in
    2323                            .dwattr $C$DW$T$20, DW_AT_decl_line(0x4b)
    2324                            .dwattr $C$DW$T$20, DW_AT_decl_column(0x10)
    2325                            .dwendtag $C$DW$T$20
    2326                    
    2327                    $C$DW$T$150     .dwtag  DW_TAG_pointer_type
    2328                            .dwattr $C$DW$T$150, DW_AT_type(*$C$DW$T$20)
    2329                            .dwattr $C$DW$T$150, DW_AT_address_class(0x20)
    2330                    
    2331                    $C$DW$T$151     .dwtag  DW_TAG_typedef
    2332                            .dwattr $C$DW$T$151, DW_AT_name("__timer_t")
    2333                            .dwattr $C$DW$T$151, DW_AT_type(*$C$DW$T$150)
    2334                            .dwattr $C$DW$T$151, DW_AT_language(DW_LANG_C)
    2335                            .dwattr $C$DW$T$151, DW_AT_decl_file("C:/ti/ccs1230/ccs/tools/compiler/ti-cgt-arm_20.2.7.LTS/i
    2336                            .dwattr $C$DW$T$151, DW_AT_decl_line(0x4b)
    2337                            .dwattr $C$DW$T$151, DW_AT_decl_column(0x19)
    2338                    
    2339                    
    2340                    $C$DW$T$26      .dwtag  DW_TAG_structure_type
    2341                            .dwattr $C$DW$T$26, DW_AT_name("__va_list_t")
    2342                            .dwattr $C$DW$T$26, DW_AT_byte_size(0x04)
    2343                    $C$DW$48        .dwtag  DW_TAG_member
    2344                            .dwattr $C$DW$48, DW_AT_type(*$C$DW$T$3)
    2345                            .dwattr $C$DW$48, DW_AT_name("__ap")
    2346                            .dwattr $C$DW$48, DW_AT_TI_symbol_name("__ap")
    2347                            .dwattr $C$DW$48, DW_AT_data_member_location[DW_OP_plus_uconst 0x0]
    2348                            .dwattr $C$DW$48, DW_AT_accessibility(DW_ACCESS_public)
    2349                            .dwattr $C$DW$48, DW_AT_decl_file("C:/ti/ccs1230/ccs/tools/compiler/ti-cgt-arm_20.2.7.LTS/incl
    2350                            .dwattr $C$DW$48, DW_AT_decl_line(0xa4)
    2351                            .dwattr $C$DW$48, DW_AT_decl_column(0x0c)
    2352                    
    2353                            .dwattr $C$DW$T$26, DW_AT_decl_file("C:/ti/ccs1230/ccs/tools/compiler/ti-cgt-arm_20.2.7.LTS/in
    2354                            .dwattr $C$DW$T$26, DW_AT_decl_line(0xa3)
    2355                            .dwattr $C$DW$T$26, DW_AT_decl_column(0x10)
    2356                            .dwendtag $C$DW$T$26
    2357                    
    2358                    $C$DW$T$152     .dwtag  DW_TAG_typedef
    2359                            .dwattr $C$DW$T$152, DW_AT_name("__va_list")
    2360                            .dwattr $C$DW$T$152, DW_AT_type(*$C$DW$T$26)
TI ARM Assembler PC v20.2.7 Fri Jan 17 11:31:07 2025

Copyright (c) 1996-2018 Texas Instruments Incorporated
Scoreboard.asm                                                       PAGE   44

    2361                            .dwattr $C$DW$T$152, DW_AT_language(DW_LANG_C)
    2362                            .dwattr $C$DW$T$152, DW_AT_decl_file("C:/ti/ccs1230/ccs/tools/compiler/ti-cgt-arm_20.2.7.LTS/i
    2363                            .dwattr $C$DW$T$152, DW_AT_decl_line(0xa5)
    2364                            .dwattr $C$DW$T$152, DW_AT_decl_column(0x03)
    2365                    
    2366                            .dwattr $C$DW$CU, DW_AT_language(DW_LANG_C)
    2367                    
    2368                    ;***************************************************************
    2369                    ;* DWARF CIE ENTRIES                                           *
    2370                    ;***************************************************************
    2371                    
    2372                    $C$DW$CIE       .dwcie 14
    2373                            .dwcfi  cfa_register, 13
    2374                            .dwcfi  cfa_offset, 0
    2375                            .dwcfi  same_value, 4
    2376                            .dwcfi  same_value, 5
    2377                            .dwcfi  same_value, 6
    2378                            .dwcfi  same_value, 7
    2379                            .dwcfi  same_value, 8
    2380                            .dwcfi  same_value, 9
    2381                            .dwcfi  same_value, 10
    2382                            .dwcfi  same_value, 11
    2383                            .dwcfi  same_value, 80
    2384                            .dwcfi  same_value, 81
    2385                            .dwcfi  same_value, 82
    2386                            .dwcfi  same_value, 83
    2387                            .dwcfi  same_value, 84
    2388                            .dwcfi  same_value, 85
    2389                            .dwcfi  same_value, 86
    2390                            .dwcfi  same_value, 87
    2391                            .dwcfi  same_value, 88
    2392                            .dwcfi  same_value, 89
    2393                            .dwcfi  same_value, 90
    2394                            .dwcfi  same_value, 91
    2395                            .dwcfi  same_value, 92
    2396                            .dwcfi  same_value, 93
    2397                            .dwcfi  same_value, 94
    2398                            .dwcfi  same_value, 95
    2399                            .dwendentry
    2400                    
    2401                    ;***************************************************************
    2402                    ;* DWARF REGISTER MAP                                          *
    2403                    ;***************************************************************
    2404                    
    2405                    $C$DW$49        .dwtag  DW_TAG_TI_assign_register
    2406                            .dwattr $C$DW$49, DW_AT_name("A1")
    2407                            .dwattr $C$DW$49, DW_AT_location[DW_OP_reg0]
    2408                    
    2409                    $C$DW$50        .dwtag  DW_TAG_TI_assign_register
    2410                            .dwattr $C$DW$50, DW_AT_name("A2")
    2411                            .dwattr $C$DW$50, DW_AT_location[DW_OP_reg1]
    2412                    
    2413                    $C$DW$51        .dwtag  DW_TAG_TI_assign_register
    2414                            .dwattr $C$DW$51, DW_AT_name("A3")
    2415                            .dwattr $C$DW$51, DW_AT_location[DW_OP_reg2]
TI ARM Assembler PC v20.2.7 Fri Jan 17 11:31:07 2025

Copyright (c) 1996-2018 Texas Instruments Incorporated
Scoreboard.asm                                                       PAGE   45

    2416                    
    2417                    $C$DW$52        .dwtag  DW_TAG_TI_assign_register
    2418                            .dwattr $C$DW$52, DW_AT_name("A4")
    2419                            .dwattr $C$DW$52, DW_AT_location[DW_OP_reg3]
    2420                    
    2421                    $C$DW$53        .dwtag  DW_TAG_TI_assign_register
    2422                            .dwattr $C$DW$53, DW_AT_name("V1")
    2423                            .dwattr $C$DW$53, DW_AT_location[DW_OP_reg4]
    2424                    
    2425                    $C$DW$54        .dwtag  DW_TAG_TI_assign_register
    2426                            .dwattr $C$DW$54, DW_AT_name("V2")
    2427                            .dwattr $C$DW$54, DW_AT_location[DW_OP_reg5]
    2428                    
    2429                    $C$DW$55        .dwtag  DW_TAG_TI_assign_register
    2430                            .dwattr $C$DW$55, DW_AT_name("V3")
    2431                            .dwattr $C$DW$55, DW_AT_location[DW_OP_reg6]
    2432                    
    2433                    $C$DW$56        .dwtag  DW_TAG_TI_assign_register
    2434                            .dwattr $C$DW$56, DW_AT_name("V4")
    2435                            .dwattr $C$DW$56, DW_AT_location[DW_OP_reg7]
    2436                    
    2437                    $C$DW$57        .dwtag  DW_TAG_TI_assign_register
    2438                            .dwattr $C$DW$57, DW_AT_name("V5")
    2439                            .dwattr $C$DW$57, DW_AT_location[DW_OP_reg8]
    2440                    
    2441                    $C$DW$58        .dwtag  DW_TAG_TI_assign_register
    2442                            .dwattr $C$DW$58, DW_AT_name("V6")
    2443                            .dwattr $C$DW$58, DW_AT_location[DW_OP_reg9]
    2444                    
    2445                    $C$DW$59        .dwtag  DW_TAG_TI_assign_register
    2446                            .dwattr $C$DW$59, DW_AT_name("V7")
    2447                            .dwattr $C$DW$59, DW_AT_location[DW_OP_reg10]
    2448                    
    2449                    $C$DW$60        .dwtag  DW_TAG_TI_assign_register
    2450                            .dwattr $C$DW$60, DW_AT_name("V8")
    2451                            .dwattr $C$DW$60, DW_AT_location[DW_OP_reg11]
    2452                    
    2453                    $C$DW$61        .dwtag  DW_TAG_TI_assign_register
    2454                            .dwattr $C$DW$61, DW_AT_name("V9")
    2455                            .dwattr $C$DW$61, DW_AT_location[DW_OP_reg12]
    2456                    
    2457                    $C$DW$62        .dwtag  DW_TAG_TI_assign_register
    2458                            .dwattr $C$DW$62, DW_AT_name("SP")
    2459                            .dwattr $C$DW$62, DW_AT_location[DW_OP_reg13]
    2460                    
    2461                    $C$DW$63        .dwtag  DW_TAG_TI_assign_register
    2462                            .dwattr $C$DW$63, DW_AT_name("LR")
    2463                            .dwattr $C$DW$63, DW_AT_location[DW_OP_reg14]
    2464                    
    2465                    $C$DW$64        .dwtag  DW_TAG_TI_assign_register
    2466                            .dwattr $C$DW$64, DW_AT_name("PC")
    2467                            .dwattr $C$DW$64, DW_AT_location[DW_OP_reg15]
    2468                    
    2469                    $C$DW$65        .dwtag  DW_TAG_TI_assign_register
    2470                            .dwattr $C$DW$65, DW_AT_name("SR")
TI ARM Assembler PC v20.2.7 Fri Jan 17 11:31:07 2025

Copyright (c) 1996-2018 Texas Instruments Incorporated
Scoreboard.asm                                                       PAGE   46

    2471                            .dwattr $C$DW$65, DW_AT_location[DW_OP_reg17]
    2472                    
    2473                    $C$DW$66        .dwtag  DW_TAG_TI_assign_register
    2474                            .dwattr $C$DW$66, DW_AT_name("AP")
    2475                            .dwattr $C$DW$66, DW_AT_location[DW_OP_reg7]
    2476                    
    2477                    $C$DW$67        .dwtag  DW_TAG_TI_assign_register
    2478                            .dwattr $C$DW$67, DW_AT_name("D0")
    2479                            .dwattr $C$DW$67, DW_AT_location[DW_OP_regx 0x40]
    2480                    
    2481                    $C$DW$68        .dwtag  DW_TAG_TI_assign_register
    2482                            .dwattr $C$DW$68, DW_AT_name("D0_hi")
    2483                            .dwattr $C$DW$68, DW_AT_location[DW_OP_regx 0x41]
    2484                    
    2485                    $C$DW$69        .dwtag  DW_TAG_TI_assign_register
    2486                            .dwattr $C$DW$69, DW_AT_name("D1")
    2487                            .dwattr $C$DW$69, DW_AT_location[DW_OP_regx 0x42]
    2488                    
    2489                    $C$DW$70        .dwtag  DW_TAG_TI_assign_register
    2490                            .dwattr $C$DW$70, DW_AT_name("D1_hi")
    2491                            .dwattr $C$DW$70, DW_AT_location[DW_OP_regx 0x43]
    2492                    
    2493                    $C$DW$71        .dwtag  DW_TAG_TI_assign_register
    2494                            .dwattr $C$DW$71, DW_AT_name("D2")
    2495                            .dwattr $C$DW$71, DW_AT_location[DW_OP_regx 0x44]
    2496                    
    2497                    $C$DW$72        .dwtag  DW_TAG_TI_assign_register
    2498                            .dwattr $C$DW$72, DW_AT_name("D2_hi")
    2499                            .dwattr $C$DW$72, DW_AT_location[DW_OP_regx 0x45]
    2500                    
    2501                    $C$DW$73        .dwtag  DW_TAG_TI_assign_register
    2502                            .dwattr $C$DW$73, DW_AT_name("D3")
    2503                            .dwattr $C$DW$73, DW_AT_location[DW_OP_regx 0x46]
    2504                    
    2505                    $C$DW$74        .dwtag  DW_TAG_TI_assign_register
    2506                            .dwattr $C$DW$74, DW_AT_name("D3_hi")
    2507                            .dwattr $C$DW$74, DW_AT_location[DW_OP_regx 0x47]
    2508                    
    2509                    $C$DW$75        .dwtag  DW_TAG_TI_assign_register
    2510                            .dwattr $C$DW$75, DW_AT_name("D4")
    2511                            .dwattr $C$DW$75, DW_AT_location[DW_OP_regx 0x48]
    2512                    
    2513                    $C$DW$76        .dwtag  DW_TAG_TI_assign_register
    2514                            .dwattr $C$DW$76, DW_AT_name("D4_hi")
    2515                            .dwattr $C$DW$76, DW_AT_location[DW_OP_regx 0x49]
    2516                    
    2517                    $C$DW$77        .dwtag  DW_TAG_TI_assign_register
    2518                            .dwattr $C$DW$77, DW_AT_name("D5")
    2519                            .dwattr $C$DW$77, DW_AT_location[DW_OP_regx 0x4a]
    2520                    
    2521                    $C$DW$78        .dwtag  DW_TAG_TI_assign_register
    2522                            .dwattr $C$DW$78, DW_AT_name("D5_hi")
    2523                            .dwattr $C$DW$78, DW_AT_location[DW_OP_regx 0x4b]
    2524                    
    2525                    $C$DW$79        .dwtag  DW_TAG_TI_assign_register
TI ARM Assembler PC v20.2.7 Fri Jan 17 11:31:07 2025

Copyright (c) 1996-2018 Texas Instruments Incorporated
Scoreboard.asm                                                       PAGE   47

    2526                            .dwattr $C$DW$79, DW_AT_name("D6")
    2527                            .dwattr $C$DW$79, DW_AT_location[DW_OP_regx 0x4c]
    2528                    
    2529                    $C$DW$80        .dwtag  DW_TAG_TI_assign_register
    2530                            .dwattr $C$DW$80, DW_AT_name("D6_hi")
    2531                            .dwattr $C$DW$80, DW_AT_location[DW_OP_regx 0x4d]
    2532                    
    2533                    $C$DW$81        .dwtag  DW_TAG_TI_assign_register
    2534                            .dwattr $C$DW$81, DW_AT_name("D7")
    2535                            .dwattr $C$DW$81, DW_AT_location[DW_OP_regx 0x4e]
    2536                    
    2537                    $C$DW$82        .dwtag  DW_TAG_TI_assign_register
    2538                            .dwattr $C$DW$82, DW_AT_name("D7_hi")
    2539                            .dwattr $C$DW$82, DW_AT_location[DW_OP_regx 0x4f]
    2540                    
    2541                    $C$DW$83        .dwtag  DW_TAG_TI_assign_register
    2542                            .dwattr $C$DW$83, DW_AT_name("D8")
    2543                            .dwattr $C$DW$83, DW_AT_location[DW_OP_regx 0x50]
    2544                    
    2545                    $C$DW$84        .dwtag  DW_TAG_TI_assign_register
    2546                            .dwattr $C$DW$84, DW_AT_name("D8_hi")
    2547                            .dwattr $C$DW$84, DW_AT_location[DW_OP_regx 0x51]
    2548                    
    2549                    $C$DW$85        .dwtag  DW_TAG_TI_assign_register
    2550                            .dwattr $C$DW$85, DW_AT_name("D9")
    2551                            .dwattr $C$DW$85, DW_AT_location[DW_OP_regx 0x52]
    2552                    
    2553                    $C$DW$86        .dwtag  DW_TAG_TI_assign_register
    2554                            .dwattr $C$DW$86, DW_AT_name("D9_hi")
    2555                            .dwattr $C$DW$86, DW_AT_location[DW_OP_regx 0x53]
    2556                    
    2557                    $C$DW$87        .dwtag  DW_TAG_TI_assign_register
    2558                            .dwattr $C$DW$87, DW_AT_name("D10")
    2559                            .dwattr $C$DW$87, DW_AT_location[DW_OP_regx 0x54]
    2560                    
    2561                    $C$DW$88        .dwtag  DW_TAG_TI_assign_register
    2562                            .dwattr $C$DW$88, DW_AT_name("D10_hi")
    2563                            .dwattr $C$DW$88, DW_AT_location[DW_OP_regx 0x55]
    2564                    
    2565                    $C$DW$89        .dwtag  DW_TAG_TI_assign_register
    2566                            .dwattr $C$DW$89, DW_AT_name("D11")
    2567                            .dwattr $C$DW$89, DW_AT_location[DW_OP_regx 0x56]
    2568                    
    2569                    $C$DW$90        .dwtag  DW_TAG_TI_assign_register
    2570                            .dwattr $C$DW$90, DW_AT_name("D11_hi")
    2571                            .dwattr $C$DW$90, DW_AT_location[DW_OP_regx 0x57]
    2572                    
    2573                    $C$DW$91        .dwtag  DW_TAG_TI_assign_register
    2574                            .dwattr $C$DW$91, DW_AT_name("D12")
    2575                            .dwattr $C$DW$91, DW_AT_location[DW_OP_regx 0x58]
    2576                    
    2577                    $C$DW$92        .dwtag  DW_TAG_TI_assign_register
    2578                            .dwattr $C$DW$92, DW_AT_name("D12_hi")
    2579                            .dwattr $C$DW$92, DW_AT_location[DW_OP_regx 0x59]
    2580                    
TI ARM Assembler PC v20.2.7 Fri Jan 17 11:31:07 2025

Copyright (c) 1996-2018 Texas Instruments Incorporated
Scoreboard.asm                                                       PAGE   48

    2581                    $C$DW$93        .dwtag  DW_TAG_TI_assign_register
    2582                            .dwattr $C$DW$93, DW_AT_name("D13")
    2583                            .dwattr $C$DW$93, DW_AT_location[DW_OP_regx 0x5a]
    2584                    
    2585                    $C$DW$94        .dwtag  DW_TAG_TI_assign_register
    2586                            .dwattr $C$DW$94, DW_AT_name("D13_hi")
    2587                            .dwattr $C$DW$94, DW_AT_location[DW_OP_regx 0x5b]
    2588                    
    2589                    $C$DW$95        .dwtag  DW_TAG_TI_assign_register
    2590                            .dwattr $C$DW$95, DW_AT_name("D14")
    2591                            .dwattr $C$DW$95, DW_AT_location[DW_OP_regx 0x5c]
    2592                    
    2593                    $C$DW$96        .dwtag  DW_TAG_TI_assign_register
    2594                            .dwattr $C$DW$96, DW_AT_name("D14_hi")
    2595                            .dwattr $C$DW$96, DW_AT_location[DW_OP_regx 0x5d]
    2596                    
    2597                    $C$DW$97        .dwtag  DW_TAG_TI_assign_register
    2598                            .dwattr $C$DW$97, DW_AT_name("D15")
    2599                            .dwattr $C$DW$97, DW_AT_location[DW_OP_regx 0x5e]
    2600                    
    2601                    $C$DW$98        .dwtag  DW_TAG_TI_assign_register
    2602                            .dwattr $C$DW$98, DW_AT_name("D15_hi")
    2603                            .dwattr $C$DW$98, DW_AT_location[DW_OP_regx 0x5f]
    2604                    
    2605                    $C$DW$99        .dwtag  DW_TAG_TI_assign_register
    2606                            .dwattr $C$DW$99, DW_AT_name("FPEXC")
    2607                            .dwattr $C$DW$99, DW_AT_location[DW_OP_reg18]
    2608                    
    2609                    $C$DW$100       .dwtag  DW_TAG_TI_assign_register
    2610                            .dwattr $C$DW$100, DW_AT_name("FPSCR")
    2611                            .dwattr $C$DW$100, DW_AT_location[DW_OP_reg19]
    2612                    
    2613                            .dwendtag $C$DW$CU
    2614                    

--------------------------
Thumb2 Statistics
--------------------------
Number of Thumb2 ins converted to Thumb = 0 (0%)
Number of Thumb ins in input = 320 (85%)
Number of Thumb2 ins encoded as Thumb2 = 55 (100%)
Number of Thumb2 ins converted to 2 OPND Thumb = 13


No Assembly Errors, No Assembly Warnings
