TI ARM Assembler PC v20.2.7 Fri Feb 14 12:43:41 2025

Copyright (c) 1996-2018 Texas Instruments Incorporated
UART.asm                                                             PAGE    1

       1                    ;******************************************************************************
       2                    ;* TI ARM G3 C/C++ Codegen                                              PC v20.2.7.LTS *
       3                    ;* Date/Time created: Fri Feb 14 12:43:41 2025                                *
       4                    ;******************************************************************************
       5                            .compiler_opts --abi=eabi --arm_vmrs_si_workaround=off --code_state=16 --diag_wrap=off --embed
       6 00000000                   .thumb
       7                    
       8                    $C$DW$CU        .dwtag  DW_TAG_compile_unit
       9                            .dwattr $C$DW$CU, DW_AT_name("../UART.c")
      10                            .dwattr $C$DW$CU, DW_AT_producer("TI TI ARM G3 C/C++ Codegen PC v20.2.7.LTS Copyright (c) 1996
      11                            .dwattr $C$DW$CU, DW_AT_TI_version(0x01)
      12                            .dwattr $C$DW$CU, DW_AT_comp_dir("C:\Users\dimit\workspace_v12\Controle_Digital_Trabalho_Final
      13                            .global comando
      14                            .common comando,1,1
      15                    $C$DW$1 .dwtag  DW_TAG_variable
      16                            .dwattr $C$DW$1, DW_AT_name("comando")
      17                            .dwattr $C$DW$1, DW_AT_TI_symbol_name("comando")
      18                            .dwattr $C$DW$1, DW_AT_location[DW_OP_addr comando]
      19                            .dwattr $C$DW$1, DW_AT_type(*$C$DW$T$6)
      20                            .dwattr $C$DW$1, DW_AT_external
      21                            .dwattr $C$DW$1, DW_AT_decl_file("..\UART.h")
      22                            .dwattr $C$DW$1, DW_AT_decl_line(0x6f)
      23                            .dwattr $C$DW$1, DW_AT_decl_column(0x06)
      24                    
      25                            .global confirmacao
      26                            .common confirmacao,1,1
      27                    $C$DW$2 .dwtag  DW_TAG_variable
      28                            .dwattr $C$DW$2, DW_AT_name("confirmacao")
      29                            .dwattr $C$DW$2, DW_AT_TI_symbol_name("confirmacao")
      30                            .dwattr $C$DW$2, DW_AT_location[DW_OP_addr confirmacao]
      31                            .dwattr $C$DW$2, DW_AT_type(*$C$DW$T$6)
      32                            .dwattr $C$DW$2, DW_AT_external
      33                            .dwattr $C$DW$2, DW_AT_decl_file("..\UART.h")
      34                            .dwattr $C$DW$2, DW_AT_decl_line(0x70)
      35                            .dwattr $C$DW$2, DW_AT_decl_column(0x06)
      36                    
      37                            .global confirmacao2
      38                            .common confirmacao2,1,1
      39                    $C$DW$3 .dwtag  DW_TAG_variable
      40                            .dwattr $C$DW$3, DW_AT_name("confirmacao2")
      41                            .dwattr $C$DW$3, DW_AT_TI_symbol_name("confirmacao2")
      42                            .dwattr $C$DW$3, DW_AT_location[DW_OP_addr confirmacao2]
      43                            .dwattr $C$DW$3, DW_AT_type(*$C$DW$T$6)
      44                            .dwattr $C$DW$3, DW_AT_external
      45                            .dwattr $C$DW$3, DW_AT_decl_file("..\UART.h")
      46                            .dwattr $C$DW$3, DW_AT_decl_line(0x71)
      47                            .dwattr $C$DW$3, DW_AT_decl_column(0x06)
      48                    
      49                    ;       C:\ti\ccs1230\ccs\tools\compiler\ti-cgt-arm_20.2.7.LTS\bin\armacpia.exe -@C:\\Users\\dimit\\Ap
      50 00000000                   .sect   ".text"
      51                            .clink
      52                            .thumbfunc UART_InChar
      53 00000000                   .thumb
      54                            .global UART_InChar
      55                    
TI ARM Assembler PC v20.2.7 Fri Feb 14 12:43:41 2025

Copyright (c) 1996-2018 Texas Instruments Incorporated
UART.asm                                                             PAGE    2

      56                    $C$DW$4 .dwtag  DW_TAG_subprogram
      57                            .dwattr $C$DW$4, DW_AT_name("UART_InChar")
      58                            .dwattr $C$DW$4, DW_AT_low_pc(UART_InChar)
      59                            .dwattr $C$DW$4, DW_AT_high_pc(0x00)
      60                            .dwattr $C$DW$4, DW_AT_TI_symbol_name("UART_InChar")
      61                            .dwattr $C$DW$4, DW_AT_external
      62                            .dwattr $C$DW$4, DW_AT_type(*$C$DW$T$6)
      63                            .dwattr $C$DW$4, DW_AT_TI_begin_file("../UART.c")
      64                            .dwattr $C$DW$4, DW_AT_TI_begin_line(0x42)
      65                            .dwattr $C$DW$4, DW_AT_TI_begin_column(0x06)
      66                            .dwattr $C$DW$4, DW_AT_decl_file("../UART.c")
      67                            .dwattr $C$DW$4, DW_AT_decl_line(0x42)
      68                            .dwattr $C$DW$4, DW_AT_decl_column(0x06)
      69                            .dwattr $C$DW$4, DW_AT_TI_max_frame_size(0x00)
      70                            .dwpsn  file "../UART.c",line 66,column 23,is_stmt,address UART_InChar,isa 1
      71                    
      72                            .dwfde $C$DW$CIE, UART_InChar
      73                    ;----------------------------------------------------------------------
      74                    ;  66 | char UART_InChar(void){                                                
      75                    ;----------------------------------------------------------------------
      76                    
      77                    ;*****************************************************************************
      78                    ;* FUNCTION NAME: UART_InChar                                                *
      79                    ;*                                                                           *
      80                    ;*   Regs Modified     : A1,SR                                               *
      81                    ;*   Regs Used         : A1,LR,SR                                            *
      82                    ;*   Local Frame Size  : 0 Args + 0 Auto + 0 Save = 0 byte                   *
      83                    ;*****************************************************************************
      84 00000000           UART_InChar:
      85                    ;* --------------------------------------------------------------------------*
      86                            .dwcfi  cfa_offset, 0
      87                            .dwpsn  file "../UART.c",line 67,column 3,is_stmt,isa 1
      88                    ;----------------------------------------------------------------------
      89                    ;  67 | while((UART0_FR_R&UART_FR_RXFE) != 0);//                               
      90                    ;----------------------------------------------------------------------
      91                    ;* --------------------------------------------------------------------------*
      92                    ;*   BEGIN LOOP ||$C$L1||
      93                    ;*
      94                    ;*   Loop source line                : 67
      95                    ;*   Loop closing brace source line  : 67
      96                    ;*   Known Minimum Trip Count        : 1
      97                    ;*   Known Maximum Trip Count        : 4294967295
      98                    ;*   Known Max Trip Count Factor     : 1
      99                    ;* --------------------------------------------------------------------------*
     100 00000000           ||$C$L1||:    
     101                            .dwpsn  file "../UART.c",line 67,column 9,is_stmt,isa 1
     102                    ;----------------------------------------------------------------------
     103                    ;  68 | // comando = ((char)(UART0_DR_R&0xFF));                                
     104                    ;----------------------------------------------------------------------
     105 00000000 489B              LDR       A1, $C$CON1           ; [DPU_V7M3_PIPE] |67|  ; [ORIG 16-BIT INS]
     106 00000002 6800              LDR       A1, [A1, #0]          ; [DPU_V7M3_PIPE] |67|  ; [ORIG 16-BIT INS]
     107 00000004 0940              LSRS      A1, A1, #5            ; [DPU_V7M3_PIPE] |67|  ; [ORIG 16-BIT INS]
     108 00000006 D2FB              BCS       ||$C$L1||             ; [DPU_V7M3_PIPE] |67|  ; [ORIG 16-BIT INS]
     109                            ; BRANCHCC OCCURS {||$C$L1||}    ; [] |67| 
     110                    ;* --------------------------------------------------------------------------*
TI ARM Assembler PC v20.2.7 Fri Feb 14 12:43:41 2025

Copyright (c) 1996-2018 Texas Instruments Incorporated
UART.asm                                                             PAGE    3

     111                            .dwpsn  file "../UART.c",line 69,column 3,is_stmt,isa 1
     112                    ;----------------------------------------------------------------------
     113                    ;  69 | return((char)(UART0_DR_R&0xFF));                                       
     114                    ;----------------------------------------------------------------------
     115 00000008 489A              LDR       A1, $C$CON2           ; [DPU_V7M3_PIPE] |69|  ; [ORIG 16-BIT INS]
     116 0000000a 6800              LDR       A1, [A1, #0]          ; [DPU_V7M3_PIPE] |69|  ; [ORIG 16-BIT INS]
     117 0000000c 00FFF000          AND       A1, A1, #255          ; [DPU_V7M3_PIPE] |69|  ; [KEEP 32-BIT INS]
     118 00000010 B2C0              UXTB      A1, A1                ; [DPU_V7M3_PIPE] |69|  ; [ORIG 16-BIT INS]
     119                            .dwpsn  file "../UART.c",line 70,column 1,is_stmt,isa 1
     120                    $C$DW$5 .dwtag  DW_TAG_TI_branch
     121                            .dwattr $C$DW$5, DW_AT_low_pc(0x00)
     122                            .dwattr $C$DW$5, DW_AT_TI_return
     123                    
     124 00000012 4770              BX        LR                    ; [DPU_V7M3_PIPE]  ; [ORIG 16-BIT INS]
     125                            ; BRANCH OCCURS                  ; [] 
     126                            .dwattr $C$DW$4, DW_AT_TI_end_file("../UART.c")
     127                            .dwattr $C$DW$4, DW_AT_TI_end_line(0x46)
     128                            .dwattr $C$DW$4, DW_AT_TI_end_column(0x01)
     129                            .dwendentry
     130                            .dwendtag $C$DW$4
     131                    
     132 00000014                   .sect   ".text"
     133                            .clink
     134                            .thumbfunc UART_OutChar
     135 00000014                   .thumb
     136                            .global UART_OutChar
     137                    
     138                    $C$DW$6 .dwtag  DW_TAG_subprogram
     139                            .dwattr $C$DW$6, DW_AT_name("UART_OutChar")
     140                            .dwattr $C$DW$6, DW_AT_low_pc(UART_OutChar)
     141                            .dwattr $C$DW$6, DW_AT_high_pc(0x00)
     142                            .dwattr $C$DW$6, DW_AT_TI_symbol_name("UART_OutChar")
     143                            .dwattr $C$DW$6, DW_AT_external
     144                            .dwattr $C$DW$6, DW_AT_TI_begin_file("../UART.c")
     145                            .dwattr $C$DW$6, DW_AT_TI_begin_line(0x4b)
     146                            .dwattr $C$DW$6, DW_AT_TI_begin_column(0x06)
     147                            .dwattr $C$DW$6, DW_AT_decl_file("../UART.c")
     148                            .dwattr $C$DW$6, DW_AT_decl_line(0x4b)
     149                            .dwattr $C$DW$6, DW_AT_decl_column(0x06)
     150                            .dwattr $C$DW$6, DW_AT_TI_max_frame_size(0x08)
     151                            .dwpsn  file "../UART.c",line 75,column 29,is_stmt,address UART_OutChar,isa 1
     152                    
     153                            .dwfde $C$DW$CIE, UART_OutChar
     154                    $C$DW$7 .dwtag  DW_TAG_formal_parameter
     155                            .dwattr $C$DW$7, DW_AT_name("data")
     156                            .dwattr $C$DW$7, DW_AT_TI_symbol_name("data")
     157                            .dwattr $C$DW$7, DW_AT_type(*$C$DW$T$10)
     158                            .dwattr $C$DW$7, DW_AT_location[DW_OP_reg0]
     159                    
     160                    
     161                    ;*****************************************************************************
     162                    ;* FUNCTION NAME: UART_OutChar                                               *
     163                    ;*                                                                           *
     164                    ;*   Regs Modified     : A1,A2,SP,SR                                         *
     165                    ;*   Regs Used         : A1,A2,SP,LR,SR                                      *
TI ARM Assembler PC v20.2.7 Fri Feb 14 12:43:41 2025

Copyright (c) 1996-2018 Texas Instruments Incorporated
UART.asm                                                             PAGE    4

     166                    ;*   Local Frame Size  : 0 Args + 4 Auto + 0 Save = 4 byte                   *
     167                    ;*****************************************************************************
     168 00000014           UART_OutChar:
     169                    ;* --------------------------------------------------------------------------*
     170                            .dwcfi  cfa_offset, 0
     171 00000014 0D08F1AD          SUB       SP, SP, #8            ; [DPU_V7M3_PIPE]  ; [KEEP 32-BIT INS]
     172                            .dwcfi  cfa_offset, 8
     173                    $C$DW$8 .dwtag  DW_TAG_variable
     174                            .dwattr $C$DW$8, DW_AT_name("data")
     175                            .dwattr $C$DW$8, DW_AT_TI_symbol_name("data")
     176                            .dwattr $C$DW$8, DW_AT_type(*$C$DW$T$6)
     177                            .dwattr $C$DW$8, DW_AT_location[DW_OP_breg13 0]
     178                    
     179                    ;----------------------------------------------------------------------
     180                    ;  75 | void UART_OutChar(char data){  while((UART0_FR_R&UART_FR_TXFF) != 0);//
     181                    ;     | MUDADO DE UART0 PARA UART5                                             
     182                    ;----------------------------------------------------------------------
     183 00000018 0000F88D          STRB      A1, [SP, #0]          ; [DPU_V7M3_PIPE] |75|  ; [KEEP 32-BIT INS]
     184                            .dwpsn  file "../UART.c",line 75,column 32,is_stmt,isa 1
     185                    ;* --------------------------------------------------------------------------*
     186                    ;*   BEGIN LOOP ||$C$L2||
     187                    ;*
     188                    ;*   Loop source line                : 75
     189                    ;*   Loop closing brace source line  : 75
     190                    ;*   Known Minimum Trip Count        : 1
     191                    ;*   Known Maximum Trip Count        : 4294967295
     192                    ;*   Known Max Trip Count Factor     : 1
     193                    ;* --------------------------------------------------------------------------*
     194 0000001c           ||$C$L2||:    
     195                            .dwpsn  file "../UART.c",line 75,column 38,is_stmt,isa 1
     196 0000001c 4894              LDR       A1, $C$CON1           ; [DPU_V7M3_PIPE] |75|  ; [ORIG 16-BIT INS]
     197 0000001e 6800              LDR       A1, [A1, #0]          ; [DPU_V7M3_PIPE] |75|  ; [ORIG 16-BIT INS]
     198 00000020 0980              LSRS      A1, A1, #6            ; [DPU_V7M3_PIPE] |75|  ; [ORIG 16-BIT INS]
     199 00000022 D2FB              BCS       ||$C$L2||             ; [DPU_V7M3_PIPE] |75|  ; [ORIG 16-BIT INS]
     200                            ; BRANCHCC OCCURS {||$C$L2||}    ; [] |75| 
     201                    ;* --------------------------------------------------------------------------*
     202                            .dwpsn  file "../UART.c",line 76,column 3,is_stmt,isa 1
     203                    ;----------------------------------------------------------------------
     204                    ;  76 | UART0_DR_R = data;                                                     
     205                    ;----------------------------------------------------------------------
     206 00000024 0000F89D          LDRB      A1, [SP, #0]          ; [DPU_V7M3_PIPE] |76|  ; [KEEP 32-BIT INS]
     207 00000028 4992              LDR       A2, $C$CON2           ; [DPU_V7M3_PIPE] |76|  ; [ORIG 16-BIT INS]
     208 0000002a 6008              STR       A1, [A2, #0]          ; [DPU_V7M3_PIPE] |76|  ; [ORIG 16-BIT INS]
     209                            .dwpsn  file "../UART.c",line 77,column 1,is_stmt,isa 1
     210 0000002c B002              ADD       SP, SP, #8            ; [DPU_V7M3_PIPE]  ; [ORIG 16-BIT INS]
     211                            .dwcfi  cfa_offset, 0
     212                    $C$DW$9 .dwtag  DW_TAG_TI_branch
     213                            .dwattr $C$DW$9, DW_AT_low_pc(0x00)
     214                            .dwattr $C$DW$9, DW_AT_TI_return
     215                    
     216 0000002e 4770              BX        LR                    ; [DPU_V7M3_PIPE]  ; [ORIG 16-BIT INS]
     217                            ; BRANCH OCCURS                  ; [] 
     218                            .dwattr $C$DW$6, DW_AT_TI_end_file("../UART.c")
     219                            .dwattr $C$DW$6, DW_AT_TI_end_line(0x4d)
     220                            .dwattr $C$DW$6, DW_AT_TI_end_column(0x01)
TI ARM Assembler PC v20.2.7 Fri Feb 14 12:43:41 2025

Copyright (c) 1996-2018 Texas Instruments Incorporated
UART.asm                                                             PAGE    5

     221                            .dwendentry
     222                            .dwendtag $C$DW$6
     223                    
     224 00000030                   .sect   ".text"
     225                            .clink
     226                            .thumbfunc UART_OutString
     227 00000030                   .thumb
     228                            .global UART_OutString
     229                    
     230                    $C$DW$10        .dwtag  DW_TAG_subprogram
     231                            .dwattr $C$DW$10, DW_AT_name("UART_OutString")
     232                            .dwattr $C$DW$10, DW_AT_low_pc(UART_OutString)
     233                            .dwattr $C$DW$10, DW_AT_high_pc(0x00)
     234                            .dwattr $C$DW$10, DW_AT_TI_symbol_name("UART_OutString")
     235                            .dwattr $C$DW$10, DW_AT_external
     236                            .dwattr $C$DW$10, DW_AT_TI_begin_file("../UART.c")
     237                            .dwattr $C$DW$10, DW_AT_TI_begin_line(0x55)
     238                            .dwattr $C$DW$10, DW_AT_TI_begin_column(0x06)
     239                            .dwattr $C$DW$10, DW_AT_decl_file("../UART.c")
     240                            .dwattr $C$DW$10, DW_AT_decl_line(0x55)
     241                            .dwattr $C$DW$10, DW_AT_decl_column(0x06)
     242                            .dwattr $C$DW$10, DW_AT_TI_max_frame_size(0x08)
     243                            .dwpsn  file "../UART.c",line 85,column 30,is_stmt,address UART_OutString,isa 1
     244                    
     245                            .dwfde $C$DW$CIE, UART_OutString
     246                    $C$DW$11        .dwtag  DW_TAG_formal_parameter
     247                            .dwattr $C$DW$11, DW_AT_name("pt")
     248                            .dwattr $C$DW$11, DW_AT_TI_symbol_name("pt")
     249                            .dwattr $C$DW$11, DW_AT_type(*$C$DW$T$27)
     250                            .dwattr $C$DW$11, DW_AT_location[DW_OP_reg0]
     251                    
     252                    
     253                    ;*****************************************************************************
     254                    ;* FUNCTION NAME: UART_OutString                                             *
     255                    ;*                                                                           *
     256                    ;*   Regs Modified     : A1,A2,A4,SP,LR,SR,FPEXC,FPSCR                       *
     257                    ;*   Regs Used         : A1,A2,A4,SP,LR,SR,FPEXC,FPSCR                       *
     258                    ;*   Local Frame Size  : 0 Args + 4 Auto + 4 Save = 8 byte                   *
     259                    ;*****************************************************************************
     260 00000030           UART_OutString:
     261                    ;* --------------------------------------------------------------------------*
     262                            .dwcfi  cfa_offset, 0
     263 00000030 B508              PUSH      {A4, LR}              ; [DPU_V7M3_PIPE]  ; [ORIG 16-BIT INS]
     264                            .dwcfi  cfa_offset, 8
     265                            .dwcfi  save_reg_to_mem, 14, -4
     266                            .dwcfi  save_reg_to_mem, 3, -8
     267                    $C$DW$12        .dwtag  DW_TAG_variable
     268                            .dwattr $C$DW$12, DW_AT_name("pt")
     269                            .dwattr $C$DW$12, DW_AT_TI_symbol_name("pt")
     270                            .dwattr $C$DW$12, DW_AT_type(*$C$DW$T$27)
     271                            .dwattr $C$DW$12, DW_AT_location[DW_OP_breg13 0]
     272                    
     273                    ;----------------------------------------------------------------------
     274                    ;  85 | void UART_OutString(char *pt){                                         
     275                    ;----------------------------------------------------------------------
TI ARM Assembler PC v20.2.7 Fri Feb 14 12:43:41 2025

Copyright (c) 1996-2018 Texas Instruments Incorporated
UART.asm                                                             PAGE    6

     276 00000032 9000              STR       A1, [SP, #0]          ; [DPU_V7M3_PIPE] |85|  ; [ORIG 16-BIT INS]
     277                            .dwpsn  file "../UART.c",line 86,column 3,is_stmt,isa 1
     278                    ;----------------------------------------------------------------------
     279                    ;  86 | while(*pt){                                                            
     280                    ;----------------------------------------------------------------------
     281 00000034 E006              B         ||$C$L4||             ; [DPU_V7M3_PIPE] |86|  ; [ORIG 16-BIT INS]
     282                            ; BRANCH OCCURS {||$C$L4||}      ; [] |86| 
     283                    ;* --------------------------------------------------------------------------*
     284 00000036           ||$C$L3||:    
     285                            .dwpsn  file "../UART.c",line 87,column 5,is_stmt,isa 1
     286                    ;----------------------------------------------------------------------
     287                    ;  87 | UART_OutChar(*pt);                                                     
     288                    ;----------------------------------------------------------------------
     289 00000036 9800              LDR       A1, [SP, #0]          ; [DPU_V7M3_PIPE] |87|  ; [ORIG 16-BIT INS]
     290 00000038 7800              LDRB      A1, [A1, #0]          ; [DPU_V7M3_PIPE] |87|  ; [ORIG 16-BIT INS]
     291                    $C$DW$13        .dwtag  DW_TAG_TI_branch
     292                            .dwattr $C$DW$13, DW_AT_low_pc(0x00)
     293                            .dwattr $C$DW$13, DW_AT_name("UART_OutChar")
     294                            .dwattr $C$DW$13, DW_AT_TI_call
     295                    
     296 0000003a FFFEF7FF!         BL        UART_OutChar          ; [DPU_V7M3_PIPE] |87|  ; [KEEP 32-BIT INS]
     297                            ; CALL OCCURS {UART_OutChar }    ; [] |87| 
     298                            .dwpsn  file "../UART.c",line 88,column 5,is_stmt,isa 1
     299                    ;----------------------------------------------------------------------
     300                    ;  88 | pt++;                                                                  
     301                    ;----------------------------------------------------------------------
     302 0000003e 9800              LDR       A1, [SP, #0]          ; [DPU_V7M3_PIPE] |88|  ; [ORIG 16-BIT INS]
     303 00000040 1C40              ADDS      A1, A1, #1            ; [DPU_V7M3_PIPE] |88|  ; [ORIG 16-BIT INS]
     304 00000042 9000              STR       A1, [SP, #0]          ; [DPU_V7M3_PIPE] |88|  ; [ORIG 16-BIT INS]
     305                    ;* --------------------------------------------------------------------------*
     306                    ;*   BEGIN LOOP ||$C$L4||
     307                    ;* --------------------------------------------------------------------------*
     308 00000044           ||$C$L4||:    
     309                            .dwpsn  file "../UART.c",line 89,column 3,is_stmt,isa 1
     310 00000044 9800              LDR       A1, [SP, #0]          ; [DPU_V7M3_PIPE] |89|  ; [ORIG 16-BIT INS]
     311 00000046 7800              LDRB      A1, [A1, #0]          ; [DPU_V7M3_PIPE] |89|  ; [ORIG 16-BIT INS]
     312 00000048 2800              CMP       A1, #0                ; [DPU_V7M3_PIPE] |89|  ; [ORIG 16-BIT INS]
     313 0000004a D1F4              BNE       ||$C$L3||             ; [DPU_V7M3_PIPE] |89|  ; [ORIG 16-BIT INS]
     314                            ; BRANCHCC OCCURS {||$C$L3||}    ; [] |89| 
     315                    ;* --------------------------------------------------------------------------*
     316                            .dwpsn  file "../UART.c",line 90,column 1,is_stmt,isa 1
     317                    $C$DW$14        .dwtag  DW_TAG_TI_branch
     318                            .dwattr $C$DW$14, DW_AT_low_pc(0x00)
     319                            .dwattr $C$DW$14, DW_AT_TI_return
     320                    
     321 0000004c BD08              POP       {A4, PC}              ; [DPU_V7M3_PIPE]  ; [ORIG 16-BIT INS]
     322                            .dwcfi  cfa_offset, 0
     323                            .dwcfi  restore_reg, 3
     324                            ; BRANCH OCCURS                  ; [] 
     325                            .dwattr $C$DW$10, DW_AT_TI_end_file("../UART.c")
     326                            .dwattr $C$DW$10, DW_AT_TI_end_line(0x5a)
     327                            .dwattr $C$DW$10, DW_AT_TI_end_column(0x01)
     328                            .dwendentry
     329                            .dwendtag $C$DW$10
     330                    
TI ARM Assembler PC v20.2.7 Fri Feb 14 12:43:41 2025

Copyright (c) 1996-2018 Texas Instruments Incorporated
UART.asm                                                             PAGE    7

     331 0000004e                   .sect   ".text"
     332                            .clink
     333                            .thumbfunc UART_InUDec
     334 0000004e                   .thumb
     335                            .global UART_InUDec
     336                    
     337                    $C$DW$15        .dwtag  DW_TAG_subprogram
     338                            .dwattr $C$DW$15, DW_AT_name("UART_InUDec")
     339                            .dwattr $C$DW$15, DW_AT_low_pc(UART_InUDec)
     340                            .dwattr $C$DW$15, DW_AT_high_pc(0x00)
     341                            .dwattr $C$DW$15, DW_AT_TI_symbol_name("UART_InUDec")
     342                            .dwattr $C$DW$15, DW_AT_external
     343                            .dwattr $C$DW$15, DW_AT_type(*$C$DW$T$30)
     344                            .dwattr $C$DW$15, DW_AT_TI_begin_file("../UART.c")
     345                            .dwattr $C$DW$15, DW_AT_TI_begin_line(0x64)
     346                            .dwattr $C$DW$15, DW_AT_TI_begin_column(0x0a)
     347                            .dwattr $C$DW$15, DW_AT_decl_file("../UART.c")
     348                            .dwattr $C$DW$15, DW_AT_decl_line(0x64)
     349                            .dwattr $C$DW$15, DW_AT_decl_column(0x0a)
     350                            .dwattr $C$DW$15, DW_AT_TI_max_frame_size(0x10)
     351                            .dwpsn  file "../UART.c",line 100,column 27,is_stmt,address UART_InUDec,isa 1
     352                    
     353                            .dwfde $C$DW$CIE, UART_InUDec
     354                    ;----------------------------------------------------------------------
     355                    ; 100 | uint32_t UART_InUDec(void){                                            
     356                    ;----------------------------------------------------------------------
     357                    
     358                    ;*****************************************************************************
     359                    ;* FUNCTION NAME: UART_InUDec                                                *
     360                    ;*                                                                           *
     361                    ;*   Regs Modified     : A1,A2,A3,A4,SP,LR,SR,FPEXC,FPSCR                    *
     362                    ;*   Regs Used         : A1,A2,A3,A4,SP,LR,SR,FPEXC,FPSCR                    *
     363                    ;*   Local Frame Size  : 0 Args + 12 Auto + 4 Save = 16 byte                 *
     364                    ;*****************************************************************************
     365 0000004e           UART_InUDec:
     366                    ;* --------------------------------------------------------------------------*
     367                            .dwcfi  cfa_offset, 0
     368 0000004e B50E              PUSH      {A2, A3, A4, LR}      ; [DPU_V7M3_PIPE]  ; [ORIG 16-BIT INS]
     369                            .dwcfi  cfa_offset, 16
     370                            .dwcfi  save_reg_to_mem, 14, -4
     371                            .dwcfi  save_reg_to_mem, 3, -8
     372                            .dwcfi  save_reg_to_mem, 2, -12
     373                            .dwcfi  save_reg_to_mem, 1, -16
     374                    $C$DW$16        .dwtag  DW_TAG_variable
     375                            .dwattr $C$DW$16, DW_AT_name("number")
     376                            .dwattr $C$DW$16, DW_AT_TI_symbol_name("number")
     377                            .dwattr $C$DW$16, DW_AT_type(*$C$DW$T$30)
     378                            .dwattr $C$DW$16, DW_AT_location[DW_OP_breg13 0]
     379                    
     380                    $C$DW$17        .dwtag  DW_TAG_variable
     381                            .dwattr $C$DW$17, DW_AT_name("length")
     382                            .dwattr $C$DW$17, DW_AT_TI_symbol_name("length")
     383                            .dwattr $C$DW$17, DW_AT_type(*$C$DW$T$30)
     384                            .dwattr $C$DW$17, DW_AT_location[DW_OP_breg13 4]
     385                    
TI ARM Assembler PC v20.2.7 Fri Feb 14 12:43:41 2025

Copyright (c) 1996-2018 Texas Instruments Incorporated
UART.asm                                                             PAGE    8

     386                    $C$DW$18        .dwtag  DW_TAG_variable
     387                            .dwattr $C$DW$18, DW_AT_name("character")
     388                            .dwattr $C$DW$18, DW_AT_TI_symbol_name("character")
     389                            .dwattr $C$DW$18, DW_AT_type(*$C$DW$T$6)
     390                            .dwattr $C$DW$18, DW_AT_location[DW_OP_breg13 8]
     391                    
     392                            .dwpsn  file "../UART.c",line 101,column 16,is_stmt,isa 1
     393                    ;----------------------------------------------------------------------
     394                    ; 101 | uint32_t number=0, length=0;                                           
     395                    ;----------------------------------------------------------------------
     396 00000050 2000              MOVS      A1, #0                ; [DPU_V7M3_PIPE] |101|  ; [ORIG 16-BIT INS]
     397 00000052 9000              STR       A1, [SP, #0]          ; [DPU_V7M3_PIPE] |101|  ; [ORIG 16-BIT INS]
     398                            .dwpsn  file "../UART.c",line 101,column 26,is_stmt,isa 1
     399                    ;----------------------------------------------------------------------
     400                    ; 102 | char character;                                                        
     401                    ;----------------------------------------------------------------------
     402 00000054 2000              MOVS      A1, #0                ; [DPU_V7M3_PIPE] |101|  ; [ORIG 16-BIT INS]
     403 00000056 9001              STR       A1, [SP, #4]          ; [DPU_V7M3_PIPE] |101|  ; [ORIG 16-BIT INS]
     404                            .dwpsn  file "../UART.c",line 103,column 3,is_stmt,isa 1
     405                    ;----------------------------------------------------------------------
     406                    ; 103 | character = UART_InChar();                                             
     407                    ;----------------------------------------------------------------------
     408                    $C$DW$19        .dwtag  DW_TAG_TI_branch
     409                            .dwattr $C$DW$19, DW_AT_low_pc(0x00)
     410                            .dwattr $C$DW$19, DW_AT_name("UART_InChar")
     411                            .dwattr $C$DW$19, DW_AT_TI_call
     412                    
     413 00000058 FFFEF7FF!         BL        UART_InChar           ; [DPU_V7M3_PIPE] |103|  ; [KEEP 32-BIT INS]
     414                            ; CALL OCCURS {UART_InChar }     ; [] |103| 
     415 0000005c 0008F88D          STRB      A1, [SP, #8]          ; [DPU_V7M3_PIPE] |103|  ; [KEEP 32-BIT INS]
     416                            .dwpsn  file "../UART.c",line 104,column 9,is_stmt,isa 1
     417                    ;----------------------------------------------------------------------
     418                    ; 104 | while(character != CR){ // accepts until <enter> is typed              
     419                    ; 105 | // The next line checks that the input is a digit, 0-9.                
     420                    ; 106 | // If the character is not 0-9, it is ignored and not echoed           
     421                    ;----------------------------------------------------------------------
     422 00000060 0008F89D          LDRB      A1, [SP, #8]          ; [DPU_V7M3_PIPE] |104|  ; [KEEP 32-BIT INS]
     423 00000064 280D              CMP       A1, #13               ; [DPU_V7M3_PIPE] |104|  ; [ORIG 16-BIT INS]
     424 00000066 D032              BEQ       ||$C$L8||             ; [DPU_V7M3_PIPE] |104|  ; [ORIG 16-BIT INS]
     425                            ; BRANCHCC OCCURS {||$C$L8||}    ; [] |104| 
     426                    ;* --------------------------------------------------------------------------*
     427                    ;*   BEGIN LOOP ||$C$L5||
     428                    ;*
     429                    ;*   Loop source line                : 104
     430                    ;*   Loop closing brace source line  : 120
     431                    ;*   Known Minimum Trip Count        : 1
     432                    ;*   Known Maximum Trip Count        : 4294967295
     433                    ;*   Known Max Trip Count Factor     : 1
     434                    ;* --------------------------------------------------------------------------*
     435 00000068           ||$C$L5||:    
     436                            .dwpsn  file "../UART.c",line 107,column 5,is_stmt,isa 1
     437                    ;----------------------------------------------------------------------
     438                    ; 107 | if((character>='0') && (character<='9')) {                             
     439                    ;----------------------------------------------------------------------
     440 00000068 0008F89D          LDRB      A1, [SP, #8]          ; [DPU_V7M3_PIPE] |107|  ; [KEEP 32-BIT INS]
TI ARM Assembler PC v20.2.7 Fri Feb 14 12:43:41 2025

Copyright (c) 1996-2018 Texas Instruments Incorporated
UART.asm                                                             PAGE    9

     441 0000006c 2830              CMP       A1, #48               ; [DPU_V7M3_PIPE] |107|  ; [ORIG 16-BIT INS]
     442 0000006e DB14              BLT       ||$C$L6||             ; [DPU_V7M3_PIPE] |107|  ; [ORIG 16-BIT INS]
     443                            ; BRANCHCC OCCURS {||$C$L6||}    ; [] |107| 
     444                    ;* --------------------------------------------------------------------------*
     445 00000070 0008F89D          LDRB      A1, [SP, #8]          ; [DPU_V7M3_PIPE] |107|  ; [KEEP 32-BIT INS]
     446 00000074 2839              CMP       A1, #57               ; [DPU_V7M3_PIPE] |107|  ; [ORIG 16-BIT INS]
     447 00000076 DC10              BGT       ||$C$L6||             ; [DPU_V7M3_PIPE] |107|  ; [ORIG 16-BIT INS]
     448                            ; BRANCHCC OCCURS {||$C$L6||}    ; [] |107| 
     449                    ;* --------------------------------------------------------------------------*
     450                            .dwpsn  file "../UART.c",line 108,column 7,is_stmt,isa 1
     451                    ;----------------------------------------------------------------------
     452                    ; 108 | number = 10*number+(character-'0');   // this line overflows if above 4
     453                    ;     | 294967295                                                              
     454                    ;----------------------------------------------------------------------
     455 00000078 9A00              LDR       A3, [SP, #0]          ; [DPU_V7M3_PIPE] |108|  ; [ORIG 16-BIT INS]
     456 0000007a 1008F89D          LDRB      A2, [SP, #8]          ; [DPU_V7M3_PIPE] |108|  ; [KEEP 32-BIT INS]
     457 0000007e 0050              LSLS      A1, A3, #1            ; [DPU_V7M3_PIPE] |108|  ; [ORIG 16-BIT INS]
     458 00000080 3930              SUBS      A2, A2, #48           ; [DPU_V7M3_PIPE] |108|  ; [ORIG 16-BIT INS]
     459 00000082 00C2EB00          ADD       A1, A1, A3, LSL #3    ; [DPU_V7M3_PIPE] |108|  ; [KEEP 32-BIT INS]
     460 00000086 1809              ADDS      A2, A2, A1            ; [DPU_V7M3_PIPE] |108|  ; [ORIG 16-BIT INS]
     461 00000088 9100              STR       A2, [SP, #0]          ; [DPU_V7M3_PIPE] |108|  ; [ORIG 16-BIT INS]
     462                            .dwpsn  file "../UART.c",line 109,column 7,is_stmt,isa 1
     463                    ;----------------------------------------------------------------------
     464                    ; 109 | length++;                                                              
     465                    ;----------------------------------------------------------------------
     466 0000008a 9801              LDR       A1, [SP, #4]          ; [DPU_V7M3_PIPE] |109|  ; [ORIG 16-BIT INS]
     467 0000008c 1C40              ADDS      A1, A1, #1            ; [DPU_V7M3_PIPE] |109|  ; [ORIG 16-BIT INS]
     468 0000008e 9001              STR       A1, [SP, #4]          ; [DPU_V7M3_PIPE] |109|  ; [ORIG 16-BIT INS]
     469                            .dwpsn  file "../UART.c",line 110,column 7,is_stmt,isa 1
     470                    ;----------------------------------------------------------------------
     471                    ; 110 | UART_OutChar(character);                                               
     472                    ; 112 | // If the input is a backspace, then the return number is              
     473                    ; 113 | // changed and a backspace is outputted to the screen                  
     474                    ;----------------------------------------------------------------------
     475 00000090 0008F89D          LDRB      A1, [SP, #8]          ; [DPU_V7M3_PIPE] |110|  ; [KEEP 32-BIT INS]
     476                    $C$DW$20        .dwtag  DW_TAG_TI_branch
     477                            .dwattr $C$DW$20, DW_AT_low_pc(0x00)
     478                            .dwattr $C$DW$20, DW_AT_name("UART_OutChar")
     479                            .dwattr $C$DW$20, DW_AT_TI_call
     480                    
     481 00000094 FFFEF7FF!         BL        UART_OutChar          ; [DPU_V7M3_PIPE] |110|  ; [KEEP 32-BIT INS]
     482                            ; CALL OCCURS {UART_OutChar }    ; [] |110| 
     483 00000098 E011              B         ||$C$L7||             ; [DPU_V7M3_PIPE]  ; [ORIG 16-BIT INS]
     484                            ; BRANCH OCCURS {||$C$L7||}      ; [] 
     485                    ;* --------------------------------------------------------------------------*
     486 0000009a           ||$C$L6||:    
     487                            .dwpsn  file "../UART.c",line 114,column 10,is_stmt,isa 1
     488                    ;----------------------------------------------------------------------
     489                    ; 114 | else if((character==BS) && length){                                    
     490                    ;----------------------------------------------------------------------
     491 0000009a 0008F89D          LDRB      A1, [SP, #8]          ; [DPU_V7M3_PIPE] |114|  ; [KEEP 32-BIT INS]
     492 0000009e 2808              CMP       A1, #8                ; [DPU_V7M3_PIPE] |114|  ; [ORIG 16-BIT INS]
     493 000000a0 D10D              BNE       ||$C$L7||             ; [DPU_V7M3_PIPE] |114|  ; [ORIG 16-BIT INS]
     494                            ; BRANCHCC OCCURS {||$C$L7||}    ; [] |114| 
     495                    ;* --------------------------------------------------------------------------*
TI ARM Assembler PC v20.2.7 Fri Feb 14 12:43:41 2025

Copyright (c) 1996-2018 Texas Instruments Incorporated
UART.asm                                                             PAGE   10

     496 000000a2 9801              LDR       A1, [SP, #4]          ; [DPU_V7M3_PIPE] |114|  ; [ORIG 16-BIT INS]
     497 000000a4 B158              CBZ       A1, ||$C$L7||         ; []  ; [ORIG 16-BIT INS]
     498                            ; BRANCHCC OCCURS {||$C$L7||}    ; [] |114| 
     499                    ;* --------------------------------------------------------------------------*
     500                            .dwpsn  file "../UART.c",line 115,column 7,is_stmt,isa 1
     501                    ;----------------------------------------------------------------------
     502                    ; 115 | number /= 10;                                                          
     503                    ;----------------------------------------------------------------------
     504 000000a6 9900              LDR       A2, [SP, #0]          ; [DPU_V7M3_PIPE] |115|  ; [ORIG 16-BIT INS]
     505 000000a8 200A              MOVS      A1, #10               ; [DPU_V7M3_PIPE] |115|  ; [ORIG 16-BIT INS]
     506 000000aa F0F0FBB1          UDIV      A1, A2, A1            ; [DPU_V7M3_PIPE] |115|  ; [KEEP 32-BIT INS]
     507 000000ae 9000              STR       A1, [SP, #0]          ; [DPU_V7M3_PIPE] |115|  ; [ORIG 16-BIT INS]
     508                            .dwpsn  file "../UART.c",line 116,column 7,is_stmt,isa 1
     509                    ;----------------------------------------------------------------------
     510                    ; 116 | length--;                                                              
     511                    ;----------------------------------------------------------------------
     512 000000b0 9801              LDR       A1, [SP, #4]          ; [DPU_V7M3_PIPE] |116|  ; [ORIG 16-BIT INS]
     513 000000b2 1E40              SUBS      A1, A1, #1            ; [DPU_V7M3_PIPE] |116|  ; [ORIG 16-BIT INS]
     514 000000b4 9001              STR       A1, [SP, #4]          ; [DPU_V7M3_PIPE] |116|  ; [ORIG 16-BIT INS]
     515                            .dwpsn  file "../UART.c",line 117,column 7,is_stmt,isa 1
     516                    ;----------------------------------------------------------------------
     517                    ; 117 | UART_OutChar(character);                                               
     518                    ;----------------------------------------------------------------------
     519 000000b6 0008F89D          LDRB      A1, [SP, #8]          ; [DPU_V7M3_PIPE] |117|  ; [KEEP 32-BIT INS]
     520                    $C$DW$21        .dwtag  DW_TAG_TI_branch
     521                            .dwattr $C$DW$21, DW_AT_low_pc(0x00)
     522                            .dwattr $C$DW$21, DW_AT_name("UART_OutChar")
     523                            .dwattr $C$DW$21, DW_AT_TI_call
     524                    
     525 000000ba FFFEF7FF!         BL        UART_OutChar          ; [DPU_V7M3_PIPE] |117|  ; [KEEP 32-BIT INS]
     526                            ; CALL OCCURS {UART_OutChar }    ; [] |117| 
     527                    ;* --------------------------------------------------------------------------*
     528 000000be           ||$C$L7||:    
     529                            .dwpsn  file "../UART.c",line 119,column 5,is_stmt,isa 1
     530                    ;----------------------------------------------------------------------
     531                    ; 119 | character = UART_InChar();                                             
     532                    ;----------------------------------------------------------------------
     533                    $C$DW$22        .dwtag  DW_TAG_TI_branch
     534                            .dwattr $C$DW$22, DW_AT_low_pc(0x00)
     535                            .dwattr $C$DW$22, DW_AT_name("UART_InChar")
     536                            .dwattr $C$DW$22, DW_AT_TI_call
     537                    
     538 000000be FFFEF7FF!         BL        UART_InChar           ; [DPU_V7M3_PIPE] |119|  ; [KEEP 32-BIT INS]
     539                            ; CALL OCCURS {UART_InChar }     ; [] |119| 
     540 000000c2 0008F88D          STRB      A1, [SP, #8]          ; [DPU_V7M3_PIPE] |119|  ; [KEEP 32-BIT INS]
     541                            .dwpsn  file "../UART.c",line 104,column 9,is_stmt,isa 1
     542 000000c6 0008F89D          LDRB      A1, [SP, #8]          ; [DPU_V7M3_PIPE] |104|  ; [KEEP 32-BIT INS]
     543 000000ca 280D              CMP       A1, #13               ; [DPU_V7M3_PIPE] |104|  ; [ORIG 16-BIT INS]
     544 000000cc D1CC              BNE       ||$C$L5||             ; [DPU_V7M3_PIPE] |104|  ; [ORIG 16-BIT INS]
     545                            ; BRANCHCC OCCURS {||$C$L5||}    ; [] |104| 
     546                    ;* --------------------------------------------------------------------------*
     547 000000ce           ||$C$L8||:    
     548                            .dwpsn  file "../UART.c",line 121,column 3,is_stmt,isa 1
     549                    ;----------------------------------------------------------------------
     550                    ; 121 | return number;                                                         
TI ARM Assembler PC v20.2.7 Fri Feb 14 12:43:41 2025

Copyright (c) 1996-2018 Texas Instruments Incorporated
UART.asm                                                             PAGE   11

     551                    ;----------------------------------------------------------------------
     552 000000ce 9800              LDR       A1, [SP, #0]          ; [DPU_V7M3_PIPE] |121|  ; [ORIG 16-BIT INS]
     553                            .dwpsn  file "../UART.c",line 122,column 1,is_stmt,isa 1
     554                    $C$DW$23        .dwtag  DW_TAG_TI_branch
     555                            .dwattr $C$DW$23, DW_AT_low_pc(0x00)
     556                            .dwattr $C$DW$23, DW_AT_TI_return
     557                    
     558 000000d0 BD0E              POP       {A2, A3, A4, PC}      ; [DPU_V7M3_PIPE]  ; [ORIG 16-BIT INS]
     559                            .dwcfi  cfa_offset, 0
     560                            .dwcfi  restore_reg, 3
     561                            .dwcfi  restore_reg, 2
     562                            .dwcfi  restore_reg, 1
     563                            ; BRANCH OCCURS                  ; [] 
     564                            .dwattr $C$DW$15, DW_AT_TI_end_file("../UART.c")
     565                            .dwattr $C$DW$15, DW_AT_TI_end_line(0x7a)
     566                            .dwattr $C$DW$15, DW_AT_TI_end_column(0x01)
     567                            .dwendentry
     568                            .dwendtag $C$DW$15
     569                    
     570 000000d2                   .sect   ".text"
     571                            .clink
     572                            .thumbfunc UART_OutUDec
     573 000000d2                   .thumb
     574                            .global UART_OutUDec
     575                    
     576                    $C$DW$24        .dwtag  DW_TAG_subprogram
     577                            .dwattr $C$DW$24, DW_AT_name("UART_OutUDec")
     578                            .dwattr $C$DW$24, DW_AT_low_pc(UART_OutUDec)
     579                            .dwattr $C$DW$24, DW_AT_high_pc(0x00)
     580                            .dwattr $C$DW$24, DW_AT_TI_symbol_name("UART_OutUDec")
     581                            .dwattr $C$DW$24, DW_AT_external
     582                            .dwattr $C$DW$24, DW_AT_TI_begin_file("../UART.c")
     583                            .dwattr $C$DW$24, DW_AT_TI_begin_line(0x81)
     584                            .dwattr $C$DW$24, DW_AT_TI_begin_column(0x06)
     585                            .dwattr $C$DW$24, DW_AT_decl_file("../UART.c")
     586                            .dwattr $C$DW$24, DW_AT_decl_line(0x81)
     587                            .dwattr $C$DW$24, DW_AT_decl_column(0x06)
     588                            .dwattr $C$DW$24, DW_AT_TI_max_frame_size(0x08)
     589                            .dwpsn  file "../UART.c",line 129,column 30,is_stmt,address UART_OutUDec,isa 1
     590                    
     591                            .dwfde $C$DW$CIE, UART_OutUDec
     592                    $C$DW$25        .dwtag  DW_TAG_formal_parameter
     593                            .dwattr $C$DW$25, DW_AT_name("n")
     594                            .dwattr $C$DW$25, DW_AT_TI_symbol_name("n")
     595                            .dwattr $C$DW$25, DW_AT_type(*$C$DW$T$30)
     596                            .dwattr $C$DW$25, DW_AT_location[DW_OP_reg0]
     597                    
     598                    
     599                    ;*****************************************************************************
     600                    ;* FUNCTION NAME: UART_OutUDec                                               *
     601                    ;*                                                                           *
     602                    ;*   Regs Modified     : A1,A2,A3,A4,V9,SP,LR,SR,D0,D0_hi,D1,D1_hi,D2,D2_hi, *
     603                    ;*                           D3,D3_hi,D4,D4_hi,D5,D5_hi,D6,D6_hi,D7,D7_hi,   *
     604                    ;*                           FPEXC,FPSCR                                     *
     605                    ;*   Regs Used         : A1,A2,A3,A4,V9,SP,LR,SR,D0,D0_hi,D1,D1_hi,D2,D2_hi, *
TI ARM Assembler PC v20.2.7 Fri Feb 14 12:43:41 2025

Copyright (c) 1996-2018 Texas Instruments Incorporated
UART.asm                                                             PAGE   12

     606                    ;*                           D3,D3_hi,D4,D4_hi,D5,D5_hi,D6,D6_hi,D7,D7_hi,   *
     607                    ;*                           FPEXC,FPSCR                                     *
     608                    ;*   Local Frame Size  : 0 Args + 4 Auto + 4 Save = 8 byte                   *
     609                    ;*****************************************************************************
     610 000000d2           UART_OutUDec:
     611                    ;* --------------------------------------------------------------------------*
     612                            .dwcfi  cfa_offset, 0
     613 000000d2 B508              PUSH      {A4, LR}              ; [DPU_V7M3_PIPE]  ; [ORIG 16-BIT INS]
     614                            .dwcfi  cfa_offset, 8
     615                            .dwcfi  save_reg_to_mem, 14, -4
     616                            .dwcfi  save_reg_to_mem, 3, -8
     617                    $C$DW$26        .dwtag  DW_TAG_variable
     618                            .dwattr $C$DW$26, DW_AT_name("n")
     619                            .dwattr $C$DW$26, DW_AT_TI_symbol_name("n")
     620                            .dwattr $C$DW$26, DW_AT_type(*$C$DW$T$30)
     621                            .dwattr $C$DW$26, DW_AT_location[DW_OP_breg13 0]
     622                    
     623                    ;----------------------------------------------------------------------
     624                    ; 129 | void UART_OutUDec(uint32_t n){                                         
     625                    ; 130 | // This function uses recursion to convert decimal number              
     626                    ; 131 | //   of unspecified length as an ASCII string                          
     627                    ;----------------------------------------------------------------------
     628 000000d4 9000              STR       A1, [SP, #0]          ; [DPU_V7M3_PIPE] |129|  ; [ORIG 16-BIT INS]
     629                            .dwpsn  file "../UART.c",line 132,column 3,is_stmt,isa 1
     630                    ;----------------------------------------------------------------------
     631                    ; 132 | if(n >= 10){                                                           
     632                    ;----------------------------------------------------------------------
     633 000000d6 9800              LDR       A1, [SP, #0]          ; [DPU_V7M3_PIPE] |132|  ; [ORIG 16-BIT INS]
     634 000000d8 280A              CMP       A1, #10               ; [DPU_V7M3_PIPE] |132|  ; [ORIG 16-BIT INS]
     635 000000da D30C              BCC       ||$C$L9||             ; [DPU_V7M3_PIPE] |132|  ; [ORIG 16-BIT INS]
     636                            ; BRANCHCC OCCURS {||$C$L9||}    ; [] |132| 
     637                    ;* --------------------------------------------------------------------------*
     638                            .dwpsn  file "../UART.c",line 133,column 5,is_stmt,isa 1
     639                    ;----------------------------------------------------------------------
     640                    ; 133 | UART_OutUDec(n/10);                                                    
     641                    ;----------------------------------------------------------------------
     642 000000dc 9900              LDR       A2, [SP, #0]          ; [DPU_V7M3_PIPE] |133|  ; [ORIG 16-BIT INS]
     643 000000de 200A              MOVS      A1, #10               ; [DPU_V7M3_PIPE] |133|  ; [ORIG 16-BIT INS]
     644 000000e0 F0F0FBB1          UDIV      A1, A2, A1            ; [DPU_V7M3_PIPE] |133|  ; [KEEP 32-BIT INS]
     645                    $C$DW$27        .dwtag  DW_TAG_TI_branch
     646                            .dwattr $C$DW$27, DW_AT_low_pc(0x00)
     647                            .dwattr $C$DW$27, DW_AT_name("UART_OutUDec")
     648                            .dwattr $C$DW$27, DW_AT_TI_call
     649                    
     650 000000e4 FFFEF7FF!         BL        UART_OutUDec          ; [DPU_V7M3_PIPE] |133|  ; [KEEP 32-BIT INS]
     651                            ; CALL OCCURS {UART_OutUDec }    ; [] |133| 
     652                            .dwpsn  file "../UART.c",line 134,column 5,is_stmt,isa 1
     653                    ;----------------------------------------------------------------------
     654                    ; 134 | n = n%10;                                                              
     655                    ;----------------------------------------------------------------------
     656 000000e8 9800              LDR       A1, [SP, #0]          ; [DPU_V7M3_PIPE] |134|  ; [ORIG 16-BIT INS]
     657 000000ea 220A              MOVS      A3, #10               ; [DPU_V7M3_PIPE] |134|  ; [ORIG 16-BIT INS]
     658 000000ec F1F2FBB0          UDIV      A2, A1, A3            ; [DPU_V7M3_PIPE] |134|  ; [KEEP 32-BIT INS]
     659 000000f0 4351              MULS      A2, A2, A3            ; [DPU_V7M3_PIPE] |134|  ; [ORIG 16-BIT INS]
     660 000000f2 1A40              SUBS      A1, A1, A2            ; [DPU_V7M3_PIPE] |134|  ; [ORIG 16-BIT INS]
TI ARM Assembler PC v20.2.7 Fri Feb 14 12:43:41 2025

Copyright (c) 1996-2018 Texas Instruments Incorporated
UART.asm                                                             PAGE   13

     661 000000f4 9000              STR       A1, [SP, #0]          ; [DPU_V7M3_PIPE] |134|  ; [ORIG 16-BIT INS]
     662                    ;* --------------------------------------------------------------------------*
     663 000000f6           ||$C$L9||:    
     664                            .dwpsn  file "../UART.c",line 136,column 3,is_stmt,isa 1
     665                    ;----------------------------------------------------------------------
     666                    ; 136 | UART_OutChar(n+'0'); /* n is between 0 and 9 */                        
     667                    ;----------------------------------------------------------------------
     668 000000f6 9800              LDR       A1, [SP, #0]          ; [DPU_V7M3_PIPE] |136|  ; [ORIG 16-BIT INS]
     669 000000f8 3030              ADDS      A1, A1, #48           ; [DPU_V7M3_PIPE] |136|  ; [ORIG 16-BIT INS]
     670 000000fa B2C0              UXTB      A1, A1                ; [DPU_V7M3_PIPE] |136|  ; [ORIG 16-BIT INS]
     671                    $C$DW$28        .dwtag  DW_TAG_TI_branch
     672                            .dwattr $C$DW$28, DW_AT_low_pc(0x00)
     673                            .dwattr $C$DW$28, DW_AT_name("UART_OutChar")
     674                            .dwattr $C$DW$28, DW_AT_TI_call
     675                    
     676 000000fc FFFEF7FF!         BL        UART_OutChar          ; [DPU_V7M3_PIPE] |136|  ; [KEEP 32-BIT INS]
     677                            ; CALL OCCURS {UART_OutChar }    ; [] |136| 
     678                            .dwpsn  file "../UART.c",line 137,column 1,is_stmt,isa 1
     679                    $C$DW$29        .dwtag  DW_TAG_TI_branch
     680                            .dwattr $C$DW$29, DW_AT_low_pc(0x00)
     681                            .dwattr $C$DW$29, DW_AT_TI_return
     682                    
     683 00000100 BD08              POP       {A4, PC}              ; [DPU_V7M3_PIPE]  ; [ORIG 16-BIT INS]
     684                            .dwcfi  cfa_offset, 0
     685                            .dwcfi  restore_reg, 3
     686                            ; BRANCH OCCURS                  ; [] 
     687                            .dwattr $C$DW$24, DW_AT_TI_end_file("../UART.c")
     688                            .dwattr $C$DW$24, DW_AT_TI_end_line(0x89)
     689                            .dwattr $C$DW$24, DW_AT_TI_end_column(0x01)
     690                            .dwendentry
     691                            .dwendtag $C$DW$24
     692                    
     693 00000102                   .sect   ".text"
     694                            .clink
     695                            .thumbfunc UART_InUHex
     696 00000102                   .thumb
     697                            .global UART_InUHex
     698                    
     699                    $C$DW$30        .dwtag  DW_TAG_subprogram
     700                            .dwattr $C$DW$30, DW_AT_name("UART_InUHex")
     701                            .dwattr $C$DW$30, DW_AT_low_pc(UART_InUHex)
     702                            .dwattr $C$DW$30, DW_AT_high_pc(0x00)
     703                            .dwattr $C$DW$30, DW_AT_TI_symbol_name("UART_InUHex")
     704                            .dwattr $C$DW$30, DW_AT_external
     705                            .dwattr $C$DW$30, DW_AT_type(*$C$DW$T$30)
     706                            .dwattr $C$DW$30, DW_AT_TI_begin_file("../UART.c")
     707                            .dwattr $C$DW$30, DW_AT_TI_begin_line(0x95)
     708                            .dwattr $C$DW$30, DW_AT_TI_begin_column(0x0a)
     709                            .dwattr $C$DW$30, DW_AT_decl_file("../UART.c")
     710                            .dwattr $C$DW$30, DW_AT_decl_line(0x95)
     711                            .dwattr $C$DW$30, DW_AT_decl_column(0x0a)
     712                            .dwattr $C$DW$30, DW_AT_TI_max_frame_size(0x18)
     713                            .dwpsn  file "../UART.c",line 149,column 27,is_stmt,address UART_InUHex,isa 1
     714                    
     715                            .dwfde $C$DW$CIE, UART_InUHex
TI ARM Assembler PC v20.2.7 Fri Feb 14 12:43:41 2025

Copyright (c) 1996-2018 Texas Instruments Incorporated
UART.asm                                                             PAGE   14

     716                    ;----------------------------------------------------------------------
     717                    ; 149 | uint32_t UART_InUHex(void){                                            
     718                    ;----------------------------------------------------------------------
     719                    
     720                    ;*****************************************************************************
     721                    ;* FUNCTION NAME: UART_InUHex                                                *
     722                    ;*                                                                           *
     723                    ;*   Regs Modified     : A1,A2,SP,LR,SR,FPEXC,FPSCR                          *
     724                    ;*   Regs Used         : A1,A2,SP,LR,SR,FPEXC,FPSCR                          *
     725                    ;*   Local Frame Size  : 0 Args + 16 Auto + 4 Save = 20 byte                 *
     726                    ;*****************************************************************************
     727 00000102           UART_InUHex:
     728                    ;* --------------------------------------------------------------------------*
     729                            .dwcfi  cfa_offset, 0
     730 00000102 B500              PUSH      {LR}                  ; [DPU_V7M3_PIPE]  ; [ORIG 16-BIT INS]
     731                            .dwcfi  cfa_offset, 4
     732                            .dwcfi  save_reg_to_mem, 14, -4
     733 00000104 0D14F1AD          SUB       SP, SP, #20           ; [DPU_V7M3_PIPE]  ; [KEEP 32-BIT INS]
     734                            .dwcfi  cfa_offset, 24
     735                    $C$DW$31        .dwtag  DW_TAG_variable
     736                            .dwattr $C$DW$31, DW_AT_name("number")
     737                            .dwattr $C$DW$31, DW_AT_TI_symbol_name("number")
     738                            .dwattr $C$DW$31, DW_AT_type(*$C$DW$T$30)
     739                            .dwattr $C$DW$31, DW_AT_location[DW_OP_breg13 0]
     740                    
     741                    $C$DW$32        .dwtag  DW_TAG_variable
     742                            .dwattr $C$DW$32, DW_AT_name("digit")
     743                            .dwattr $C$DW$32, DW_AT_TI_symbol_name("digit")
     744                            .dwattr $C$DW$32, DW_AT_type(*$C$DW$T$30)
     745                            .dwattr $C$DW$32, DW_AT_location[DW_OP_breg13 4]
     746                    
     747                    $C$DW$33        .dwtag  DW_TAG_variable
     748                            .dwattr $C$DW$33, DW_AT_name("length")
     749                            .dwattr $C$DW$33, DW_AT_TI_symbol_name("length")
     750                            .dwattr $C$DW$33, DW_AT_type(*$C$DW$T$30)
     751                            .dwattr $C$DW$33, DW_AT_location[DW_OP_breg13 8]
     752                    
     753                    $C$DW$34        .dwtag  DW_TAG_variable
     754                            .dwattr $C$DW$34, DW_AT_name("character")
     755                            .dwattr $C$DW$34, DW_AT_TI_symbol_name("character")
     756                            .dwattr $C$DW$34, DW_AT_type(*$C$DW$T$6)
     757                            .dwattr $C$DW$34, DW_AT_location[DW_OP_breg13 12]
     758                    
     759                            .dwpsn  file "../UART.c",line 150,column 16,is_stmt,isa 1
     760                    ;----------------------------------------------------------------------
     761                    ; 150 | uint32_t number=0, digit, length=0;                                    
     762                    ;----------------------------------------------------------------------
     763 00000108 2000              MOVS      A1, #0                ; [DPU_V7M3_PIPE] |150|  ; [ORIG 16-BIT INS]
     764 0000010a 9000              STR       A1, [SP, #0]          ; [DPU_V7M3_PIPE] |150|  ; [ORIG 16-BIT INS]
     765                            .dwpsn  file "../UART.c",line 150,column 33,is_stmt,isa 1
     766                    ;----------------------------------------------------------------------
     767                    ; 151 | char character;                                                        
     768                    ;----------------------------------------------------------------------
     769 0000010c 2000              MOVS      A1, #0                ; [DPU_V7M3_PIPE] |150|  ; [ORIG 16-BIT INS]
     770 0000010e 9002              STR       A1, [SP, #8]          ; [DPU_V7M3_PIPE] |150|  ; [ORIG 16-BIT INS]
TI ARM Assembler PC v20.2.7 Fri Feb 14 12:43:41 2025

Copyright (c) 1996-2018 Texas Instruments Incorporated
UART.asm                                                             PAGE   15

     771                            .dwpsn  file "../UART.c",line 152,column 3,is_stmt,isa 1
     772                    ;----------------------------------------------------------------------
     773                    ; 152 | character = UART_InChar();                                             
     774                    ;----------------------------------------------------------------------
     775                    $C$DW$35        .dwtag  DW_TAG_TI_branch
     776                            .dwattr $C$DW$35, DW_AT_low_pc(0x00)
     777                            .dwattr $C$DW$35, DW_AT_name("UART_InChar")
     778                            .dwattr $C$DW$35, DW_AT_TI_call
     779                    
     780 00000110 FFFEF7FF!         BL        UART_InChar           ; [DPU_V7M3_PIPE] |152|  ; [KEEP 32-BIT INS]
     781                            ; CALL OCCURS {UART_InChar }     ; [] |152| 
     782 00000114 000CF88D          STRB      A1, [SP, #12]         ; [DPU_V7M3_PIPE] |152|  ; [KEEP 32-BIT INS]
     783                            .dwpsn  file "../UART.c",line 153,column 9,is_stmt,isa 1
     784                    ;----------------------------------------------------------------------
     785                    ; 153 | while(character != CR){                                                
     786                    ;----------------------------------------------------------------------
     787 00000118 000CF89D          LDRB      A1, [SP, #12]         ; [DPU_V7M3_PIPE] |153|  ; [KEEP 32-BIT INS]
     788 0000011c 280D              CMP       A1, #13               ; [DPU_V7M3_PIPE] |153|  ; [ORIG 16-BIT INS]
     789 0000011e D04F              BEQ       ||$C$L16||            ; [DPU_V7M3_PIPE] |153|  ; [ORIG 16-BIT INS]
     790                            ; BRANCHCC OCCURS {||$C$L16||}   ; [] |153| 
     791                    ;* --------------------------------------------------------------------------*
     792                    ;*   BEGIN LOOP ||$C$L10||
     793                    ;*
     794                    ;*   Loop source line                : 153
     795                    ;*   Loop closing brace source line  : 177
     796                    ;*   Known Minimum Trip Count        : 1
     797                    ;*   Known Maximum Trip Count        : 4294967295
     798                    ;*   Known Max Trip Count Factor     : 1
     799                    ;* --------------------------------------------------------------------------*
     800 00000120           ||$C$L10||:    
     801                            .dwpsn  file "../UART.c",line 154,column 5,is_stmt,isa 1
     802                    ;----------------------------------------------------------------------
     803                    ; 154 | digit = 0x10; // assume bad                                            
     804                    ;----------------------------------------------------------------------
     805 00000120 2010              MOVS      A1, #16               ; [DPU_V7M3_PIPE] |154|  ; [ORIG 16-BIT INS]
     806 00000122 9001              STR       A1, [SP, #4]          ; [DPU_V7M3_PIPE] |154|  ; [ORIG 16-BIT INS]
     807                            .dwpsn  file "../UART.c",line 155,column 5,is_stmt,isa 1
     808                    ;----------------------------------------------------------------------
     809                    ; 155 | if((character>='0') && (character<='9')){                              
     810                    ;----------------------------------------------------------------------
     811 00000124 000CF89D          LDRB      A1, [SP, #12]         ; [DPU_V7M3_PIPE] |155|  ; [KEEP 32-BIT INS]
     812 00000128 2830              CMP       A1, #48               ; [DPU_V7M3_PIPE] |155|  ; [ORIG 16-BIT INS]
     813 0000012a DB08              BLT       ||$C$L11||            ; [DPU_V7M3_PIPE] |155|  ; [ORIG 16-BIT INS]
     814                            ; BRANCHCC OCCURS {||$C$L11||}   ; [] |155| 
     815                    ;* --------------------------------------------------------------------------*
     816 0000012c 000CF89D          LDRB      A1, [SP, #12]         ; [DPU_V7M3_PIPE] |155|  ; [KEEP 32-BIT INS]
     817 00000130 2839              CMP       A1, #57               ; [DPU_V7M3_PIPE] |155|  ; [ORIG 16-BIT INS]
     818 00000132 DC04              BGT       ||$C$L11||            ; [DPU_V7M3_PIPE] |155|  ; [ORIG 16-BIT INS]
     819                            ; BRANCHCC OCCURS {||$C$L11||}   ; [] |155| 
     820                    ;* --------------------------------------------------------------------------*
     821                            .dwpsn  file "../UART.c",line 156,column 7,is_stmt,isa 1
     822                    ;----------------------------------------------------------------------
     823                    ; 156 | digit = character-'0';                                                 
     824                    ;----------------------------------------------------------------------
     825 00000134 000CF89D          LDRB      A1, [SP, #12]         ; [DPU_V7M3_PIPE] |156|  ; [KEEP 32-BIT INS]
TI ARM Assembler PC v20.2.7 Fri Feb 14 12:43:41 2025

Copyright (c) 1996-2018 Texas Instruments Incorporated
UART.asm                                                             PAGE   16

     826 00000138 3830              SUBS      A1, A1, #48           ; [DPU_V7M3_PIPE] |156|  ; [ORIG 16-BIT INS]
     827 0000013a 9001              STR       A1, [SP, #4]          ; [DPU_V7M3_PIPE] |156|  ; [ORIG 16-BIT INS]
     828 0000013c E018              B         ||$C$L13||            ; [DPU_V7M3_PIPE]  ; [ORIG 16-BIT INS]
     829                            ; BRANCH OCCURS {||$C$L13||}     ; [] 
     830                    ;* --------------------------------------------------------------------------*
     831 0000013e           ||$C$L11||:    
     832                            .dwpsn  file "../UART.c",line 158,column 10,is_stmt,isa 1
     833                    ;----------------------------------------------------------------------
     834                    ; 158 | else if((character>='A') && (character<='F')){                         
     835                    ;----------------------------------------------------------------------
     836 0000013e 000CF89D          LDRB      A1, [SP, #12]         ; [DPU_V7M3_PIPE] |158|  ; [KEEP 32-BIT INS]
     837 00000142 2841              CMP       A1, #65               ; [DPU_V7M3_PIPE] |158|  ; [ORIG 16-BIT INS]
     838 00000144 DB08              BLT       ||$C$L12||            ; [DPU_V7M3_PIPE] |158|  ; [ORIG 16-BIT INS]
     839                            ; BRANCHCC OCCURS {||$C$L12||}   ; [] |158| 
     840                    ;* --------------------------------------------------------------------------*
     841 00000146 000CF89D          LDRB      A1, [SP, #12]         ; [DPU_V7M3_PIPE] |158|  ; [KEEP 32-BIT INS]
     842 0000014a 2846              CMP       A1, #70               ; [DPU_V7M3_PIPE] |158|  ; [ORIG 16-BIT INS]
     843 0000014c DC04              BGT       ||$C$L12||            ; [DPU_V7M3_PIPE] |158|  ; [ORIG 16-BIT INS]
     844                            ; BRANCHCC OCCURS {||$C$L12||}   ; [] |158| 
     845                    ;* --------------------------------------------------------------------------*
     846                            .dwpsn  file "../UART.c",line 159,column 7,is_stmt,isa 1
     847                    ;----------------------------------------------------------------------
     848                    ; 159 | digit = (character-'A')+0xA;                                           
     849                    ;----------------------------------------------------------------------
     850 0000014e 000CF89D          LDRB      A1, [SP, #12]         ; [DPU_V7M3_PIPE] |159|  ; [KEEP 32-BIT INS]
     851 00000152 3837              SUBS      A1, A1, #55           ; [DPU_V7M3_PIPE] |159|  ; [ORIG 16-BIT INS]
     852 00000154 9001              STR       A1, [SP, #4]          ; [DPU_V7M3_PIPE] |159|  ; [ORIG 16-BIT INS]
     853 00000156 E00B              B         ||$C$L13||            ; [DPU_V7M3_PIPE]  ; [ORIG 16-BIT INS]
     854                            ; BRANCH OCCURS {||$C$L13||}     ; [] 
     855                    ;* --------------------------------------------------------------------------*
     856 00000158           ||$C$L12||:    
     857                            .dwpsn  file "../UART.c",line 161,column 10,is_stmt,isa 1
     858                    ;----------------------------------------------------------------------
     859                    ; 161 | else if((character>='a') && (character<='f')){                         
     860                    ;----------------------------------------------------------------------
     861 00000158 000CF89D          LDRB      A1, [SP, #12]         ; [DPU_V7M3_PIPE] |161|  ; [KEEP 32-BIT INS]
     862 0000015c 2861              CMP       A1, #97               ; [DPU_V7M3_PIPE] |161|  ; [ORIG 16-BIT INS]
     863 0000015e DB07              BLT       ||$C$L13||            ; [DPU_V7M3_PIPE] |161|  ; [ORIG 16-BIT INS]
     864                            ; BRANCHCC OCCURS {||$C$L13||}   ; [] |161| 
     865                    ;* --------------------------------------------------------------------------*
     866 00000160 000CF89D          LDRB      A1, [SP, #12]         ; [DPU_V7M3_PIPE] |161|  ; [KEEP 32-BIT INS]
     867 00000164 2866              CMP       A1, #102              ; [DPU_V7M3_PIPE] |161|  ; [ORIG 16-BIT INS]
     868 00000166 DC03              BGT       ||$C$L13||            ; [DPU_V7M3_PIPE] |161|  ; [ORIG 16-BIT INS]
     869                            ; BRANCHCC OCCURS {||$C$L13||}   ; [] |161| 
     870                    ;* --------------------------------------------------------------------------*
     871                            .dwpsn  file "../UART.c",line 162,column 7,is_stmt,isa 1
     872                    ;----------------------------------------------------------------------
     873                    ; 162 | digit = (character-'a')+0xA;                                           
     874                    ; 164 | // If the character is not 0-9 or A-F, it is ignored and not echoed    
     875                    ;----------------------------------------------------------------------
     876 00000168 000CF89D          LDRB      A1, [SP, #12]         ; [DPU_V7M3_PIPE] |162|  ; [KEEP 32-BIT INS]
     877 0000016c 3857              SUBS      A1, A1, #87           ; [DPU_V7M3_PIPE] |162|  ; [ORIG 16-BIT INS]
     878 0000016e 9001              STR       A1, [SP, #4]          ; [DPU_V7M3_PIPE] |162|  ; [ORIG 16-BIT INS]
     879                    ;* --------------------------------------------------------------------------*
     880 00000170           ||$C$L13||:    
TI ARM Assembler PC v20.2.7 Fri Feb 14 12:43:41 2025

Copyright (c) 1996-2018 Texas Instruments Incorporated
UART.asm                                                             PAGE   17

     881                            .dwpsn  file "../UART.c",line 165,column 5,is_stmt,isa 1
     882                    ;----------------------------------------------------------------------
     883                    ; 165 | if(digit <= 0xF){                                                      
     884                    ;----------------------------------------------------------------------
     885 00000170 9801              LDR       A1, [SP, #4]          ; [DPU_V7M3_PIPE] |165|  ; [ORIG 16-BIT INS]
     886 00000172 280F              CMP       A1, #15               ; [DPU_V7M3_PIPE] |165|  ; [ORIG 16-BIT INS]
     887 00000174 D80C              BHI       ||$C$L14||            ; [DPU_V7M3_PIPE] |165|  ; [ORIG 16-BIT INS]
     888                            ; BRANCHCC OCCURS {||$C$L14||}   ; [] |165| 
     889                    ;* --------------------------------------------------------------------------*
     890                            .dwpsn  file "../UART.c",line 166,column 7,is_stmt,isa 1
     891                    ;----------------------------------------------------------------------
     892                    ; 166 | number = number*0x10+digit;                                            
     893                    ;----------------------------------------------------------------------
     894 00000176 9900              LDR       A2, [SP, #0]          ; [DPU_V7M3_PIPE] |166|  ; [ORIG 16-BIT INS]
     895 00000178 9801              LDR       A1, [SP, #4]          ; [DPU_V7M3_PIPE] |166|  ; [ORIG 16-BIT INS]
     896 0000017a 1001EB00          ADD       A1, A1, A2, LSL #4    ; [DPU_V7M3_PIPE] |166|  ; [KEEP 32-BIT INS]
     897 0000017e 9000              STR       A1, [SP, #0]          ; [DPU_V7M3_PIPE] |166|  ; [ORIG 16-BIT INS]
     898                            .dwpsn  file "../UART.c",line 167,column 7,is_stmt,isa 1
     899                    ;----------------------------------------------------------------------
     900                    ; 167 | length++;                                                              
     901                    ;----------------------------------------------------------------------
     902 00000180 9802              LDR       A1, [SP, #8]          ; [DPU_V7M3_PIPE] |167|  ; [ORIG 16-BIT INS]
     903 00000182 1C40              ADDS      A1, A1, #1            ; [DPU_V7M3_PIPE] |167|  ; [ORIG 16-BIT INS]
     904 00000184 9002              STR       A1, [SP, #8]          ; [DPU_V7M3_PIPE] |167|  ; [ORIG 16-BIT INS]
     905                            .dwpsn  file "../UART.c",line 168,column 7,is_stmt,isa 1
     906                    ;----------------------------------------------------------------------
     907                    ; 168 | UART_OutChar(character);                                               
     908                    ; 170 | // Backspace outputted and return value changed if a backspace is input
     909                    ;     | ted                                                                    
     910                    ;----------------------------------------------------------------------
     911 00000186 000CF89D          LDRB      A1, [SP, #12]         ; [DPU_V7M3_PIPE] |168|  ; [KEEP 32-BIT INS]
     912                    $C$DW$36        .dwtag  DW_TAG_TI_branch
     913                            .dwattr $C$DW$36, DW_AT_low_pc(0x00)
     914                            .dwattr $C$DW$36, DW_AT_name("UART_OutChar")
     915                            .dwattr $C$DW$36, DW_AT_TI_call
     916                    
     917 0000018a FFFEF7FF!         BL        UART_OutChar          ; [DPU_V7M3_PIPE] |168|  ; [KEEP 32-BIT INS]
     918                            ; CALL OCCURS {UART_OutChar }    ; [] |168| 
     919 0000018e E00F              B         ||$C$L15||            ; [DPU_V7M3_PIPE]  ; [ORIG 16-BIT INS]
     920                            ; BRANCH OCCURS {||$C$L15||}     ; [] 
     921                    ;* --------------------------------------------------------------------------*
     922 00000190           ||$C$L14||:    
     923                            .dwpsn  file "../UART.c",line 171,column 10,is_stmt,isa 1
     924                    ;----------------------------------------------------------------------
     925                    ; 171 | else if((character==BS) && length){                                    
     926                    ;----------------------------------------------------------------------
     927 00000190 000CF89D          LDRB      A1, [SP, #12]         ; [DPU_V7M3_PIPE] |171|  ; [KEEP 32-BIT INS]
     928 00000194 2808              CMP       A1, #8                ; [DPU_V7M3_PIPE] |171|  ; [ORIG 16-BIT INS]
     929 00000196 D10B              BNE       ||$C$L15||            ; [DPU_V7M3_PIPE] |171|  ; [ORIG 16-BIT INS]
     930                            ; BRANCHCC OCCURS {||$C$L15||}   ; [] |171| 
     931                    ;* --------------------------------------------------------------------------*
     932 00000198 9802              LDR       A1, [SP, #8]          ; [DPU_V7M3_PIPE] |171|  ; [ORIG 16-BIT INS]
     933 0000019a B148              CBZ       A1, ||$C$L15||        ; []  ; [ORIG 16-BIT INS]
     934                            ; BRANCHCC OCCURS {||$C$L15||}   ; [] |171| 
     935                    ;* --------------------------------------------------------------------------*
TI ARM Assembler PC v20.2.7 Fri Feb 14 12:43:41 2025

Copyright (c) 1996-2018 Texas Instruments Incorporated
UART.asm                                                             PAGE   18

     936                            .dwpsn  file "../UART.c",line 172,column 7,is_stmt,isa 1
     937                    ;----------------------------------------------------------------------
     938                    ; 172 | number /= 0x10;                                                        
     939                    ;----------------------------------------------------------------------
     940 0000019c 9800              LDR       A1, [SP, #0]          ; [DPU_V7M3_PIPE] |172|  ; [ORIG 16-BIT INS]
     941 0000019e 0900              LSRS      A1, A1, #4            ; [DPU_V7M3_PIPE] |172|  ; [ORIG 16-BIT INS]
     942 000001a0 9000              STR       A1, [SP, #0]          ; [DPU_V7M3_PIPE] |172|  ; [ORIG 16-BIT INS]
     943                            .dwpsn  file "../UART.c",line 173,column 7,is_stmt,isa 1
     944                    ;----------------------------------------------------------------------
     945                    ; 173 | length--;                                                              
     946                    ;----------------------------------------------------------------------
     947 000001a2 9802              LDR       A1, [SP, #8]          ; [DPU_V7M3_PIPE] |173|  ; [ORIG 16-BIT INS]
     948 000001a4 1E40              SUBS      A1, A1, #1            ; [DPU_V7M3_PIPE] |173|  ; [ORIG 16-BIT INS]
     949 000001a6 9002              STR       A1, [SP, #8]          ; [DPU_V7M3_PIPE] |173|  ; [ORIG 16-BIT INS]
     950                            .dwpsn  file "../UART.c",line 174,column 7,is_stmt,isa 1
     951                    ;----------------------------------------------------------------------
     952                    ; 174 | UART_OutChar(character);                                               
     953                    ;----------------------------------------------------------------------
     954 000001a8 000CF89D          LDRB      A1, [SP, #12]         ; [DPU_V7M3_PIPE] |174|  ; [KEEP 32-BIT INS]
     955                    $C$DW$37        .dwtag  DW_TAG_TI_branch
     956                            .dwattr $C$DW$37, DW_AT_low_pc(0x00)
     957                            .dwattr $C$DW$37, DW_AT_name("UART_OutChar")
     958                            .dwattr $C$DW$37, DW_AT_TI_call
     959                    
     960 000001ac FFFEF7FF!         BL        UART_OutChar          ; [DPU_V7M3_PIPE] |174|  ; [KEEP 32-BIT INS]
     961                            ; CALL OCCURS {UART_OutChar }    ; [] |174| 
     962                    ;* --------------------------------------------------------------------------*
     963 000001b0           ||$C$L15||:    
     964                            .dwpsn  file "../UART.c",line 176,column 5,is_stmt,isa 1
     965                    ;----------------------------------------------------------------------
     966                    ; 176 | character = UART_InChar();                                             
     967                    ;----------------------------------------------------------------------
     968                    $C$DW$38        .dwtag  DW_TAG_TI_branch
     969                            .dwattr $C$DW$38, DW_AT_low_pc(0x00)
     970                            .dwattr $C$DW$38, DW_AT_name("UART_InChar")
     971                            .dwattr $C$DW$38, DW_AT_TI_call
     972                    
     973 000001b0 FFFEF7FF!         BL        UART_InChar           ; [DPU_V7M3_PIPE] |176|  ; [KEEP 32-BIT INS]
     974                            ; CALL OCCURS {UART_InChar }     ; [] |176| 
     975 000001b4 000CF88D          STRB      A1, [SP, #12]         ; [DPU_V7M3_PIPE] |176|  ; [KEEP 32-BIT INS]
     976                            .dwpsn  file "../UART.c",line 153,column 9,is_stmt,isa 1
     977 000001b8 000CF89D          LDRB      A1, [SP, #12]         ; [DPU_V7M3_PIPE] |153|  ; [KEEP 32-BIT INS]
     978 000001bc 280D              CMP       A1, #13               ; [DPU_V7M3_PIPE] |153|  ; [ORIG 16-BIT INS]
     979 000001be D1AF              BNE       ||$C$L10||            ; [DPU_V7M3_PIPE] |153|  ; [ORIG 16-BIT INS]
     980                            ; BRANCHCC OCCURS {||$C$L10||}   ; [] |153| 
     981                    ;* --------------------------------------------------------------------------*
     982 000001c0           ||$C$L16||:    
     983                            .dwpsn  file "../UART.c",line 178,column 3,is_stmt,isa 1
     984                    ;----------------------------------------------------------------------
     985                    ; 178 | return number;                                                         
     986                    ;----------------------------------------------------------------------
     987 000001c0 9800              LDR       A1, [SP, #0]          ; [DPU_V7M3_PIPE] |178|  ; [ORIG 16-BIT INS]
     988                            .dwpsn  file "../UART.c",line 179,column 1,is_stmt,isa 1
     989 000001c2 B005              ADD       SP, SP, #20           ; [DPU_V7M3_PIPE]  ; [ORIG 16-BIT INS]
     990                            .dwcfi  cfa_offset, 4
TI ARM Assembler PC v20.2.7 Fri Feb 14 12:43:41 2025

Copyright (c) 1996-2018 Texas Instruments Incorporated
UART.asm                                                             PAGE   19

     991                    $C$DW$39        .dwtag  DW_TAG_TI_branch
     992                            .dwattr $C$DW$39, DW_AT_low_pc(0x00)
     993                            .dwattr $C$DW$39, DW_AT_TI_return
     994                    
     995 000001c4 BD00              POP       {PC}                  ; [DPU_V7M3_PIPE]  ; [ORIG 16-BIT INS]
     996                            .dwcfi  cfa_offset, 0
     997                            ; BRANCH OCCURS                  ; [] 
     998                            .dwattr $C$DW$30, DW_AT_TI_end_file("../UART.c")
     999                            .dwattr $C$DW$30, DW_AT_TI_end_line(0xb3)
    1000                            .dwattr $C$DW$30, DW_AT_TI_end_column(0x01)
    1001                            .dwendentry
    1002                            .dwendtag $C$DW$30
    1003                    
    1004 000001c6                   .sect   ".text"
    1005                            .clink
    1006                            .thumbfunc UART_OutUHex
    1007 000001c6                   .thumb
    1008                            .global UART_OutUHex
    1009                    
    1010                    $C$DW$40        .dwtag  DW_TAG_subprogram
    1011                            .dwattr $C$DW$40, DW_AT_name("UART_OutUHex")
    1012                            .dwattr $C$DW$40, DW_AT_low_pc(UART_OutUHex)
    1013                            .dwattr $C$DW$40, DW_AT_high_pc(0x00)
    1014                            .dwattr $C$DW$40, DW_AT_TI_symbol_name("UART_OutUHex")
    1015                            .dwattr $C$DW$40, DW_AT_external
    1016                            .dwattr $C$DW$40, DW_AT_TI_begin_file("../UART.c")
    1017                            .dwattr $C$DW$40, DW_AT_TI_begin_line(0xba)
    1018                            .dwattr $C$DW$40, DW_AT_TI_begin_column(0x06)
    1019                            .dwattr $C$DW$40, DW_AT_decl_file("../UART.c")
    1020                            .dwattr $C$DW$40, DW_AT_decl_line(0xba)
    1021                            .dwattr $C$DW$40, DW_AT_decl_column(0x06)
    1022                            .dwattr $C$DW$40, DW_AT_TI_max_frame_size(0x08)
    1023                            .dwpsn  file "../UART.c",line 186,column 35,is_stmt,address UART_OutUHex,isa 1
    1024                    
    1025                            .dwfde $C$DW$CIE, UART_OutUHex
    1026                    $C$DW$41        .dwtag  DW_TAG_formal_parameter
    1027                            .dwattr $C$DW$41, DW_AT_name("number")
    1028                            .dwattr $C$DW$41, DW_AT_TI_symbol_name("number")
    1029                            .dwattr $C$DW$41, DW_AT_type(*$C$DW$T$30)
    1030                            .dwattr $C$DW$41, DW_AT_location[DW_OP_reg0]
    1031                    
    1032                    
    1033                    ;*****************************************************************************
    1034                    ;* FUNCTION NAME: UART_OutUHex                                               *
    1035                    ;*                                                                           *
    1036                    ;*   Regs Modified     : A1,A2,A3,A4,V9,SP,LR,SR,D0,D0_hi,D1,D1_hi,D2,D2_hi, *
    1037                    ;*                           D3,D3_hi,D4,D4_hi,D5,D5_hi,D6,D6_hi,D7,D7_hi,   *
    1038                    ;*                           FPEXC,FPSCR                                     *
    1039                    ;*   Regs Used         : A1,A2,A3,A4,V9,SP,LR,SR,D0,D0_hi,D1,D1_hi,D2,D2_hi, *
    1040                    ;*                           D3,D3_hi,D4,D4_hi,D5,D5_hi,D6,D6_hi,D7,D7_hi,   *
    1041                    ;*                           FPEXC,FPSCR                                     *
    1042                    ;*   Local Frame Size  : 0 Args + 4 Auto + 4 Save = 8 byte                   *
    1043                    ;*****************************************************************************
    1044 000001c6           UART_OutUHex:
    1045                    ;* --------------------------------------------------------------------------*
TI ARM Assembler PC v20.2.7 Fri Feb 14 12:43:41 2025

Copyright (c) 1996-2018 Texas Instruments Incorporated
UART.asm                                                             PAGE   20

    1046                            .dwcfi  cfa_offset, 0
    1047 000001c6 B508              PUSH      {A4, LR}              ; [DPU_V7M3_PIPE]  ; [ORIG 16-BIT INS]
    1048                            .dwcfi  cfa_offset, 8
    1049                            .dwcfi  save_reg_to_mem, 14, -4
    1050                            .dwcfi  save_reg_to_mem, 3, -8
    1051                    $C$DW$42        .dwtag  DW_TAG_variable
    1052                            .dwattr $C$DW$42, DW_AT_name("number")
    1053                            .dwattr $C$DW$42, DW_AT_TI_symbol_name("number")
    1054                            .dwattr $C$DW$42, DW_AT_type(*$C$DW$T$30)
    1055                            .dwattr $C$DW$42, DW_AT_location[DW_OP_breg13 0]
    1056                    
    1057                    ;----------------------------------------------------------------------
    1058                    ; 186 | void UART_OutUHex(uint32_t number){                                    
    1059                    ; 187 | // This function uses recursion to convert the number of               
    1060                    ; 188 | //   unspecified length as an ASCII string                             
    1061                    ;----------------------------------------------------------------------
    1062 000001c8 9000              STR       A1, [SP, #0]          ; [DPU_V7M3_PIPE] |186|  ; [ORIG 16-BIT INS]
    1063                            .dwpsn  file "../UART.c",line 189,column 3,is_stmt,isa 1
    1064                    ;----------------------------------------------------------------------
    1065                    ; 189 | if(number >= 0x10){                                                    
    1066                    ;----------------------------------------------------------------------
    1067 000001ca 9800              LDR       A1, [SP, #0]          ; [DPU_V7M3_PIPE] |189|  ; [ORIG 16-BIT INS]
    1068 000001cc 2810              CMP       A1, #16               ; [DPU_V7M3_PIPE] |189|  ; [ORIG 16-BIT INS]
    1069 000001ce D309              BCC       ||$C$L17||            ; [DPU_V7M3_PIPE] |189|  ; [ORIG 16-BIT INS]
    1070                            ; BRANCHCC OCCURS {||$C$L17||}   ; [] |189| 
    1071                    ;* --------------------------------------------------------------------------*
    1072                            .dwpsn  file "../UART.c",line 190,column 5,is_stmt,isa 1
    1073                    ;----------------------------------------------------------------------
    1074                    ; 190 | UART_OutUHex(number/0x10);                                             
    1075                    ;----------------------------------------------------------------------
    1076 000001d0 9800              LDR       A1, [SP, #0]          ; [DPU_V7M3_PIPE] |190|  ; [ORIG 16-BIT INS]
    1077 000001d2 0900              LSRS      A1, A1, #4            ; [DPU_V7M3_PIPE] |190|  ; [ORIG 16-BIT INS]
    1078                    $C$DW$43        .dwtag  DW_TAG_TI_branch
    1079                            .dwattr $C$DW$43, DW_AT_low_pc(0x00)
    1080                            .dwattr $C$DW$43, DW_AT_name("UART_OutUHex")
    1081                            .dwattr $C$DW$43, DW_AT_TI_call
    1082                    
    1083 000001d4 FFFEF7FF!         BL        UART_OutUHex          ; [DPU_V7M3_PIPE] |190|  ; [KEEP 32-BIT INS]
    1084                            ; CALL OCCURS {UART_OutUHex }    ; [] |190| 
    1085                            .dwpsn  file "../UART.c",line 191,column 5,is_stmt,isa 1
    1086                    ;----------------------------------------------------------------------
    1087                    ; 191 | UART_OutUHex(number%0x10);                                             
    1088                    ; 193 | else{                                                                  
    1089                    ;----------------------------------------------------------------------
    1090 000001d8 9800              LDR       A1, [SP, #0]          ; [DPU_V7M3_PIPE] |191|  ; [ORIG 16-BIT INS]
    1091 000001da 000FF000          AND       A1, A1, #15           ; [DPU_V7M3_PIPE] |191|  ; [KEEP 32-BIT INS]
    1092                    $C$DW$44        .dwtag  DW_TAG_TI_branch
    1093                            .dwattr $C$DW$44, DW_AT_low_pc(0x00)
    1094                            .dwattr $C$DW$44, DW_AT_name("UART_OutUHex")
    1095                            .dwattr $C$DW$44, DW_AT_TI_call
    1096                    
    1097 000001de FFFEF7FF!         BL        UART_OutUHex          ; [DPU_V7M3_PIPE] |191|  ; [KEEP 32-BIT INS]
    1098                            ; CALL OCCURS {UART_OutUHex }    ; [] |191| 
    1099 000001e2 E00D              B         ||$C$L19||            ; [DPU_V7M3_PIPE]  ; [ORIG 16-BIT INS]
    1100                            ; BRANCH OCCURS {||$C$L19||}     ; [] 
TI ARM Assembler PC v20.2.7 Fri Feb 14 12:43:41 2025

Copyright (c) 1996-2018 Texas Instruments Incorporated
UART.asm                                                             PAGE   21

    1101                    ;* --------------------------------------------------------------------------*
    1102 000001e4           ||$C$L17||:    
    1103                            .dwpsn  file "../UART.c",line 194,column 5,is_stmt,isa 1
    1104                    ;----------------------------------------------------------------------
    1105                    ; 194 | if(number < 0xA){                                                      
    1106                    ;----------------------------------------------------------------------
    1107 000001e4 9800              LDR       A1, [SP, #0]          ; [DPU_V7M3_PIPE] |194|  ; [ORIG 16-BIT INS]
    1108 000001e6 280A              CMP       A1, #10               ; [DPU_V7M3_PIPE] |194|  ; [ORIG 16-BIT INS]
    1109 000001e8 D205              BCS       ||$C$L18||            ; [DPU_V7M3_PIPE] |194|  ; [ORIG 16-BIT INS]
    1110                            ; BRANCHCC OCCURS {||$C$L18||}   ; [] |194| 
    1111                    ;* --------------------------------------------------------------------------*
    1112                            .dwpsn  file "../UART.c",line 195,column 7,is_stmt,isa 1
    1113                    ;----------------------------------------------------------------------
    1114                    ; 195 | UART_OutChar(number+'0');                                              
    1115                    ; 197 | else{                                                                  
    1116                    ;----------------------------------------------------------------------
    1117 000001ea 9800              LDR       A1, [SP, #0]          ; [DPU_V7M3_PIPE] |195|  ; [ORIG 16-BIT INS]
    1118 000001ec 3030              ADDS      A1, A1, #48           ; [DPU_V7M3_PIPE] |195|  ; [ORIG 16-BIT INS]
    1119 000001ee B2C0              UXTB      A1, A1                ; [DPU_V7M3_PIPE] |195|  ; [ORIG 16-BIT INS]
    1120                    $C$DW$45        .dwtag  DW_TAG_TI_branch
    1121                            .dwattr $C$DW$45, DW_AT_low_pc(0x00)
    1122                            .dwattr $C$DW$45, DW_AT_name("UART_OutChar")
    1123                            .dwattr $C$DW$45, DW_AT_TI_call
    1124                    
    1125 000001f0 FFFEF7FF!         BL        UART_OutChar          ; [DPU_V7M3_PIPE] |195|  ; [KEEP 32-BIT INS]
    1126                            ; CALL OCCURS {UART_OutChar }    ; [] |195| 
    1127 000001f4 E004              B         ||$C$L19||            ; [DPU_V7M3_PIPE]  ; [ORIG 16-BIT INS]
    1128                            ; BRANCH OCCURS {||$C$L19||}     ; [] 
    1129                    ;* --------------------------------------------------------------------------*
    1130 000001f6           ||$C$L18||:    
    1131                            .dwpsn  file "../UART.c",line 198,column 7,is_stmt,isa 1
    1132                    ;----------------------------------------------------------------------
    1133                    ; 198 | UART_OutChar((number-0x0A)+'A');                                       
    1134                    ;----------------------------------------------------------------------
    1135 000001f6 9800              LDR       A1, [SP, #0]          ; [DPU_V7M3_PIPE] |198|  ; [ORIG 16-BIT INS]
    1136 000001f8 3037              ADDS      A1, A1, #55           ; [DPU_V7M3_PIPE] |198|  ; [ORIG 16-BIT INS]
    1137 000001fa B2C0              UXTB      A1, A1                ; [DPU_V7M3_PIPE] |198|  ; [ORIG 16-BIT INS]
    1138                    $C$DW$46        .dwtag  DW_TAG_TI_branch
    1139                            .dwattr $C$DW$46, DW_AT_low_pc(0x00)
    1140                            .dwattr $C$DW$46, DW_AT_name("UART_OutChar")
    1141                            .dwattr $C$DW$46, DW_AT_TI_call
    1142                    
    1143 000001fc FFFEF7FF!         BL        UART_OutChar          ; [DPU_V7M3_PIPE] |198|  ; [KEEP 32-BIT INS]
    1144                            ; CALL OCCURS {UART_OutChar }    ; [] |198| 
    1145                            .dwpsn  file "../UART.c",line 201,column 1,is_stmt,isa 1
    1146                    ;* --------------------------------------------------------------------------*
    1147                    ||$C$L19||:    
    1148                    $C$DW$47        .dwtag  DW_TAG_TI_branch
    1149                            .dwattr $C$DW$47, DW_AT_low_pc(0x00)
    1150                            .dwattr $C$DW$47, DW_AT_TI_return
    1151                    
    1152 00000200 BD08              POP       {A4, PC}              ; [DPU_V7M3_PIPE]  ; [ORIG 16-BIT INS]
    1153                            .dwcfi  cfa_offset, 0
    1154                            .dwcfi  restore_reg, 3
    1155                            ; BRANCH OCCURS                  ; [] 
TI ARM Assembler PC v20.2.7 Fri Feb 14 12:43:41 2025

Copyright (c) 1996-2018 Texas Instruments Incorporated
UART.asm                                                             PAGE   22

    1156                            .dwattr $C$DW$40, DW_AT_TI_end_file("../UART.c")
    1157                            .dwattr $C$DW$40, DW_AT_TI_end_line(0xc9)
    1158                            .dwattr $C$DW$40, DW_AT_TI_end_column(0x01)
    1159                            .dwendentry
    1160                            .dwendtag $C$DW$40
    1161                    
    1162 00000202                   .sect   ".text"
    1163                            .clink
    1164                            .thumbfunc UART_InString
    1165 00000202                   .thumb
    1166                            .global UART_InString
    1167                    
    1168                    $C$DW$48        .dwtag  DW_TAG_subprogram
    1169                            .dwattr $C$DW$48, DW_AT_name("UART_InString")
    1170                            .dwattr $C$DW$48, DW_AT_low_pc(UART_InString)
    1171                            .dwattr $C$DW$48, DW_AT_high_pc(0x00)
    1172                            .dwattr $C$DW$48, DW_AT_TI_symbol_name("UART_InString")
    1173                            .dwattr $C$DW$48, DW_AT_external
    1174                            .dwattr $C$DW$48, DW_AT_TI_begin_file("../UART.c")
    1175                            .dwattr $C$DW$48, DW_AT_TI_begin_line(0xd7)
    1176                            .dwattr $C$DW$48, DW_AT_TI_begin_column(0x06)
    1177                            .dwattr $C$DW$48, DW_AT_decl_file("../UART.c")
    1178                            .dwattr $C$DW$48, DW_AT_decl_line(0xd7)
    1179                            .dwattr $C$DW$48, DW_AT_decl_column(0x06)
    1180                            .dwattr $C$DW$48, DW_AT_TI_max_frame_size(0x10)
    1181                            .dwpsn  file "../UART.c",line 215,column 47,is_stmt,address UART_InString,isa 1
    1182                    
    1183                            .dwfde $C$DW$CIE, UART_InString
    1184                    $C$DW$49        .dwtag  DW_TAG_formal_parameter
    1185                            .dwattr $C$DW$49, DW_AT_name("bufPt")
    1186                            .dwattr $C$DW$49, DW_AT_TI_symbol_name("bufPt")
    1187                            .dwattr $C$DW$49, DW_AT_type(*$C$DW$T$27)
    1188                            .dwattr $C$DW$49, DW_AT_location[DW_OP_reg0]
    1189                    
    1190                    $C$DW$50        .dwtag  DW_TAG_formal_parameter
    1191                            .dwattr $C$DW$50, DW_AT_name("max")
    1192                            .dwattr $C$DW$50, DW_AT_TI_symbol_name("max")
    1193                            .dwattr $C$DW$50, DW_AT_type(*$C$DW$T$10)
    1194                            .dwattr $C$DW$50, DW_AT_location[DW_OP_reg1]
    1195                    
    1196                    
    1197                    ;*****************************************************************************
    1198                    ;* FUNCTION NAME: UART_InString                                              *
    1199                    ;*                                                                           *
    1200                    ;*   Regs Modified     : A1,A2,A3,A4,SP,LR,SR,FPEXC,FPSCR                    *
    1201                    ;*   Regs Used         : A1,A2,A3,A4,SP,LR,SR,FPEXC,FPSCR                    *
    1202                    ;*   Local Frame Size  : 0 Args + 12 Auto + 4 Save = 16 byte                 *
    1203                    ;*****************************************************************************
    1204 00000202           UART_InString:
    1205                    ;* --------------------------------------------------------------------------*
    1206                            .dwcfi  cfa_offset, 0
    1207 00000202 B50E              PUSH      {A2, A3, A4, LR}      ; [DPU_V7M3_PIPE]  ; [ORIG 16-BIT INS]
    1208                            .dwcfi  cfa_offset, 16
    1209                            .dwcfi  save_reg_to_mem, 14, -4
    1210                            .dwcfi  save_reg_to_mem, 3, -8
TI ARM Assembler PC v20.2.7 Fri Feb 14 12:43:41 2025

Copyright (c) 1996-2018 Texas Instruments Incorporated
UART.asm                                                             PAGE   23

    1211                            .dwcfi  save_reg_to_mem, 2, -12
    1212                            .dwcfi  save_reg_to_mem, 1, -16
    1213                    $C$DW$51        .dwtag  DW_TAG_variable
    1214                            .dwattr $C$DW$51, DW_AT_name("bufPt")
    1215                            .dwattr $C$DW$51, DW_AT_TI_symbol_name("bufPt")
    1216                            .dwattr $C$DW$51, DW_AT_type(*$C$DW$T$27)
    1217                            .dwattr $C$DW$51, DW_AT_location[DW_OP_breg13 0]
    1218                    
    1219                    $C$DW$52        .dwtag  DW_TAG_variable
    1220                            .dwattr $C$DW$52, DW_AT_name("length")
    1221                            .dwattr $C$DW$52, DW_AT_TI_symbol_name("length")
    1222                            .dwattr $C$DW$52, DW_AT_type(*$C$DW$T$10)
    1223                            .dwattr $C$DW$52, DW_AT_location[DW_OP_breg13 4]
    1224                    
    1225                    $C$DW$53        .dwtag  DW_TAG_variable
    1226                            .dwattr $C$DW$53, DW_AT_name("max")
    1227                            .dwattr $C$DW$53, DW_AT_TI_symbol_name("max")
    1228                            .dwattr $C$DW$53, DW_AT_type(*$C$DW$T$34)
    1229                            .dwattr $C$DW$53, DW_AT_location[DW_OP_breg13 8]
    1230                    
    1231                    $C$DW$54        .dwtag  DW_TAG_variable
    1232                            .dwattr $C$DW$54, DW_AT_name("character")
    1233                            .dwattr $C$DW$54, DW_AT_TI_symbol_name("character")
    1234                            .dwattr $C$DW$54, DW_AT_type(*$C$DW$T$6)
    1235                            .dwattr $C$DW$54, DW_AT_location[DW_OP_breg13 10]
    1236                    
    1237                    ;----------------------------------------------------------------------
    1238                    ; 215 | void UART_InString(char *bufPt, uint16_t max) {                        
    1239                    ;----------------------------------------------------------------------
    1240 00000204 1008F8AD          STRH      A2, [SP, #8]          ; [DPU_V7M3_PIPE] |215|  ; [KEEP 32-BIT INS]
    1241 00000208 9000              STR       A1, [SP, #0]          ; [DPU_V7M3_PIPE] |215|  ; [ORIG 16-BIT INS]
    1242                            .dwpsn  file "../UART.c",line 216,column 11,is_stmt,isa 1
    1243                    ;----------------------------------------------------------------------
    1244                    ; 216 | int length=0;                                                          
    1245                    ; 217 | char character;                                                        
    1246                    ;----------------------------------------------------------------------
    1247 0000020a 2000              MOVS      A1, #0                ; [DPU_V7M3_PIPE] |216|  ; [ORIG 16-BIT INS]
    1248 0000020c 9001              STR       A1, [SP, #4]          ; [DPU_V7M3_PIPE] |216|  ; [ORIG 16-BIT INS]
    1249                            .dwpsn  file "../UART.c",line 218,column 3,is_stmt,isa 1
    1250                    ;----------------------------------------------------------------------
    1251                    ; 218 | character = UART_InChar();                                             
    1252                    ;----------------------------------------------------------------------
    1253                    $C$DW$55        .dwtag  DW_TAG_TI_branch
    1254                            .dwattr $C$DW$55, DW_AT_low_pc(0x00)
    1255                            .dwattr $C$DW$55, DW_AT_name("UART_InChar")
    1256                            .dwattr $C$DW$55, DW_AT_TI_call
    1257                    
    1258 0000020e FFFEF7FF!         BL        UART_InChar           ; [DPU_V7M3_PIPE] |218|  ; [KEEP 32-BIT INS]
    1259                            ; CALL OCCURS {UART_InChar }     ; [] |218| 
    1260 00000212 000AF88D          STRB      A1, [SP, #10]         ; [DPU_V7M3_PIPE] |218|  ; [KEEP 32-BIT INS]
    1261                            .dwpsn  file "../UART.c",line 219,column 9,is_stmt,isa 1
    1262                    ;----------------------------------------------------------------------
    1263                    ; 219 | while(character != CR){                                                
    1264                    ;----------------------------------------------------------------------
    1265 00000216 000AF89D          LDRB      A1, [SP, #10]         ; [DPU_V7M3_PIPE] |219|  ; [KEEP 32-BIT INS]
TI ARM Assembler PC v20.2.7 Fri Feb 14 12:43:41 2025

Copyright (c) 1996-2018 Texas Instruments Incorporated
UART.asm                                                             PAGE   24

    1266 0000021a 280D              CMP       A1, #13               ; [DPU_V7M3_PIPE] |219|  ; [ORIG 16-BIT INS]
    1267 0000021c D023              BEQ       ||$C$L23||            ; [DPU_V7M3_PIPE] |219|  ; [ORIG 16-BIT INS]
    1268                            ; BRANCHCC OCCURS {||$C$L23||}   ; [] |219| 
    1269                    ;* --------------------------------------------------------------------------*
    1270                    ;*   BEGIN LOOP ||$C$L20||
    1271                    ;*
    1272                    ;*   Loop source line                : 219
    1273                    ;*   Loop closing brace source line  : 234
    1274                    ;*   Known Minimum Trip Count        : 1
    1275                    ;*   Known Maximum Trip Count        : 4294967295
    1276                    ;*   Known Max Trip Count Factor     : 1
    1277                    ;* --------------------------------------------------------------------------*
    1278 0000021e           ||$C$L20||:    
    1279                            .dwpsn  file "../UART.c",line 220,column 5,is_stmt,isa 1
    1280                    ;----------------------------------------------------------------------
    1281                    ; 220 | if(character == BS){                                                   
    1282                    ;----------------------------------------------------------------------
    1283 0000021e 000AF89D          LDRB      A1, [SP, #10]         ; [DPU_V7M3_PIPE] |220|  ; [KEEP 32-BIT INS]
    1284 00000222 2808              CMP       A1, #8                ; [DPU_V7M3_PIPE] |220|  ; [ORIG 16-BIT INS]
    1285 00000224 D108              BNE       ||$C$L21||            ; [DPU_V7M3_PIPE] |220|  ; [ORIG 16-BIT INS]
    1286                            ; BRANCHCC OCCURS {||$C$L21||}   ; [] |220| 
    1287                    ;* --------------------------------------------------------------------------*
    1288                            .dwpsn  file "../UART.c",line 221,column 7,is_stmt,isa 1
    1289                    ;----------------------------------------------------------------------
    1290                    ; 221 | if(length){                                                            
    1291                    ;----------------------------------------------------------------------
    1292 00000226 9801              LDR       A1, [SP, #4]          ; [DPU_V7M3_PIPE] |221|  ; [ORIG 16-BIT INS]
    1293 00000228 B1A8              CBZ       A1, ||$C$L22||        ; []  ; [ORIG 16-BIT INS]
    1294                            ; BRANCHCC OCCURS {||$C$L22||}   ; [] |221| 
    1295                    ;* --------------------------------------------------------------------------*
    1296                            .dwpsn  file "../UART.c",line 222,column 9,is_stmt,isa 1
    1297                    ;----------------------------------------------------------------------
    1298                    ; 222 | bufPt--;                                                               
    1299                    ;----------------------------------------------------------------------
    1300 0000022a 9800              LDR       A1, [SP, #0]          ; [DPU_V7M3_PIPE] |222|  ; [ORIG 16-BIT INS]
    1301 0000022c 1E40              SUBS      A1, A1, #1            ; [DPU_V7M3_PIPE] |222|  ; [ORIG 16-BIT INS]
    1302 0000022e 9000              STR       A1, [SP, #0]          ; [DPU_V7M3_PIPE] |222|  ; [ORIG 16-BIT INS]
    1303                            .dwpsn  file "../UART.c",line 223,column 9,is_stmt,isa 1
    1304                    ;----------------------------------------------------------------------
    1305                    ; 223 | length--;                                                              
    1306                    ; 224 | // UART_OutChar(BS);                                                   
    1307                    ;----------------------------------------------------------------------
    1308 00000230 9801              LDR       A1, [SP, #4]          ; [DPU_V7M3_PIPE] |223|  ; [ORIG 16-BIT INS]
    1309 00000232 1E40              SUBS      A1, A1, #1            ; [DPU_V7M3_PIPE] |223|  ; [ORIG 16-BIT INS]
    1310 00000234 9001              STR       A1, [SP, #4]          ; [DPU_V7M3_PIPE] |223|  ; [ORIG 16-BIT INS]
    1311 00000236 E00E              B         ||$C$L22||            ; [DPU_V7M3_PIPE]  ; [ORIG 16-BIT INS]
    1312                            ; BRANCH OCCURS {||$C$L22||}     ; [] 
    1313                    ;* --------------------------------------------------------------------------*
    1314 00000238           ||$C$L21||:    
    1315                            .dwpsn  file "../UART.c",line 227,column 10,is_stmt,isa 1
    1316                    ;----------------------------------------------------------------------
    1317                    ; 227 | else if(length < max){                                                 
    1318                    ;----------------------------------------------------------------------
    1319 00000238 0008F8BD          LDRH      A1, [SP, #8]          ; [DPU_V7M3_PIPE] |227|  ; [KEEP 32-BIT INS]
    1320 0000023c 9901              LDR       A2, [SP, #4]          ; [DPU_V7M3_PIPE] |227|  ; [ORIG 16-BIT INS]
TI ARM Assembler PC v20.2.7 Fri Feb 14 12:43:41 2025

Copyright (c) 1996-2018 Texas Instruments Incorporated
UART.asm                                                             PAGE   25

    1321 0000023e 4288              CMP       A1, A2                ; [DPU_V7M3_PIPE] |227|  ; [ORIG 16-BIT INS]
    1322 00000240 DD09              BLE       ||$C$L22||            ; [DPU_V7M3_PIPE] |227|  ; [ORIG 16-BIT INS]
    1323                            ; BRANCHCC OCCURS {||$C$L22||}   ; [] |227| 
    1324                    ;* --------------------------------------------------------------------------*
    1325                            .dwpsn  file "../UART.c",line 228,column 7,is_stmt,isa 1
    1326                    ;----------------------------------------------------------------------
    1327                    ; 228 | *bufPt = character;                                                    
    1328                    ;----------------------------------------------------------------------
    1329 00000242 000AF89D          LDRB      A1, [SP, #10]         ; [DPU_V7M3_PIPE] |228|  ; [KEEP 32-BIT INS]
    1330 00000246 9900              LDR       A2, [SP, #0]          ; [DPU_V7M3_PIPE] |228|  ; [ORIG 16-BIT INS]
    1331 00000248 7008              STRB      A1, [A2, #0]          ; [DPU_V7M3_PIPE] |228|  ; [ORIG 16-BIT INS]
    1332                            .dwpsn  file "../UART.c",line 229,column 7,is_stmt,isa 1
    1333                    ;----------------------------------------------------------------------
    1334                    ; 229 | bufPt++;                                                               
    1335                    ;----------------------------------------------------------------------
    1336 0000024a 9800              LDR       A1, [SP, #0]          ; [DPU_V7M3_PIPE] |229|  ; [ORIG 16-BIT INS]
    1337 0000024c 1C40              ADDS      A1, A1, #1            ; [DPU_V7M3_PIPE] |229|  ; [ORIG 16-BIT INS]
    1338 0000024e 9000              STR       A1, [SP, #0]          ; [DPU_V7M3_PIPE] |229|  ; [ORIG 16-BIT INS]
    1339                            .dwpsn  file "../UART.c",line 230,column 7,is_stmt,isa 1
    1340                    ;----------------------------------------------------------------------
    1341                    ; 230 | length++;                                                              
    1342                    ; 231 | //  UART_OutChar(character);                                           
    1343                    ;----------------------------------------------------------------------
    1344 00000250 9801              LDR       A1, [SP, #4]          ; [DPU_V7M3_PIPE] |230|  ; [ORIG 16-BIT INS]
    1345 00000252 1C40              ADDS      A1, A1, #1            ; [DPU_V7M3_PIPE] |230|  ; [ORIG 16-BIT INS]
    1346 00000254 9001              STR       A1, [SP, #4]          ; [DPU_V7M3_PIPE] |230|  ; [ORIG 16-BIT INS]
    1347                    ;* --------------------------------------------------------------------------*
    1348 00000256           ||$C$L22||:    
    1349                            .dwpsn  file "../UART.c",line 233,column 5,is_stmt,isa 1
    1350                    ;----------------------------------------------------------------------
    1351                    ; 233 | character = UART_InChar();                                             
    1352                    ;----------------------------------------------------------------------
    1353                    $C$DW$56        .dwtag  DW_TAG_TI_branch
    1354                            .dwattr $C$DW$56, DW_AT_low_pc(0x00)
    1355                            .dwattr $C$DW$56, DW_AT_name("UART_InChar")
    1356                            .dwattr $C$DW$56, DW_AT_TI_call
    1357                    
    1358 00000256 FFFEF7FF!         BL        UART_InChar           ; [DPU_V7M3_PIPE] |233|  ; [KEEP 32-BIT INS]
    1359                            ; CALL OCCURS {UART_InChar }     ; [] |233| 
    1360 0000025a 000AF88D          STRB      A1, [SP, #10]         ; [DPU_V7M3_PIPE] |233|  ; [KEEP 32-BIT INS]
    1361                            .dwpsn  file "../UART.c",line 219,column 9,is_stmt,isa 1
    1362 0000025e 000AF89D          LDRB      A1, [SP, #10]         ; [DPU_V7M3_PIPE] |219|  ; [KEEP 32-BIT INS]
    1363 00000262 280D              CMP       A1, #13               ; [DPU_V7M3_PIPE] |219|  ; [ORIG 16-BIT INS]
    1364 00000264 D1DB              BNE       ||$C$L20||            ; [DPU_V7M3_PIPE] |219|  ; [ORIG 16-BIT INS]
    1365                            ; BRANCHCC OCCURS {||$C$L20||}   ; [] |219| 
    1366                    ;* --------------------------------------------------------------------------*
    1367 00000266           ||$C$L23||:    
    1368                            .dwpsn  file "../UART.c",line 235,column 3,is_stmt,isa 1
    1369                    ;----------------------------------------------------------------------
    1370                    ; 235 | *bufPt = 0;                                                            
    1371                    ;----------------------------------------------------------------------
    1372 00000266 9800              LDR       A1, [SP, #0]          ; [DPU_V7M3_PIPE] |235|  ; [ORIG 16-BIT INS]
    1373 00000268 2100              MOVS      A2, #0                ; [DPU_V7M3_PIPE] |235|  ; [ORIG 16-BIT INS]
    1374 0000026a 7001              STRB      A2, [A1, #0]          ; [DPU_V7M3_PIPE] |235|  ; [ORIG 16-BIT INS]
    1375                            .dwpsn  file "../UART.c",line 236,column 1,is_stmt,isa 1
TI ARM Assembler PC v20.2.7 Fri Feb 14 12:43:41 2025

Copyright (c) 1996-2018 Texas Instruments Incorporated
UART.asm                                                             PAGE   26

    1376                    $C$DW$57        .dwtag  DW_TAG_TI_branch
    1377                            .dwattr $C$DW$57, DW_AT_low_pc(0x00)
    1378                            .dwattr $C$DW$57, DW_AT_TI_return
    1379                    
    1380 0000026c BD0E              POP       {A2, A3, A4, PC}      ; [DPU_V7M3_PIPE]  ; [ORIG 16-BIT INS]
    1381                            .dwcfi  cfa_offset, 0
    1382                            .dwcfi  restore_reg, 3
    1383                            .dwcfi  restore_reg, 2
    1384                            .dwcfi  restore_reg, 1
    1385                            ; BRANCH OCCURS                  ; [] 
    1386                            .dwattr $C$DW$48, DW_AT_TI_end_file("../UART.c")
    1387                            .dwattr $C$DW$48, DW_AT_TI_end_line(0xec)
    1388                            .dwattr $C$DW$48, DW_AT_TI_end_column(0x01)
    1389                            .dwendentry
    1390                            .dwendtag $C$DW$48
    1391                    
    1392                    ;******************************************************************************
    1393                    ;* CONSTANT TABLE                                                             *
    1394                    ;******************************************************************************
    1395 0000026e                   .sect   ".text"
    1396                            .align  4
    1397 0000026e C01846C0  ||$C$CON1||:    .bits           0x4000c018,32
         00000272 00004000 
    1398                    
    1399                            .align  4
    1400 00000272 C0004000  ||$C$CON2||:    .bits           0x4000c000,32
         00000276 00004000 
    1401                    
    1402                    
    1403                    ;******************************************************************************
    1404                    ;* BUILD ATTRIBUTES                                                           *
    1405                    ;******************************************************************************
    1406                            .battr "aeabi", Tag_File, 1, Tag_ABI_PCS_wchar_t(2)
    1407                            .battr "aeabi", Tag_File, 1, Tag_ABI_FP_rounding(0)
    1408                            .battr "aeabi", Tag_File, 1, Tag_ABI_FP_denormal(0)
    1409                            .battr "aeabi", Tag_File, 1, Tag_ABI_FP_exceptions(0)
    1410                            .battr "aeabi", Tag_File, 1, Tag_ABI_FP_number_model(1)
    1411                            .battr "aeabi", Tag_File, 1, Tag_ABI_enum_size(0)
    1412                            .battr "aeabi", Tag_File, 1, Tag_ABI_optimization_goals(5)
    1413                            .battr "aeabi", Tag_File, 1, Tag_ABI_FP_optimization_goals(0)
    1414                            .battr "TI", Tag_File, 1, Tag_Bitfield_layout(2)
    1415                            .battr "aeabi", Tag_File, 1, Tag_ABI_VFP_args(3)
    1416                            .battr "TI", Tag_File, 1, Tag_FP_interface(1)
    1417                    
    1418                    ;******************************************************************************
    1419                    ;* TYPE INFORMATION                                                           *
    1420                    ;******************************************************************************
    1421                    
    1422                    $C$DW$T$21      .dwtag  DW_TAG_structure_type
    1423                            .dwattr $C$DW$T$21, DW_AT_byte_size(0x10)
    1424                    $C$DW$58        .dwtag  DW_TAG_member
    1425                            .dwattr $C$DW$58, DW_AT_type(*$C$DW$T$14)
    1426                            .dwattr $C$DW$58, DW_AT_name("__max_align1")
    1427                            .dwattr $C$DW$58, DW_AT_TI_symbol_name("__max_align1")
    1428                            .dwattr $C$DW$58, DW_AT_data_member_location[DW_OP_plus_uconst 0x0]
TI ARM Assembler PC v20.2.7 Fri Feb 14 12:43:41 2025

Copyright (c) 1996-2018 Texas Instruments Incorporated
UART.asm                                                             PAGE   27

    1429                            .dwattr $C$DW$58, DW_AT_accessibility(DW_ACCESS_public)
    1430                            .dwattr $C$DW$58, DW_AT_decl_file("C:/ti/ccs1230/ccs/tools/compiler/ti-cgt-arm_20.2.7.LTS/incl
    1431                            .dwattr $C$DW$58, DW_AT_decl_line(0x7b)
    1432                            .dwattr $C$DW$58, DW_AT_decl_column(0x0c)
    1433                    
    1434                    $C$DW$59        .dwtag  DW_TAG_member
    1435                            .dwattr $C$DW$59, DW_AT_type(*$C$DW$T$18)
    1436                            .dwattr $C$DW$59, DW_AT_name("__max_align2")
    1437                            .dwattr $C$DW$59, DW_AT_TI_symbol_name("__max_align2")
    1438                            .dwattr $C$DW$59, DW_AT_data_member_location[DW_OP_plus_uconst 0x8]
    1439                            .dwattr $C$DW$59, DW_AT_accessibility(DW_ACCESS_public)
    1440                            .dwattr $C$DW$59, DW_AT_decl_file("C:/ti/ccs1230/ccs/tools/compiler/ti-cgt-arm_20.2.7.LTS/incl
    1441                            .dwattr $C$DW$59, DW_AT_decl_line(0x7c)
    1442                            .dwattr $C$DW$59, DW_AT_decl_column(0x0e)
    1443                    
    1444                            .dwattr $C$DW$T$21, DW_AT_decl_file("C:/ti/ccs1230/ccs/tools/compiler/ti-cgt-arm_20.2.7.LTS/in
    1445                            .dwattr $C$DW$T$21, DW_AT_decl_line(0x7a)
    1446                            .dwattr $C$DW$T$21, DW_AT_decl_column(0x10)
    1447                            .dwendtag $C$DW$T$21
    1448                    
    1449                    $C$DW$T$23      .dwtag  DW_TAG_typedef
    1450                            .dwattr $C$DW$T$23, DW_AT_name("__max_align_t")
    1451                            .dwattr $C$DW$T$23, DW_AT_type(*$C$DW$T$21)
    1452                            .dwattr $C$DW$T$23, DW_AT_language(DW_LANG_C)
    1453                            .dwattr $C$DW$T$23, DW_AT_decl_file("C:/ti/ccs1230/ccs/tools/compiler/ti-cgt-arm_20.2.7.LTS/in
    1454                            .dwattr $C$DW$T$23, DW_AT_decl_line(0x7d)
    1455                            .dwattr $C$DW$T$23, DW_AT_decl_column(0x03)
    1456                    
    1457                    $C$DW$T$2       .dwtag  DW_TAG_unspecified_type
    1458                            .dwattr $C$DW$T$2, DW_AT_name("void")
    1459                    
    1460                    $C$DW$T$3       .dwtag  DW_TAG_pointer_type
    1461                            .dwattr $C$DW$T$3, DW_AT_type(*$C$DW$T$2)
    1462                            .dwattr $C$DW$T$3, DW_AT_address_class(0x20)
    1463                    
    1464                    $C$DW$T$4       .dwtag  DW_TAG_base_type
    1465                            .dwattr $C$DW$T$4, DW_AT_encoding(DW_ATE_boolean)
    1466                            .dwattr $C$DW$T$4, DW_AT_name("bool")
    1467                            .dwattr $C$DW$T$4, DW_AT_byte_size(0x01)
    1468                    
    1469                    $C$DW$T$5       .dwtag  DW_TAG_base_type
    1470                            .dwattr $C$DW$T$5, DW_AT_encoding(DW_ATE_signed_char)
    1471                            .dwattr $C$DW$T$5, DW_AT_name("signed char")
    1472                            .dwattr $C$DW$T$5, DW_AT_byte_size(0x01)
    1473                    
    1474                    $C$DW$T$36      .dwtag  DW_TAG_typedef
    1475                            .dwattr $C$DW$T$36, DW_AT_name("__int8_t")
    1476                            .dwattr $C$DW$T$36, DW_AT_type(*$C$DW$T$5)
    1477                            .dwattr $C$DW$T$36, DW_AT_language(DW_LANG_C)
    1478                            .dwattr $C$DW$T$36, DW_AT_decl_file("C:/ti/ccs1230/ccs/tools/compiler/ti-cgt-arm_20.2.7.LTS/in
    1479                            .dwattr $C$DW$T$36, DW_AT_decl_line(0x4a)
    1480                            .dwattr $C$DW$T$36, DW_AT_decl_column(0x16)
    1481                    
    1482                    $C$DW$T$37      .dwtag  DW_TAG_typedef
    1483                            .dwattr $C$DW$T$37, DW_AT_name("__int_least8_t")
TI ARM Assembler PC v20.2.7 Fri Feb 14 12:43:41 2025

Copyright (c) 1996-2018 Texas Instruments Incorporated
UART.asm                                                             PAGE   28

    1484                            .dwattr $C$DW$T$37, DW_AT_type(*$C$DW$T$36)
    1485                            .dwattr $C$DW$T$37, DW_AT_language(DW_LANG_C)
    1486                            .dwattr $C$DW$T$37, DW_AT_decl_file("C:/ti/ccs1230/ccs/tools/compiler/ti-cgt-arm_20.2.7.LTS/in
    1487                            .dwattr $C$DW$T$37, DW_AT_decl_line(0x69)
    1488                            .dwattr $C$DW$T$37, DW_AT_decl_column(0x12)
    1489                    
    1490                    $C$DW$T$38      .dwtag  DW_TAG_typedef
    1491                            .dwattr $C$DW$T$38, DW_AT_name("int_least8_t")
    1492                            .dwattr $C$DW$T$38, DW_AT_type(*$C$DW$T$37)
    1493                            .dwattr $C$DW$T$38, DW_AT_language(DW_LANG_C)
    1494                            .dwattr $C$DW$T$38, DW_AT_decl_file("C:/ti/ccs1230/ccs/tools/compiler/ti-cgt-arm_20.2.7.LTS/in
    1495                            .dwattr $C$DW$T$38, DW_AT_decl_line(0x2a)
    1496                            .dwattr $C$DW$T$38, DW_AT_decl_column(0x19)
    1497                    
    1498                    $C$DW$T$39      .dwtag  DW_TAG_typedef
    1499                            .dwattr $C$DW$T$39, DW_AT_name("int8_t")
    1500                            .dwattr $C$DW$T$39, DW_AT_type(*$C$DW$T$36)
    1501                            .dwattr $C$DW$T$39, DW_AT_language(DW_LANG_C)
    1502                            .dwattr $C$DW$T$39, DW_AT_decl_file("C:/ti/ccs1230/ccs/tools/compiler/ti-cgt-arm_20.2.7.LTS/in
    1503                            .dwattr $C$DW$T$39, DW_AT_decl_line(0x25)
    1504                            .dwattr $C$DW$T$39, DW_AT_decl_column(0x13)
    1505                    
    1506                    $C$DW$T$6       .dwtag  DW_TAG_base_type
    1507                            .dwattr $C$DW$T$6, DW_AT_encoding(DW_ATE_unsigned_char)
    1508                            .dwattr $C$DW$T$6, DW_AT_name("unsigned char")
    1509                            .dwattr $C$DW$T$6, DW_AT_byte_size(0x01)
    1510                    
    1511                    $C$DW$T$40      .dwtag  DW_TAG_typedef
    1512                            .dwattr $C$DW$T$40, DW_AT_name("__uint8_t")
    1513                            .dwattr $C$DW$T$40, DW_AT_type(*$C$DW$T$6)
    1514                            .dwattr $C$DW$T$40, DW_AT_language(DW_LANG_C)
    1515                            .dwattr $C$DW$T$40, DW_AT_decl_file("C:/ti/ccs1230/ccs/tools/compiler/ti-cgt-arm_20.2.7.LTS/in
    1516                            .dwattr $C$DW$T$40, DW_AT_decl_line(0x4b)
    1517                            .dwattr $C$DW$T$40, DW_AT_decl_column(0x18)
    1518                    
    1519                    $C$DW$T$41      .dwtag  DW_TAG_typedef
    1520                            .dwattr $C$DW$T$41, DW_AT_name("__sa_family_t")
    1521                            .dwattr $C$DW$T$41, DW_AT_type(*$C$DW$T$40)
    1522                            .dwattr $C$DW$T$41, DW_AT_language(DW_LANG_C)
    1523                            .dwattr $C$DW$T$41, DW_AT_decl_file("C:/ti/ccs1230/ccs/tools/compiler/ti-cgt-arm_20.2.7.LTS/in
    1524                            .dwattr $C$DW$T$41, DW_AT_decl_line(0x47)
    1525                            .dwattr $C$DW$T$41, DW_AT_decl_column(0x13)
    1526                    
    1527                    $C$DW$T$42      .dwtag  DW_TAG_typedef
    1528                            .dwattr $C$DW$T$42, DW_AT_name("__uint_least8_t")
    1529                            .dwattr $C$DW$T$42, DW_AT_type(*$C$DW$T$40)
    1530                            .dwattr $C$DW$T$42, DW_AT_language(DW_LANG_C)
    1531                            .dwattr $C$DW$T$42, DW_AT_decl_file("C:/ti/ccs1230/ccs/tools/compiler/ti-cgt-arm_20.2.7.LTS/in
    1532                            .dwattr $C$DW$T$42, DW_AT_decl_line(0x7f)
    1533                            .dwattr $C$DW$T$42, DW_AT_decl_column(0x13)
    1534                    
    1535                    $C$DW$T$43      .dwtag  DW_TAG_typedef
    1536                            .dwattr $C$DW$T$43, DW_AT_name("uint_least8_t")
    1537                            .dwattr $C$DW$T$43, DW_AT_type(*$C$DW$T$42)
    1538                            .dwattr $C$DW$T$43, DW_AT_language(DW_LANG_C)
TI ARM Assembler PC v20.2.7 Fri Feb 14 12:43:41 2025

Copyright (c) 1996-2018 Texas Instruments Incorporated
UART.asm                                                             PAGE   29

    1539                            .dwattr $C$DW$T$43, DW_AT_decl_file("C:/ti/ccs1230/ccs/tools/compiler/ti-cgt-arm_20.2.7.LTS/in
    1540                            .dwattr $C$DW$T$43, DW_AT_decl_line(0x2f)
    1541                            .dwattr $C$DW$T$43, DW_AT_decl_column(0x1a)
    1542                    
    1543                    $C$DW$T$44      .dwtag  DW_TAG_typedef
    1544                            .dwattr $C$DW$T$44, DW_AT_name("uint8_t")
    1545                            .dwattr $C$DW$T$44, DW_AT_type(*$C$DW$T$40)
    1546                            .dwattr $C$DW$T$44, DW_AT_language(DW_LANG_C)
    1547                            .dwattr $C$DW$T$44, DW_AT_decl_file("C:/ti/ccs1230/ccs/tools/compiler/ti-cgt-arm_20.2.7.LTS/in
    1548                            .dwattr $C$DW$T$44, DW_AT_decl_line(0x3b)
    1549                            .dwattr $C$DW$T$44, DW_AT_decl_column(0x14)
    1550                    
    1551                    $C$DW$T$7       .dwtag  DW_TAG_base_type
    1552                            .dwattr $C$DW$T$7, DW_AT_encoding(DW_ATE_signed_char)
    1553                            .dwattr $C$DW$T$7, DW_AT_name("wchar_t")
    1554                            .dwattr $C$DW$T$7, DW_AT_byte_size(0x02)
    1555                    
    1556                    $C$DW$T$8       .dwtag  DW_TAG_base_type
    1557                            .dwattr $C$DW$T$8, DW_AT_encoding(DW_ATE_signed)
    1558                            .dwattr $C$DW$T$8, DW_AT_name("short")
    1559                            .dwattr $C$DW$T$8, DW_AT_byte_size(0x02)
    1560                    
    1561                    $C$DW$T$45      .dwtag  DW_TAG_typedef
    1562                            .dwattr $C$DW$T$45, DW_AT_name("__int16_t")
    1563                            .dwattr $C$DW$T$45, DW_AT_type(*$C$DW$T$8)
    1564                            .dwattr $C$DW$T$45, DW_AT_language(DW_LANG_C)
    1565                            .dwattr $C$DW$T$45, DW_AT_decl_file("C:/ti/ccs1230/ccs/tools/compiler/ti-cgt-arm_20.2.7.LTS/in
    1566                            .dwattr $C$DW$T$45, DW_AT_decl_line(0x4c)
    1567                            .dwattr $C$DW$T$45, DW_AT_decl_column(0x11)
    1568                    
    1569                    $C$DW$T$46      .dwtag  DW_TAG_typedef
    1570                            .dwattr $C$DW$T$46, DW_AT_name("__int_least16_t")
    1571                            .dwattr $C$DW$T$46, DW_AT_type(*$C$DW$T$45)
    1572                            .dwattr $C$DW$T$46, DW_AT_language(DW_LANG_C)
    1573                            .dwattr $C$DW$T$46, DW_AT_decl_file("C:/ti/ccs1230/ccs/tools/compiler/ti-cgt-arm_20.2.7.LTS/in
    1574                            .dwattr $C$DW$T$46, DW_AT_decl_line(0x6a)
    1575                            .dwattr $C$DW$T$46, DW_AT_decl_column(0x13)
    1576                    
    1577                    $C$DW$T$47      .dwtag  DW_TAG_typedef
    1578                            .dwattr $C$DW$T$47, DW_AT_name("int_least16_t")
    1579                            .dwattr $C$DW$T$47, DW_AT_type(*$C$DW$T$46)
    1580                            .dwattr $C$DW$T$47, DW_AT_language(DW_LANG_C)
    1581                            .dwattr $C$DW$T$47, DW_AT_decl_file("C:/ti/ccs1230/ccs/tools/compiler/ti-cgt-arm_20.2.7.LTS/in
    1582                            .dwattr $C$DW$T$47, DW_AT_decl_line(0x2b)
    1583                            .dwattr $C$DW$T$47, DW_AT_decl_column(0x1a)
    1584                    
    1585                    $C$DW$T$48      .dwtag  DW_TAG_typedef
    1586                            .dwattr $C$DW$T$48, DW_AT_name("int16_t")
    1587                            .dwattr $C$DW$T$48, DW_AT_type(*$C$DW$T$45)
    1588                            .dwattr $C$DW$T$48, DW_AT_language(DW_LANG_C)
    1589                            .dwattr $C$DW$T$48, DW_AT_decl_file("C:/ti/ccs1230/ccs/tools/compiler/ti-cgt-arm_20.2.7.LTS/in
    1590                            .dwattr $C$DW$T$48, DW_AT_decl_line(0x2b)
    1591                            .dwattr $C$DW$T$48, DW_AT_decl_column(0x14)
    1592                    
    1593                    $C$DW$T$9       .dwtag  DW_TAG_base_type
TI ARM Assembler PC v20.2.7 Fri Feb 14 12:43:41 2025

Copyright (c) 1996-2018 Texas Instruments Incorporated
UART.asm                                                             PAGE   30

    1594                            .dwattr $C$DW$T$9, DW_AT_encoding(DW_ATE_unsigned)
    1595                            .dwattr $C$DW$T$9, DW_AT_name("unsigned short")
    1596                            .dwattr $C$DW$T$9, DW_AT_byte_size(0x02)
    1597                    
    1598                    $C$DW$T$49      .dwtag  DW_TAG_typedef
    1599                            .dwattr $C$DW$T$49, DW_AT_name("___wchar_t")
    1600                            .dwattr $C$DW$T$49, DW_AT_type(*$C$DW$T$9)
    1601                            .dwattr $C$DW$T$49, DW_AT_language(DW_LANG_C)
    1602                            .dwattr $C$DW$T$49, DW_AT_decl_file("C:/ti/ccs1230/ccs/tools/compiler/ti-cgt-arm_20.2.7.LTS/in
    1603                            .dwattr $C$DW$T$49, DW_AT_decl_line(0x8b)
    1604                            .dwattr $C$DW$T$49, DW_AT_decl_column(0x1a)
    1605                    
    1606                    $C$DW$T$33      .dwtag  DW_TAG_typedef
    1607                            .dwattr $C$DW$T$33, DW_AT_name("__uint16_t")
    1608                            .dwattr $C$DW$T$33, DW_AT_type(*$C$DW$T$9)
    1609                            .dwattr $C$DW$T$33, DW_AT_language(DW_LANG_C)
    1610                            .dwattr $C$DW$T$33, DW_AT_decl_file("C:/ti/ccs1230/ccs/tools/compiler/ti-cgt-arm_20.2.7.LTS/in
    1611                            .dwattr $C$DW$T$33, DW_AT_decl_line(0x4d)
    1612                            .dwattr $C$DW$T$33, DW_AT_decl_column(0x19)
    1613                    
    1614                    $C$DW$T$50      .dwtag  DW_TAG_typedef
    1615                            .dwattr $C$DW$T$50, DW_AT_name("__mode_t")
    1616                            .dwattr $C$DW$T$50, DW_AT_type(*$C$DW$T$33)
    1617                            .dwattr $C$DW$T$50, DW_AT_language(DW_LANG_C)
    1618                            .dwattr $C$DW$T$50, DW_AT_decl_file("C:/ti/ccs1230/ccs/tools/compiler/ti-cgt-arm_20.2.7.LTS/in
    1619                            .dwattr $C$DW$T$50, DW_AT_decl_line(0x3a)
    1620                            .dwattr $C$DW$T$50, DW_AT_decl_column(0x14)
    1621                    
    1622                    $C$DW$T$51      .dwtag  DW_TAG_typedef
    1623                            .dwattr $C$DW$T$51, DW_AT_name("__uint_least16_t")
    1624                            .dwattr $C$DW$T$51, DW_AT_type(*$C$DW$T$33)
    1625                            .dwattr $C$DW$T$51, DW_AT_language(DW_LANG_C)
    1626                            .dwattr $C$DW$T$51, DW_AT_decl_file("C:/ti/ccs1230/ccs/tools/compiler/ti-cgt-arm_20.2.7.LTS/in
    1627                            .dwattr $C$DW$T$51, DW_AT_decl_line(0x80)
    1628                            .dwattr $C$DW$T$51, DW_AT_decl_column(0x14)
    1629                    
    1630                    $C$DW$T$52      .dwtag  DW_TAG_typedef
    1631                            .dwattr $C$DW$T$52, DW_AT_name("__char16_t")
    1632                            .dwattr $C$DW$T$52, DW_AT_type(*$C$DW$T$51)
    1633                            .dwattr $C$DW$T$52, DW_AT_language(DW_LANG_C)
    1634                            .dwattr $C$DW$T$52, DW_AT_decl_file("C:/ti/ccs1230/ccs/tools/compiler/ti-cgt-arm_20.2.7.LTS/in
    1635                            .dwattr $C$DW$T$52, DW_AT_decl_line(0x71)
    1636                            .dwattr $C$DW$T$52, DW_AT_decl_column(0x1a)
    1637                    
    1638                    $C$DW$T$53      .dwtag  DW_TAG_typedef
    1639                            .dwattr $C$DW$T$53, DW_AT_name("uint_least16_t")
    1640                            .dwattr $C$DW$T$53, DW_AT_type(*$C$DW$T$51)
    1641                            .dwattr $C$DW$T$53, DW_AT_language(DW_LANG_C)
    1642                            .dwattr $C$DW$T$53, DW_AT_decl_file("C:/ti/ccs1230/ccs/tools/compiler/ti-cgt-arm_20.2.7.LTS/in
    1643                            .dwattr $C$DW$T$53, DW_AT_decl_line(0x30)
    1644                            .dwattr $C$DW$T$53, DW_AT_decl_column(0x1a)
    1645                    
    1646                    $C$DW$T$34      .dwtag  DW_TAG_typedef
    1647                            .dwattr $C$DW$T$34, DW_AT_name("uint16_t")
    1648                            .dwattr $C$DW$T$34, DW_AT_type(*$C$DW$T$33)
TI ARM Assembler PC v20.2.7 Fri Feb 14 12:43:41 2025

Copyright (c) 1996-2018 Texas Instruments Incorporated
UART.asm                                                             PAGE   31

    1649                            .dwattr $C$DW$T$34, DW_AT_language(DW_LANG_C)
    1650                            .dwattr $C$DW$T$34, DW_AT_decl_file("C:/ti/ccs1230/ccs/tools/compiler/ti-cgt-arm_20.2.7.LTS/in
    1651                            .dwattr $C$DW$T$34, DW_AT_decl_line(0x41)
    1652                            .dwattr $C$DW$T$34, DW_AT_decl_column(0x15)
    1653                    
    1654                    $C$DW$T$10      .dwtag  DW_TAG_base_type
    1655                            .dwattr $C$DW$T$10, DW_AT_encoding(DW_ATE_signed)
    1656                            .dwattr $C$DW$T$10, DW_AT_name("int")
    1657                            .dwattr $C$DW$T$10, DW_AT_byte_size(0x04)
    1658                    
    1659                    $C$DW$T$54      .dwtag  DW_TAG_typedef
    1660                            .dwattr $C$DW$T$54, DW_AT_name("_Mbstatet")
    1661                            .dwattr $C$DW$T$54, DW_AT_type(*$C$DW$T$10)
    1662                            .dwattr $C$DW$T$54, DW_AT_language(DW_LANG_C)
    1663                            .dwattr $C$DW$T$54, DW_AT_decl_file("C:/ti/ccs1230/ccs/tools/compiler/ti-cgt-arm_20.2.7.LTS/in
    1664                            .dwattr $C$DW$T$54, DW_AT_decl_line(0x8f)
    1665                            .dwattr $C$DW$T$54, DW_AT_decl_column(0x0d)
    1666                    
    1667                    $C$DW$T$55      .dwtag  DW_TAG_typedef
    1668                            .dwattr $C$DW$T$55, DW_AT_name("__mbstate_t")
    1669                            .dwattr $C$DW$T$55, DW_AT_type(*$C$DW$T$54)
    1670                            .dwattr $C$DW$T$55, DW_AT_language(DW_LANG_C)
    1671                            .dwattr $C$DW$T$55, DW_AT_decl_file("C:/ti/ccs1230/ccs/tools/compiler/ti-cgt-arm_20.2.7.LTS/in
    1672                            .dwattr $C$DW$T$55, DW_AT_decl_line(0x92)
    1673                            .dwattr $C$DW$T$55, DW_AT_decl_column(0x13)
    1674                    
    1675                    $C$DW$T$56      .dwtag  DW_TAG_typedef
    1676                            .dwattr $C$DW$T$56, DW_AT_name("__accmode_t")
    1677                            .dwattr $C$DW$T$56, DW_AT_type(*$C$DW$T$10)
    1678                            .dwattr $C$DW$T$56, DW_AT_language(DW_LANG_C)
    1679                            .dwattr $C$DW$T$56, DW_AT_decl_file("C:/ti/ccs1230/ccs/tools/compiler/ti-cgt-arm_20.2.7.LTS/in
    1680                            .dwattr $C$DW$T$56, DW_AT_decl_line(0x3b)
    1681                            .dwattr $C$DW$T$56, DW_AT_decl_column(0x0e)
    1682                    
    1683                    $C$DW$T$57      .dwtag  DW_TAG_typedef
    1684                            .dwattr $C$DW$T$57, DW_AT_name("__cpulevel_t")
    1685                            .dwattr $C$DW$T$57, DW_AT_type(*$C$DW$T$10)
    1686                            .dwattr $C$DW$T$57, DW_AT_language(DW_LANG_C)
    1687                            .dwattr $C$DW$T$57, DW_AT_decl_file("C:/ti/ccs1230/ccs/tools/compiler/ti-cgt-arm_20.2.7.LTS/in
    1688                            .dwattr $C$DW$T$57, DW_AT_decl_line(0x50)
    1689                            .dwattr $C$DW$T$57, DW_AT_decl_column(0x0e)
    1690                    
    1691                    $C$DW$T$58      .dwtag  DW_TAG_typedef
    1692                            .dwattr $C$DW$T$58, DW_AT_name("__cpusetid_t")
    1693                            .dwattr $C$DW$T$58, DW_AT_type(*$C$DW$T$10)
    1694                            .dwattr $C$DW$T$58, DW_AT_language(DW_LANG_C)
    1695                            .dwattr $C$DW$T$58, DW_AT_decl_file("C:/ti/ccs1230/ccs/tools/compiler/ti-cgt-arm_20.2.7.LTS/in
    1696                            .dwattr $C$DW$T$58, DW_AT_decl_line(0x51)
    1697                            .dwattr $C$DW$T$58, DW_AT_decl_column(0x0e)
    1698                    
    1699                    $C$DW$T$59      .dwtag  DW_TAG_typedef
    1700                            .dwattr $C$DW$T$59, DW_AT_name("__cpuwhich_t")
    1701                            .dwattr $C$DW$T$59, DW_AT_type(*$C$DW$T$10)
    1702                            .dwattr $C$DW$T$59, DW_AT_language(DW_LANG_C)
    1703                            .dwattr $C$DW$T$59, DW_AT_decl_file("C:/ti/ccs1230/ccs/tools/compiler/ti-cgt-arm_20.2.7.LTS/in
TI ARM Assembler PC v20.2.7 Fri Feb 14 12:43:41 2025

Copyright (c) 1996-2018 Texas Instruments Incorporated
UART.asm                                                             PAGE   32

    1704                            .dwattr $C$DW$T$59, DW_AT_decl_line(0x4f)
    1705                            .dwattr $C$DW$T$59, DW_AT_decl_column(0x0e)
    1706                    
    1707                    $C$DW$T$60      .dwtag  DW_TAG_typedef
    1708                            .dwattr $C$DW$T$60, DW_AT_name("__ct_rune_t")
    1709                            .dwattr $C$DW$T$60, DW_AT_type(*$C$DW$T$10)
    1710                            .dwattr $C$DW$T$60, DW_AT_language(DW_LANG_C)
    1711                            .dwattr $C$DW$T$60, DW_AT_decl_file("C:/ti/ccs1230/ccs/tools/compiler/ti-cgt-arm_20.2.7.LTS/in
    1712                            .dwattr $C$DW$T$60, DW_AT_decl_line(0x69)
    1713                            .dwattr $C$DW$T$60, DW_AT_decl_column(0x0e)
    1714                    
    1715                    $C$DW$T$61      .dwtag  DW_TAG_typedef
    1716                            .dwattr $C$DW$T$61, DW_AT_name("__rune_t")
    1717                            .dwattr $C$DW$T$61, DW_AT_type(*$C$DW$T$60)
    1718                            .dwattr $C$DW$T$61, DW_AT_language(DW_LANG_C)
    1719                            .dwattr $C$DW$T$61, DW_AT_decl_file("C:/ti/ccs1230/ccs/tools/compiler/ti-cgt-arm_20.2.7.LTS/in
    1720                            .dwattr $C$DW$T$61, DW_AT_decl_line(0x6c)
    1721                            .dwattr $C$DW$T$61, DW_AT_decl_column(0x15)
    1722                    
    1723                    $C$DW$T$62      .dwtag  DW_TAG_typedef
    1724                            .dwattr $C$DW$T$62, DW_AT_name("__wint_t")
    1725                            .dwattr $C$DW$T$62, DW_AT_type(*$C$DW$T$60)
    1726                            .dwattr $C$DW$T$62, DW_AT_language(DW_LANG_C)
    1727                            .dwattr $C$DW$T$62, DW_AT_decl_file("C:/ti/ccs1230/ccs/tools/compiler/ti-cgt-arm_20.2.7.LTS/in
    1728                            .dwattr $C$DW$T$62, DW_AT_decl_line(0x6d)
    1729                            .dwattr $C$DW$T$62, DW_AT_decl_column(0x15)
    1730                    
    1731                    $C$DW$T$63      .dwtag  DW_TAG_typedef
    1732                            .dwattr $C$DW$T$63, DW_AT_name("__int32_t")
    1733                            .dwattr $C$DW$T$63, DW_AT_type(*$C$DW$T$10)
    1734                            .dwattr $C$DW$T$63, DW_AT_language(DW_LANG_C)
    1735                            .dwattr $C$DW$T$63, DW_AT_decl_file("C:/ti/ccs1230/ccs/tools/compiler/ti-cgt-arm_20.2.7.LTS/in
    1736                            .dwattr $C$DW$T$63, DW_AT_decl_line(0x4e)
    1737                            .dwattr $C$DW$T$63, DW_AT_decl_column(0x0f)
    1738                    
    1739                    $C$DW$T$64      .dwtag  DW_TAG_typedef
    1740                            .dwattr $C$DW$T$64, DW_AT_name("__blksize_t")
    1741                            .dwattr $C$DW$T$64, DW_AT_type(*$C$DW$T$63)
    1742                            .dwattr $C$DW$T$64, DW_AT_language(DW_LANG_C)
    1743                            .dwattr $C$DW$T$64, DW_AT_decl_file("C:/ti/ccs1230/ccs/tools/compiler/ti-cgt-arm_20.2.7.LTS/in
    1744                            .dwattr $C$DW$T$64, DW_AT_decl_line(0x2f)
    1745                            .dwattr $C$DW$T$64, DW_AT_decl_column(0x13)
    1746                    
    1747                    $C$DW$T$65      .dwtag  DW_TAG_typedef
    1748                            .dwattr $C$DW$T$65, DW_AT_name("__clockid_t")
    1749                            .dwattr $C$DW$T$65, DW_AT_type(*$C$DW$T$63)
    1750                            .dwattr $C$DW$T$65, DW_AT_language(DW_LANG_C)
    1751                            .dwattr $C$DW$T$65, DW_AT_decl_file("C:/ti/ccs1230/ccs/tools/compiler/ti-cgt-arm_20.2.7.LTS/in
    1752                            .dwattr $C$DW$T$65, DW_AT_decl_line(0x31)
    1753                            .dwattr $C$DW$T$65, DW_AT_decl_column(0x13)
    1754                    
    1755                    $C$DW$T$66      .dwtag  DW_TAG_typedef
    1756                            .dwattr $C$DW$T$66, DW_AT_name("__critical_t")
    1757                            .dwattr $C$DW$T$66, DW_AT_type(*$C$DW$T$63)
    1758                            .dwattr $C$DW$T$66, DW_AT_language(DW_LANG_C)
TI ARM Assembler PC v20.2.7 Fri Feb 14 12:43:41 2025

Copyright (c) 1996-2018 Texas Instruments Incorporated
UART.asm                                                             PAGE   33

    1759                            .dwattr $C$DW$T$66, DW_AT_decl_file("C:/ti/ccs1230/ccs/tools/compiler/ti-cgt-arm_20.2.7.LTS/in
    1760                            .dwattr $C$DW$T$66, DW_AT_decl_line(0x5f)
    1761                            .dwattr $C$DW$T$66, DW_AT_decl_column(0x13)
    1762                    
    1763                    $C$DW$T$67      .dwtag  DW_TAG_typedef
    1764                            .dwattr $C$DW$T$67, DW_AT_name("__int_fast16_t")
    1765                            .dwattr $C$DW$T$67, DW_AT_type(*$C$DW$T$63)
    1766                            .dwattr $C$DW$T$67, DW_AT_language(DW_LANG_C)
    1767                            .dwattr $C$DW$T$67, DW_AT_decl_file("C:/ti/ccs1230/ccs/tools/compiler/ti-cgt-arm_20.2.7.LTS/in
    1768                            .dwattr $C$DW$T$67, DW_AT_decl_line(0x66)
    1769                            .dwattr $C$DW$T$67, DW_AT_decl_column(0x13)
    1770                    
    1771                    $C$DW$T$68      .dwtag  DW_TAG_typedef
    1772                            .dwattr $C$DW$T$68, DW_AT_name("int_fast16_t")
    1773                            .dwattr $C$DW$T$68, DW_AT_type(*$C$DW$T$67)
    1774                            .dwattr $C$DW$T$68, DW_AT_language(DW_LANG_C)
    1775                            .dwattr $C$DW$T$68, DW_AT_decl_file("C:/ti/ccs1230/ccs/tools/compiler/ti-cgt-arm_20.2.7.LTS/in
    1776                            .dwattr $C$DW$T$68, DW_AT_decl_line(0x35)
    1777                            .dwattr $C$DW$T$68, DW_AT_decl_column(0x19)
    1778                    
    1779                    $C$DW$T$69      .dwtag  DW_TAG_typedef
    1780                            .dwattr $C$DW$T$69, DW_AT_name("__int_fast32_t")
    1781                            .dwattr $C$DW$T$69, DW_AT_type(*$C$DW$T$63)
    1782                            .dwattr $C$DW$T$69, DW_AT_language(DW_LANG_C)
    1783                            .dwattr $C$DW$T$69, DW_AT_decl_file("C:/ti/ccs1230/ccs/tools/compiler/ti-cgt-arm_20.2.7.LTS/in
    1784                            .dwattr $C$DW$T$69, DW_AT_decl_line(0x67)
    1785                            .dwattr $C$DW$T$69, DW_AT_decl_column(0x13)
    1786                    
    1787                    $C$DW$T$70      .dwtag  DW_TAG_typedef
    1788                            .dwattr $C$DW$T$70, DW_AT_name("int_fast32_t")
    1789                            .dwattr $C$DW$T$70, DW_AT_type(*$C$DW$T$69)
    1790                            .dwattr $C$DW$T$70, DW_AT_language(DW_LANG_C)
    1791                            .dwattr $C$DW$T$70, DW_AT_decl_file("C:/ti/ccs1230/ccs/tools/compiler/ti-cgt-arm_20.2.7.LTS/in
    1792                            .dwattr $C$DW$T$70, DW_AT_decl_line(0x36)
    1793                            .dwattr $C$DW$T$70, DW_AT_decl_column(0x19)
    1794                    
    1795                    $C$DW$T$71      .dwtag  DW_TAG_typedef
    1796                            .dwattr $C$DW$T$71, DW_AT_name("__int_fast8_t")
    1797                            .dwattr $C$DW$T$71, DW_AT_type(*$C$DW$T$63)
    1798                            .dwattr $C$DW$T$71, DW_AT_language(DW_LANG_C)
    1799                            .dwattr $C$DW$T$71, DW_AT_decl_file("C:/ti/ccs1230/ccs/tools/compiler/ti-cgt-arm_20.2.7.LTS/in
    1800                            .dwattr $C$DW$T$71, DW_AT_decl_line(0x65)
    1801                            .dwattr $C$DW$T$71, DW_AT_decl_column(0x13)
    1802                    
    1803                    $C$DW$T$72      .dwtag  DW_TAG_typedef
    1804                            .dwattr $C$DW$T$72, DW_AT_name("int_fast8_t")
    1805                            .dwattr $C$DW$T$72, DW_AT_type(*$C$DW$T$71)
    1806                            .dwattr $C$DW$T$72, DW_AT_language(DW_LANG_C)
    1807                            .dwattr $C$DW$T$72, DW_AT_decl_file("C:/ti/ccs1230/ccs/tools/compiler/ti-cgt-arm_20.2.7.LTS/in
    1808                            .dwattr $C$DW$T$72, DW_AT_decl_line(0x34)
    1809                            .dwattr $C$DW$T$72, DW_AT_decl_column(0x18)
    1810                    
    1811                    $C$DW$T$73      .dwtag  DW_TAG_typedef
    1812                            .dwattr $C$DW$T$73, DW_AT_name("__int_least32_t")
    1813                            .dwattr $C$DW$T$73, DW_AT_type(*$C$DW$T$63)
TI ARM Assembler PC v20.2.7 Fri Feb 14 12:43:41 2025

Copyright (c) 1996-2018 Texas Instruments Incorporated
UART.asm                                                             PAGE   34

    1814                            .dwattr $C$DW$T$73, DW_AT_language(DW_LANG_C)
    1815                            .dwattr $C$DW$T$73, DW_AT_decl_file("C:/ti/ccs1230/ccs/tools/compiler/ti-cgt-arm_20.2.7.LTS/in
    1816                            .dwattr $C$DW$T$73, DW_AT_decl_line(0x6b)
    1817                            .dwattr $C$DW$T$73, DW_AT_decl_column(0x13)
    1818                    
    1819                    $C$DW$T$74      .dwtag  DW_TAG_typedef
    1820                            .dwattr $C$DW$T$74, DW_AT_name("int_least32_t")
    1821                            .dwattr $C$DW$T$74, DW_AT_type(*$C$DW$T$73)
    1822                            .dwattr $C$DW$T$74, DW_AT_language(DW_LANG_C)
    1823                            .dwattr $C$DW$T$74, DW_AT_decl_file("C:/ti/ccs1230/ccs/tools/compiler/ti-cgt-arm_20.2.7.LTS/in
    1824                            .dwattr $C$DW$T$74, DW_AT_decl_line(0x2c)
    1825                            .dwattr $C$DW$T$74, DW_AT_decl_column(0x1a)
    1826                    
    1827                    $C$DW$T$75      .dwtag  DW_TAG_typedef
    1828                            .dwattr $C$DW$T$75, DW_AT_name("__intfptr_t")
    1829                            .dwattr $C$DW$T$75, DW_AT_type(*$C$DW$T$63)
    1830                            .dwattr $C$DW$T$75, DW_AT_language(DW_LANG_C)
    1831                            .dwattr $C$DW$T$75, DW_AT_decl_file("C:/ti/ccs1230/ccs/tools/compiler/ti-cgt-arm_20.2.7.LTS/in
    1832                            .dwattr $C$DW$T$75, DW_AT_decl_line(0x62)
    1833                            .dwattr $C$DW$T$75, DW_AT_decl_column(0x13)
    1834                    
    1835                    $C$DW$T$76      .dwtag  DW_TAG_typedef
    1836                            .dwattr $C$DW$T$76, DW_AT_name("__intptr_t")
    1837                            .dwattr $C$DW$T$76, DW_AT_type(*$C$DW$T$63)
    1838                            .dwattr $C$DW$T$76, DW_AT_language(DW_LANG_C)
    1839                            .dwattr $C$DW$T$76, DW_AT_decl_file("C:/ti/ccs1230/ccs/tools/compiler/ti-cgt-arm_20.2.7.LTS/in
    1840                            .dwattr $C$DW$T$76, DW_AT_decl_line(0x64)
    1841                            .dwattr $C$DW$T$76, DW_AT_decl_column(0x13)
    1842                    
    1843                    $C$DW$T$77      .dwtag  DW_TAG_typedef
    1844                            .dwattr $C$DW$T$77, DW_AT_name("intptr_t")
    1845                            .dwattr $C$DW$T$77, DW_AT_type(*$C$DW$T$76)
    1846                            .dwattr $C$DW$T$77, DW_AT_language(DW_LANG_C)
    1847                            .dwattr $C$DW$T$77, DW_AT_decl_file("C:/ti/ccs1230/ccs/tools/compiler/ti-cgt-arm_20.2.7.LTS/in
    1848                            .dwattr $C$DW$T$77, DW_AT_decl_line(0x50)
    1849                            .dwattr $C$DW$T$77, DW_AT_decl_column(0x15)
    1850                    
    1851                    $C$DW$T$78      .dwtag  DW_TAG_typedef
    1852                            .dwattr $C$DW$T$78, DW_AT_name("__lwpid_t")
    1853                            .dwattr $C$DW$T$78, DW_AT_type(*$C$DW$T$63)
    1854                            .dwattr $C$DW$T$78, DW_AT_language(DW_LANG_C)
    1855                            .dwattr $C$DW$T$78, DW_AT_decl_file("C:/ti/ccs1230/ccs/tools/compiler/ti-cgt-arm_20.2.7.LTS/in
    1856                            .dwattr $C$DW$T$78, DW_AT_decl_line(0x39)
    1857                            .dwattr $C$DW$T$78, DW_AT_decl_column(0x13)
    1858                    
    1859                    $C$DW$T$79      .dwtag  DW_TAG_typedef
    1860                            .dwattr $C$DW$T$79, DW_AT_name("__pid_t")
    1861                            .dwattr $C$DW$T$79, DW_AT_type(*$C$DW$T$63)
    1862                            .dwattr $C$DW$T$79, DW_AT_language(DW_LANG_C)
    1863                            .dwattr $C$DW$T$79, DW_AT_decl_file("C:/ti/ccs1230/ccs/tools/compiler/ti-cgt-arm_20.2.7.LTS/in
    1864                            .dwattr $C$DW$T$79, DW_AT_decl_line(0x40)
    1865                            .dwattr $C$DW$T$79, DW_AT_decl_column(0x13)
    1866                    
    1867                    $C$DW$T$80      .dwtag  DW_TAG_typedef
    1868                            .dwattr $C$DW$T$80, DW_AT_name("__ptrdiff_t")
TI ARM Assembler PC v20.2.7 Fri Feb 14 12:43:41 2025

Copyright (c) 1996-2018 Texas Instruments Incorporated
UART.asm                                                             PAGE   35

    1869                            .dwattr $C$DW$T$80, DW_AT_type(*$C$DW$T$63)
    1870                            .dwattr $C$DW$T$80, DW_AT_language(DW_LANG_C)
    1871                            .dwattr $C$DW$T$80, DW_AT_decl_file("C:/ti/ccs1230/ccs/tools/compiler/ti-cgt-arm_20.2.7.LTS/in
    1872                            .dwattr $C$DW$T$80, DW_AT_decl_line(0x6d)
    1873                            .dwattr $C$DW$T$80, DW_AT_decl_column(0x13)
    1874                    
    1875                    $C$DW$T$81      .dwtag  DW_TAG_typedef
    1876                            .dwattr $C$DW$T$81, DW_AT_name("__register_t")
    1877                            .dwattr $C$DW$T$81, DW_AT_type(*$C$DW$T$63)
    1878                            .dwattr $C$DW$T$81, DW_AT_language(DW_LANG_C)
    1879                            .dwattr $C$DW$T$81, DW_AT_decl_file("C:/ti/ccs1230/ccs/tools/compiler/ti-cgt-arm_20.2.7.LTS/in
    1880                            .dwattr $C$DW$T$81, DW_AT_decl_line(0x6e)
    1881                            .dwattr $C$DW$T$81, DW_AT_decl_column(0x13)
    1882                    
    1883                    $C$DW$T$82      .dwtag  DW_TAG_typedef
    1884                            .dwattr $C$DW$T$82, DW_AT_name("__segsz_t")
    1885                            .dwattr $C$DW$T$82, DW_AT_type(*$C$DW$T$63)
    1886                            .dwattr $C$DW$T$82, DW_AT_language(DW_LANG_C)
    1887                            .dwattr $C$DW$T$82, DW_AT_decl_file("C:/ti/ccs1230/ccs/tools/compiler/ti-cgt-arm_20.2.7.LTS/in
    1888                            .dwattr $C$DW$T$82, DW_AT_decl_line(0x6f)
    1889                            .dwattr $C$DW$T$82, DW_AT_decl_column(0x13)
    1890                    
    1891                    $C$DW$T$83      .dwtag  DW_TAG_typedef
    1892                            .dwattr $C$DW$T$83, DW_AT_name("__ssize_t")
    1893                            .dwattr $C$DW$T$83, DW_AT_type(*$C$DW$T$63)
    1894                            .dwattr $C$DW$T$83, DW_AT_language(DW_LANG_C)
    1895                            .dwattr $C$DW$T$83, DW_AT_decl_file("C:/ti/ccs1230/ccs/tools/compiler/ti-cgt-arm_20.2.7.LTS/in
    1896                            .dwattr $C$DW$T$83, DW_AT_decl_line(0x71)
    1897                            .dwattr $C$DW$T$83, DW_AT_decl_column(0x13)
    1898                    
    1899                    $C$DW$T$84      .dwtag  DW_TAG_typedef
    1900                            .dwattr $C$DW$T$84, DW_AT_name("int32_t")
    1901                            .dwattr $C$DW$T$84, DW_AT_type(*$C$DW$T$63)
    1902                            .dwattr $C$DW$T$84, DW_AT_language(DW_LANG_C)
    1903                            .dwattr $C$DW$T$84, DW_AT_decl_file("C:/ti/ccs1230/ccs/tools/compiler/ti-cgt-arm_20.2.7.LTS/in
    1904                            .dwattr $C$DW$T$84, DW_AT_decl_line(0x30)
    1905                            .dwattr $C$DW$T$84, DW_AT_decl_column(0x14)
    1906                    
    1907                    $C$DW$T$85      .dwtag  DW_TAG_typedef
    1908                            .dwattr $C$DW$T$85, DW_AT_name("__nl_item")
    1909                            .dwattr $C$DW$T$85, DW_AT_type(*$C$DW$T$10)
    1910                            .dwattr $C$DW$T$85, DW_AT_language(DW_LANG_C)
    1911                            .dwattr $C$DW$T$85, DW_AT_decl_file("C:/ti/ccs1230/ccs/tools/compiler/ti-cgt-arm_20.2.7.LTS/in
    1912                            .dwattr $C$DW$T$85, DW_AT_decl_line(0x3c)
    1913                            .dwattr $C$DW$T$85, DW_AT_decl_column(0x0e)
    1914                    
    1915                    $C$DW$T$11      .dwtag  DW_TAG_base_type
    1916                            .dwattr $C$DW$T$11, DW_AT_encoding(DW_ATE_unsigned)
    1917                            .dwattr $C$DW$T$11, DW_AT_name("unsigned int")
    1918                            .dwattr $C$DW$T$11, DW_AT_byte_size(0x04)
    1919                    
    1920                    $C$DW$T$29      .dwtag  DW_TAG_typedef
    1921                            .dwattr $C$DW$T$29, DW_AT_name("__uint32_t")
    1922                            .dwattr $C$DW$T$29, DW_AT_type(*$C$DW$T$11)
    1923                            .dwattr $C$DW$T$29, DW_AT_language(DW_LANG_C)
TI ARM Assembler PC v20.2.7 Fri Feb 14 12:43:41 2025

Copyright (c) 1996-2018 Texas Instruments Incorporated
UART.asm                                                             PAGE   36

    1924                            .dwattr $C$DW$T$29, DW_AT_decl_file("C:/ti/ccs1230/ccs/tools/compiler/ti-cgt-arm_20.2.7.LTS/in
    1925                            .dwattr $C$DW$T$29, DW_AT_decl_line(0x4f)
    1926                            .dwattr $C$DW$T$29, DW_AT_decl_column(0x17)
    1927                    
    1928                    $C$DW$T$86      .dwtag  DW_TAG_typedef
    1929                            .dwattr $C$DW$T$86, DW_AT_name("__clock_t")
    1930                            .dwattr $C$DW$T$86, DW_AT_type(*$C$DW$T$29)
    1931                            .dwattr $C$DW$T$86, DW_AT_language(DW_LANG_C)
    1932                            .dwattr $C$DW$T$86, DW_AT_decl_file("C:/ti/ccs1230/ccs/tools/compiler/ti-cgt-arm_20.2.7.LTS/in
    1933                            .dwattr $C$DW$T$86, DW_AT_decl_line(0x5e)
    1934                            .dwattr $C$DW$T$86, DW_AT_decl_column(0x14)
    1935                    
    1936                    $C$DW$T$87      .dwtag  DW_TAG_typedef
    1937                            .dwattr $C$DW$T$87, DW_AT_name("__fflags_t")
    1938                            .dwattr $C$DW$T$87, DW_AT_type(*$C$DW$T$29)
    1939                            .dwattr $C$DW$T$87, DW_AT_language(DW_LANG_C)
    1940                            .dwattr $C$DW$T$87, DW_AT_decl_file("C:/ti/ccs1230/ccs/tools/compiler/ti-cgt-arm_20.2.7.LTS/in
    1941                            .dwattr $C$DW$T$87, DW_AT_decl_line(0x32)
    1942                            .dwattr $C$DW$T$87, DW_AT_decl_column(0x14)
    1943                    
    1944                    $C$DW$T$88      .dwtag  DW_TAG_typedef
    1945                            .dwattr $C$DW$T$88, DW_AT_name("__fixpt_t")
    1946                            .dwattr $C$DW$T$88, DW_AT_type(*$C$DW$T$29)
    1947                            .dwattr $C$DW$T$88, DW_AT_language(DW_LANG_C)
    1948                            .dwattr $C$DW$T$88, DW_AT_decl_file("C:/ti/ccs1230/ccs/tools/compiler/ti-cgt-arm_20.2.7.LTS/in
    1949                            .dwattr $C$DW$T$88, DW_AT_decl_line(0x81)
    1950                            .dwattr $C$DW$T$88, DW_AT_decl_column(0x14)
    1951                    
    1952                    $C$DW$T$89      .dwtag  DW_TAG_typedef
    1953                            .dwattr $C$DW$T$89, DW_AT_name("__gid_t")
    1954                            .dwattr $C$DW$T$89, DW_AT_type(*$C$DW$T$29)
    1955                            .dwattr $C$DW$T$89, DW_AT_language(DW_LANG_C)
    1956                            .dwattr $C$DW$T$89, DW_AT_decl_file("C:/ti/ccs1230/ccs/tools/compiler/ti-cgt-arm_20.2.7.LTS/in
    1957                            .dwattr $C$DW$T$89, DW_AT_decl_line(0x35)
    1958                            .dwattr $C$DW$T$89, DW_AT_decl_column(0x14)
    1959                    
    1960                    $C$DW$T$90      .dwtag  DW_TAG_typedef
    1961                            .dwattr $C$DW$T$90, DW_AT_name("__size_t")
    1962                            .dwattr $C$DW$T$90, DW_AT_type(*$C$DW$T$29)
    1963                            .dwattr $C$DW$T$90, DW_AT_language(DW_LANG_C)
    1964                            .dwattr $C$DW$T$90, DW_AT_decl_file("C:/ti/ccs1230/ccs/tools/compiler/ti-cgt-arm_20.2.7.LTS/in
    1965                            .dwattr $C$DW$T$90, DW_AT_decl_line(0x70)
    1966                            .dwattr $C$DW$T$90, DW_AT_decl_column(0x14)
    1967                    
    1968                    $C$DW$T$91      .dwtag  DW_TAG_typedef
    1969                            .dwattr $C$DW$T$91, DW_AT_name("__socklen_t")
    1970                            .dwattr $C$DW$T$91, DW_AT_type(*$C$DW$T$29)
    1971                            .dwattr $C$DW$T$91, DW_AT_language(DW_LANG_C)
    1972                            .dwattr $C$DW$T$91, DW_AT_decl_file("C:/ti/ccs1230/ccs/tools/compiler/ti-cgt-arm_20.2.7.LTS/in
    1973                            .dwattr $C$DW$T$91, DW_AT_decl_line(0x49)
    1974                            .dwattr $C$DW$T$91, DW_AT_decl_column(0x14)
    1975                    
    1976                    $C$DW$T$92      .dwtag  DW_TAG_typedef
    1977                            .dwattr $C$DW$T$92, DW_AT_name("__time_t")
    1978                            .dwattr $C$DW$T$92, DW_AT_type(*$C$DW$T$29)
TI ARM Assembler PC v20.2.7 Fri Feb 14 12:43:41 2025

Copyright (c) 1996-2018 Texas Instruments Incorporated
UART.asm                                                             PAGE   37

    1979                            .dwattr $C$DW$T$92, DW_AT_language(DW_LANG_C)
    1980                            .dwattr $C$DW$T$92, DW_AT_decl_file("C:/ti/ccs1230/ccs/tools/compiler/ti-cgt-arm_20.2.7.LTS/in
    1981                            .dwattr $C$DW$T$92, DW_AT_decl_line(0x76)
    1982                            .dwattr $C$DW$T$92, DW_AT_decl_column(0x19)
    1983                    
    1984                    $C$DW$T$93      .dwtag  DW_TAG_typedef
    1985                            .dwattr $C$DW$T$93, DW_AT_name("__u_register_t")
    1986                            .dwattr $C$DW$T$93, DW_AT_type(*$C$DW$T$29)
    1987                            .dwattr $C$DW$T$93, DW_AT_language(DW_LANG_C)
    1988                            .dwattr $C$DW$T$93, DW_AT_decl_file("C:/ti/ccs1230/ccs/tools/compiler/ti-cgt-arm_20.2.7.LTS/in
    1989                            .dwattr $C$DW$T$93, DW_AT_decl_line(0x83)
    1990                            .dwattr $C$DW$T$93, DW_AT_decl_column(0x14)
    1991                    
    1992                    $C$DW$T$94      .dwtag  DW_TAG_typedef
    1993                            .dwattr $C$DW$T$94, DW_AT_name("__uid_t")
    1994                            .dwattr $C$DW$T$94, DW_AT_type(*$C$DW$T$29)
    1995                            .dwattr $C$DW$T$94, DW_AT_language(DW_LANG_C)
    1996                            .dwattr $C$DW$T$94, DW_AT_decl_file("C:/ti/ccs1230/ccs/tools/compiler/ti-cgt-arm_20.2.7.LTS/in
    1997                            .dwattr $C$DW$T$94, DW_AT_decl_line(0x4d)
    1998                            .dwattr $C$DW$T$94, DW_AT_decl_column(0x14)
    1999                    
    2000                    $C$DW$T$95      .dwtag  DW_TAG_typedef
    2001                            .dwattr $C$DW$T$95, DW_AT_name("__uint_fast16_t")
    2002                            .dwattr $C$DW$T$95, DW_AT_type(*$C$DW$T$29)
    2003                            .dwattr $C$DW$T$95, DW_AT_language(DW_LANG_C)
    2004                            .dwattr $C$DW$T$95, DW_AT_decl_file("C:/ti/ccs1230/ccs/tools/compiler/ti-cgt-arm_20.2.7.LTS/in
    2005                            .dwattr $C$DW$T$95, DW_AT_decl_line(0x7c)
    2006                            .dwattr $C$DW$T$95, DW_AT_decl_column(0x14)
    2007                    
    2008                    $C$DW$T$96      .dwtag  DW_TAG_typedef
    2009                            .dwattr $C$DW$T$96, DW_AT_name("uint_fast16_t")
    2010                            .dwattr $C$DW$T$96, DW_AT_type(*$C$DW$T$95)
    2011                            .dwattr $C$DW$T$96, DW_AT_language(DW_LANG_C)
    2012                            .dwattr $C$DW$T$96, DW_AT_decl_file("C:/ti/ccs1230/ccs/tools/compiler/ti-cgt-arm_20.2.7.LTS/in
    2013                            .dwattr $C$DW$T$96, DW_AT_decl_line(0x3a)
    2014                            .dwattr $C$DW$T$96, DW_AT_decl_column(0x1a)
    2015                    
    2016                    $C$DW$T$97      .dwtag  DW_TAG_typedef
    2017                            .dwattr $C$DW$T$97, DW_AT_name("__uint_fast32_t")
    2018                            .dwattr $C$DW$T$97, DW_AT_type(*$C$DW$T$29)
    2019                            .dwattr $C$DW$T$97, DW_AT_language(DW_LANG_C)
    2020                            .dwattr $C$DW$T$97, DW_AT_decl_file("C:/ti/ccs1230/ccs/tools/compiler/ti-cgt-arm_20.2.7.LTS/in
    2021                            .dwattr $C$DW$T$97, DW_AT_decl_line(0x7d)
    2022                            .dwattr $C$DW$T$97, DW_AT_decl_column(0x14)
    2023                    
    2024                    $C$DW$T$98      .dwtag  DW_TAG_typedef
    2025                            .dwattr $C$DW$T$98, DW_AT_name("uint_fast32_t")
    2026                            .dwattr $C$DW$T$98, DW_AT_type(*$C$DW$T$97)
    2027                            .dwattr $C$DW$T$98, DW_AT_language(DW_LANG_C)
    2028                            .dwattr $C$DW$T$98, DW_AT_decl_file("C:/ti/ccs1230/ccs/tools/compiler/ti-cgt-arm_20.2.7.LTS/in
    2029                            .dwattr $C$DW$T$98, DW_AT_decl_line(0x3b)
    2030                            .dwattr $C$DW$T$98, DW_AT_decl_column(0x1a)
    2031                    
    2032                    $C$DW$T$99      .dwtag  DW_TAG_typedef
    2033                            .dwattr $C$DW$T$99, DW_AT_name("__uint_fast8_t")
TI ARM Assembler PC v20.2.7 Fri Feb 14 12:43:41 2025

Copyright (c) 1996-2018 Texas Instruments Incorporated
UART.asm                                                             PAGE   38

    2034                            .dwattr $C$DW$T$99, DW_AT_type(*$C$DW$T$29)
    2035                            .dwattr $C$DW$T$99, DW_AT_language(DW_LANG_C)
    2036                            .dwattr $C$DW$T$99, DW_AT_decl_file("C:/ti/ccs1230/ccs/tools/compiler/ti-cgt-arm_20.2.7.LTS/in
    2037                            .dwattr $C$DW$T$99, DW_AT_decl_line(0x7b)
    2038                            .dwattr $C$DW$T$99, DW_AT_decl_column(0x14)
    2039                    
    2040                    $C$DW$T$100     .dwtag  DW_TAG_typedef
    2041                            .dwattr $C$DW$T$100, DW_AT_name("uint_fast8_t")
    2042                            .dwattr $C$DW$T$100, DW_AT_type(*$C$DW$T$99)
    2043                            .dwattr $C$DW$T$100, DW_AT_language(DW_LANG_C)
    2044                            .dwattr $C$DW$T$100, DW_AT_decl_file("C:/ti/ccs1230/ccs/tools/compiler/ti-cgt-arm_20.2.7.LTS/i
    2045                            .dwattr $C$DW$T$100, DW_AT_decl_line(0x39)
    2046                            .dwattr $C$DW$T$100, DW_AT_decl_column(0x19)
    2047                    
    2048                    $C$DW$T$101     .dwtag  DW_TAG_typedef
    2049                            .dwattr $C$DW$T$101, DW_AT_name("__uint_least32_t")
    2050                            .dwattr $C$DW$T$101, DW_AT_type(*$C$DW$T$29)
    2051                            .dwattr $C$DW$T$101, DW_AT_language(DW_LANG_C)
    2052                            .dwattr $C$DW$T$101, DW_AT_decl_file("C:/ti/ccs1230/ccs/tools/compiler/ti-cgt-arm_20.2.7.LTS/i
    2053                            .dwattr $C$DW$T$101, DW_AT_decl_line(0x81)
    2054                            .dwattr $C$DW$T$101, DW_AT_decl_column(0x14)
    2055                    
    2056                    $C$DW$T$102     .dwtag  DW_TAG_typedef
    2057                            .dwattr $C$DW$T$102, DW_AT_name("__char32_t")
    2058                            .dwattr $C$DW$T$102, DW_AT_type(*$C$DW$T$101)
    2059                            .dwattr $C$DW$T$102, DW_AT_language(DW_LANG_C)
    2060                            .dwattr $C$DW$T$102, DW_AT_decl_file("C:/ti/ccs1230/ccs/tools/compiler/ti-cgt-arm_20.2.7.LTS/i
    2061                            .dwattr $C$DW$T$102, DW_AT_decl_line(0x72)
    2062                            .dwattr $C$DW$T$102, DW_AT_decl_column(0x1a)
    2063                    
    2064                    $C$DW$T$103     .dwtag  DW_TAG_typedef
    2065                            .dwattr $C$DW$T$103, DW_AT_name("uint_least32_t")
    2066                            .dwattr $C$DW$T$103, DW_AT_type(*$C$DW$T$101)
    2067                            .dwattr $C$DW$T$103, DW_AT_language(DW_LANG_C)
    2068                            .dwattr $C$DW$T$103, DW_AT_decl_file("C:/ti/ccs1230/ccs/tools/compiler/ti-cgt-arm_20.2.7.LTS/i
    2069                            .dwattr $C$DW$T$103, DW_AT_decl_line(0x31)
    2070                            .dwattr $C$DW$T$103, DW_AT_decl_column(0x1a)
    2071                    
    2072                    $C$DW$T$104     .dwtag  DW_TAG_typedef
    2073                            .dwattr $C$DW$T$104, DW_AT_name("__uintfptr_t")
    2074                            .dwattr $C$DW$T$104, DW_AT_type(*$C$DW$T$29)
    2075                            .dwattr $C$DW$T$104, DW_AT_language(DW_LANG_C)
    2076                            .dwattr $C$DW$T$104, DW_AT_decl_file("C:/ti/ccs1230/ccs/tools/compiler/ti-cgt-arm_20.2.7.LTS/i
    2077                            .dwattr $C$DW$T$104, DW_AT_decl_line(0x78)
    2078                            .dwattr $C$DW$T$104, DW_AT_decl_column(0x14)
    2079                    
    2080                    $C$DW$T$105     .dwtag  DW_TAG_typedef
    2081                            .dwattr $C$DW$T$105, DW_AT_name("__uintptr_t")
    2082                            .dwattr $C$DW$T$105, DW_AT_type(*$C$DW$T$29)
    2083                            .dwattr $C$DW$T$105, DW_AT_language(DW_LANG_C)
    2084                            .dwattr $C$DW$T$105, DW_AT_decl_file("C:/ti/ccs1230/ccs/tools/compiler/ti-cgt-arm_20.2.7.LTS/i
    2085                            .dwattr $C$DW$T$105, DW_AT_decl_line(0x7a)
    2086                            .dwattr $C$DW$T$105, DW_AT_decl_column(0x14)
    2087                    
    2088                    $C$DW$T$106     .dwtag  DW_TAG_typedef
TI ARM Assembler PC v20.2.7 Fri Feb 14 12:43:41 2025

Copyright (c) 1996-2018 Texas Instruments Incorporated
UART.asm                                                             PAGE   39

    2089                            .dwattr $C$DW$T$106, DW_AT_name("uintptr_t")
    2090                            .dwattr $C$DW$T$106, DW_AT_type(*$C$DW$T$105)
    2091                            .dwattr $C$DW$T$106, DW_AT_language(DW_LANG_C)
    2092                            .dwattr $C$DW$T$106, DW_AT_decl_file("C:/ti/ccs1230/ccs/tools/compiler/ti-cgt-arm_20.2.7.LTS/i
    2093                            .dwattr $C$DW$T$106, DW_AT_decl_line(0x54)
    2094                            .dwattr $C$DW$T$106, DW_AT_decl_column(0x16)
    2095                    
    2096                    $C$DW$T$107     .dwtag  DW_TAG_typedef
    2097                            .dwattr $C$DW$T$107, DW_AT_name("__vm_offset_t")
    2098                            .dwattr $C$DW$T$107, DW_AT_type(*$C$DW$T$29)
    2099                            .dwattr $C$DW$T$107, DW_AT_language(DW_LANG_C)
    2100                            .dwattr $C$DW$T$107, DW_AT_decl_file("C:/ti/ccs1230/ccs/tools/compiler/ti-cgt-arm_20.2.7.LTS/i
    2101                            .dwattr $C$DW$T$107, DW_AT_decl_line(0x84)
    2102                            .dwattr $C$DW$T$107, DW_AT_decl_column(0x14)
    2103                    
    2104                    $C$DW$T$108     .dwtag  DW_TAG_typedef
    2105                            .dwattr $C$DW$T$108, DW_AT_name("__vm_paddr_t")
    2106                            .dwattr $C$DW$T$108, DW_AT_type(*$C$DW$T$29)
    2107                            .dwattr $C$DW$T$108, DW_AT_language(DW_LANG_C)
    2108                            .dwattr $C$DW$T$108, DW_AT_decl_file("C:/ti/ccs1230/ccs/tools/compiler/ti-cgt-arm_20.2.7.LTS/i
    2109                            .dwattr $C$DW$T$108, DW_AT_decl_line(0x85)
    2110                            .dwattr $C$DW$T$108, DW_AT_decl_column(0x14)
    2111                    
    2112                    $C$DW$T$109     .dwtag  DW_TAG_typedef
    2113                            .dwattr $C$DW$T$109, DW_AT_name("__vm_size_t")
    2114                            .dwattr $C$DW$T$109, DW_AT_type(*$C$DW$T$29)
    2115                            .dwattr $C$DW$T$109, DW_AT_language(DW_LANG_C)
    2116                            .dwattr $C$DW$T$109, DW_AT_decl_file("C:/ti/ccs1230/ccs/tools/compiler/ti-cgt-arm_20.2.7.LTS/i
    2117                            .dwattr $C$DW$T$109, DW_AT_decl_line(0x86)
    2118                            .dwattr $C$DW$T$109, DW_AT_decl_column(0x14)
    2119                    
    2120                    $C$DW$T$30      .dwtag  DW_TAG_typedef
    2121                            .dwattr $C$DW$T$30, DW_AT_name("uint32_t")
    2122                            .dwattr $C$DW$T$30, DW_AT_type(*$C$DW$T$29)
    2123                            .dwattr $C$DW$T$30, DW_AT_language(DW_LANG_C)
    2124                            .dwattr $C$DW$T$30, DW_AT_decl_file("C:/ti/ccs1230/ccs/tools/compiler/ti-cgt-arm_20.2.7.LTS/in
    2125                            .dwattr $C$DW$T$30, DW_AT_decl_line(0x46)
    2126                            .dwattr $C$DW$T$30, DW_AT_decl_column(0x15)
    2127                    
    2128                    $C$DW$T$113     .dwtag  DW_TAG_typedef
    2129                            .dwattr $C$DW$T$113, DW_AT_name("__useconds_t")
    2130                            .dwattr $C$DW$T$113, DW_AT_type(*$C$DW$T$11)
    2131                            .dwattr $C$DW$T$113, DW_AT_language(DW_LANG_C)
    2132                            .dwattr $C$DW$T$113, DW_AT_decl_file("C:/ti/ccs1230/ccs/tools/compiler/ti-cgt-arm_20.2.7.LTS/i
    2133                            .dwattr $C$DW$T$113, DW_AT_decl_line(0x4e)
    2134                            .dwattr $C$DW$T$113, DW_AT_decl_column(0x16)
    2135                    
    2136                    $C$DW$T$12      .dwtag  DW_TAG_base_type
    2137                            .dwattr $C$DW$T$12, DW_AT_encoding(DW_ATE_signed)
    2138                            .dwattr $C$DW$T$12, DW_AT_name("long")
    2139                            .dwattr $C$DW$T$12, DW_AT_byte_size(0x04)
    2140                    
    2141                    $C$DW$T$114     .dwtag  DW_TAG_typedef
    2142                            .dwattr $C$DW$T$114, DW_AT_name("__key_t")
    2143                            .dwattr $C$DW$T$114, DW_AT_type(*$C$DW$T$12)
TI ARM Assembler PC v20.2.7 Fri Feb 14 12:43:41 2025

Copyright (c) 1996-2018 Texas Instruments Incorporated
UART.asm                                                             PAGE   40

    2144                            .dwattr $C$DW$T$114, DW_AT_language(DW_LANG_C)
    2145                            .dwattr $C$DW$T$114, DW_AT_decl_file("C:/ti/ccs1230/ccs/tools/compiler/ti-cgt-arm_20.2.7.LTS/i
    2146                            .dwattr $C$DW$T$114, DW_AT_decl_line(0x38)
    2147                            .dwattr $C$DW$T$114, DW_AT_decl_column(0x0f)
    2148                    
    2149                    $C$DW$T$115     .dwtag  DW_TAG_typedef
    2150                            .dwattr $C$DW$T$115, DW_AT_name("__suseconds_t")
    2151                            .dwattr $C$DW$T$115, DW_AT_type(*$C$DW$T$12)
    2152                            .dwattr $C$DW$T$115, DW_AT_language(DW_LANG_C)
    2153                            .dwattr $C$DW$T$115, DW_AT_decl_file("C:/ti/ccs1230/ccs/tools/compiler/ti-cgt-arm_20.2.7.LTS/i
    2154                            .dwattr $C$DW$T$115, DW_AT_decl_line(0x4a)
    2155                            .dwattr $C$DW$T$115, DW_AT_decl_column(0x0f)
    2156                    
    2157                    $C$DW$T$116     .dwtag  DW_TAG_typedef
    2158                            .dwattr $C$DW$T$116, DW_AT_name("_off_t")
    2159                            .dwattr $C$DW$T$116, DW_AT_type(*$C$DW$T$12)
    2160                            .dwattr $C$DW$T$116, DW_AT_language(DW_LANG_C)
    2161                            .dwattr $C$DW$T$116, DW_AT_decl_file("C:/ti/ccs1230/ccs/tools/compiler/ti-cgt-arm_20.2.7.LTS/i
    2162                            .dwattr $C$DW$T$116, DW_AT_decl_line(0x9d)
    2163                            .dwattr $C$DW$T$116, DW_AT_decl_column(0x0e)
    2164                    
    2165                    $C$DW$T$117     .dwtag  DW_TAG_typedef
    2166                            .dwattr $C$DW$T$117, DW_AT_name("__off_t")
    2167                            .dwattr $C$DW$T$117, DW_AT_type(*$C$DW$T$116)
    2168                            .dwattr $C$DW$T$117, DW_AT_language(DW_LANG_C)
    2169                            .dwattr $C$DW$T$117, DW_AT_decl_file("C:/ti/ccs1230/ccs/tools/compiler/ti-cgt-arm_20.2.7.LTS/i
    2170                            .dwattr $C$DW$T$117, DW_AT_decl_line(0x3e)
    2171                            .dwattr $C$DW$T$117, DW_AT_decl_column(0x18)
    2172                    
    2173                    $C$DW$T$13      .dwtag  DW_TAG_base_type
    2174                            .dwattr $C$DW$T$13, DW_AT_encoding(DW_ATE_unsigned)
    2175                            .dwattr $C$DW$T$13, DW_AT_name("unsigned long")
    2176                            .dwattr $C$DW$T$13, DW_AT_byte_size(0x04)
    2177                    
    2178                    $C$DW$T$14      .dwtag  DW_TAG_base_type
    2179                            .dwattr $C$DW$T$14, DW_AT_encoding(DW_ATE_signed)
    2180                            .dwattr $C$DW$T$14, DW_AT_name("long long")
    2181                            .dwattr $C$DW$T$14, DW_AT_byte_size(0x08)
    2182                    
    2183                    $C$DW$T$118     .dwtag  DW_TAG_typedef
    2184                            .dwattr $C$DW$T$118, DW_AT_name("__int64_t")
    2185                            .dwattr $C$DW$T$118, DW_AT_type(*$C$DW$T$14)
    2186                            .dwattr $C$DW$T$118, DW_AT_language(DW_LANG_C)
    2187                            .dwattr $C$DW$T$118, DW_AT_decl_file("C:/ti/ccs1230/ccs/tools/compiler/ti-cgt-arm_20.2.7.LTS/i
    2188                            .dwattr $C$DW$T$118, DW_AT_decl_line(0x54)
    2189                            .dwattr $C$DW$T$118, DW_AT_decl_column(0x14)
    2190                    
    2191                    $C$DW$T$119     .dwtag  DW_TAG_typedef
    2192                            .dwattr $C$DW$T$119, DW_AT_name("__blkcnt_t")
    2193                            .dwattr $C$DW$T$119, DW_AT_type(*$C$DW$T$118)
    2194                            .dwattr $C$DW$T$119, DW_AT_language(DW_LANG_C)
    2195                            .dwattr $C$DW$T$119, DW_AT_decl_file("C:/ti/ccs1230/ccs/tools/compiler/ti-cgt-arm_20.2.7.LTS/i
    2196                            .dwattr $C$DW$T$119, DW_AT_decl_line(0x30)
    2197                            .dwattr $C$DW$T$119, DW_AT_decl_column(0x13)
    2198                    
TI ARM Assembler PC v20.2.7 Fri Feb 14 12:43:41 2025

Copyright (c) 1996-2018 Texas Instruments Incorporated
UART.asm                                                             PAGE   41

    2199                    $C$DW$T$120     .dwtag  DW_TAG_typedef
    2200                            .dwattr $C$DW$T$120, DW_AT_name("__id_t")
    2201                            .dwattr $C$DW$T$120, DW_AT_type(*$C$DW$T$118)
    2202                            .dwattr $C$DW$T$120, DW_AT_language(DW_LANG_C)
    2203                            .dwattr $C$DW$T$120, DW_AT_decl_file("C:/ti/ccs1230/ccs/tools/compiler/ti-cgt-arm_20.2.7.LTS/i
    2204                            .dwattr $C$DW$T$120, DW_AT_decl_line(0x36)
    2205                            .dwattr $C$DW$T$120, DW_AT_decl_column(0x13)
    2206                    
    2207                    $C$DW$T$121     .dwtag  DW_TAG_typedef
    2208                            .dwattr $C$DW$T$121, DW_AT_name("__int_fast64_t")
    2209                            .dwattr $C$DW$T$121, DW_AT_type(*$C$DW$T$118)
    2210                            .dwattr $C$DW$T$121, DW_AT_language(DW_LANG_C)
    2211                            .dwattr $C$DW$T$121, DW_AT_decl_file("C:/ti/ccs1230/ccs/tools/compiler/ti-cgt-arm_20.2.7.LTS/i
    2212                            .dwattr $C$DW$T$121, DW_AT_decl_line(0x68)
    2213                            .dwattr $C$DW$T$121, DW_AT_decl_column(0x13)
    2214                    
    2215                    $C$DW$T$122     .dwtag  DW_TAG_typedef
    2216                            .dwattr $C$DW$T$122, DW_AT_name("int_fast64_t")
    2217                            .dwattr $C$DW$T$122, DW_AT_type(*$C$DW$T$121)
    2218                            .dwattr $C$DW$T$122, DW_AT_language(DW_LANG_C)
    2219                            .dwattr $C$DW$T$122, DW_AT_decl_file("C:/ti/ccs1230/ccs/tools/compiler/ti-cgt-arm_20.2.7.LTS/i
    2220                            .dwattr $C$DW$T$122, DW_AT_decl_line(0x37)
    2221                            .dwattr $C$DW$T$122, DW_AT_decl_column(0x19)
    2222                    
    2223                    $C$DW$T$123     .dwtag  DW_TAG_typedef
    2224                            .dwattr $C$DW$T$123, DW_AT_name("__int_least64_t")
    2225                            .dwattr $C$DW$T$123, DW_AT_type(*$C$DW$T$118)
    2226                            .dwattr $C$DW$T$123, DW_AT_language(DW_LANG_C)
    2227                            .dwattr $C$DW$T$123, DW_AT_decl_file("C:/ti/ccs1230/ccs/tools/compiler/ti-cgt-arm_20.2.7.LTS/i
    2228                            .dwattr $C$DW$T$123, DW_AT_decl_line(0x6c)
    2229                            .dwattr $C$DW$T$123, DW_AT_decl_column(0x13)
    2230                    
    2231                    $C$DW$T$124     .dwtag  DW_TAG_typedef
    2232                            .dwattr $C$DW$T$124, DW_AT_name("int_least64_t")
    2233                            .dwattr $C$DW$T$124, DW_AT_type(*$C$DW$T$123)
    2234                            .dwattr $C$DW$T$124, DW_AT_language(DW_LANG_C)
    2235                            .dwattr $C$DW$T$124, DW_AT_decl_file("C:/ti/ccs1230/ccs/tools/compiler/ti-cgt-arm_20.2.7.LTS/i
    2236                            .dwattr $C$DW$T$124, DW_AT_decl_line(0x2d)
    2237                            .dwattr $C$DW$T$124, DW_AT_decl_column(0x1a)
    2238                    
    2239                    $C$DW$T$125     .dwtag  DW_TAG_typedef
    2240                            .dwattr $C$DW$T$125, DW_AT_name("__intmax_t")
    2241                            .dwattr $C$DW$T$125, DW_AT_type(*$C$DW$T$118)
    2242                            .dwattr $C$DW$T$125, DW_AT_language(DW_LANG_C)
    2243                            .dwattr $C$DW$T$125, DW_AT_decl_file("C:/ti/ccs1230/ccs/tools/compiler/ti-cgt-arm_20.2.7.LTS/i
    2244                            .dwattr $C$DW$T$125, DW_AT_decl_line(0x63)
    2245                            .dwattr $C$DW$T$125, DW_AT_decl_column(0x13)
    2246                    
    2247                    $C$DW$T$126     .dwtag  DW_TAG_typedef
    2248                            .dwattr $C$DW$T$126, DW_AT_name("intmax_t")
    2249                            .dwattr $C$DW$T$126, DW_AT_type(*$C$DW$T$125)
    2250                            .dwattr $C$DW$T$126, DW_AT_language(DW_LANG_C)
    2251                            .dwattr $C$DW$T$126, DW_AT_decl_file("C:/ti/ccs1230/ccs/tools/compiler/ti-cgt-arm_20.2.7.LTS/i
    2252                            .dwattr $C$DW$T$126, DW_AT_decl_line(0x58)
    2253                            .dwattr $C$DW$T$126, DW_AT_decl_column(0x15)
TI ARM Assembler PC v20.2.7 Fri Feb 14 12:43:41 2025

Copyright (c) 1996-2018 Texas Instruments Incorporated
UART.asm                                                             PAGE   42

    2254                    
    2255                    $C$DW$T$127     .dwtag  DW_TAG_typedef
    2256                            .dwattr $C$DW$T$127, DW_AT_name("__off64_t")
    2257                            .dwattr $C$DW$T$127, DW_AT_type(*$C$DW$T$118)
    2258                            .dwattr $C$DW$T$127, DW_AT_language(DW_LANG_C)
    2259                            .dwattr $C$DW$T$127, DW_AT_decl_file("C:/ti/ccs1230/ccs/tools/compiler/ti-cgt-arm_20.2.7.LTS/i
    2260                            .dwattr $C$DW$T$127, DW_AT_decl_line(0x3f)
    2261                            .dwattr $C$DW$T$127, DW_AT_decl_column(0x13)
    2262                    
    2263                    $C$DW$T$128     .dwtag  DW_TAG_typedef
    2264                            .dwattr $C$DW$T$128, DW_AT_name("__rlim_t")
    2265                            .dwattr $C$DW$T$128, DW_AT_type(*$C$DW$T$118)
    2266                            .dwattr $C$DW$T$128, DW_AT_language(DW_LANG_C)
    2267                            .dwattr $C$DW$T$128, DW_AT_decl_file("C:/ti/ccs1230/ccs/tools/compiler/ti-cgt-arm_20.2.7.LTS/i
    2268                            .dwattr $C$DW$T$128, DW_AT_decl_line(0x41)
    2269                            .dwattr $C$DW$T$128, DW_AT_decl_column(0x13)
    2270                    
    2271                    $C$DW$T$129     .dwtag  DW_TAG_typedef
    2272                            .dwattr $C$DW$T$129, DW_AT_name("int64_t")
    2273                            .dwattr $C$DW$T$129, DW_AT_type(*$C$DW$T$118)
    2274                            .dwattr $C$DW$T$129, DW_AT_language(DW_LANG_C)
    2275                            .dwattr $C$DW$T$129, DW_AT_decl_file("C:/ti/ccs1230/ccs/tools/compiler/ti-cgt-arm_20.2.7.LTS/i
    2276                            .dwattr $C$DW$T$129, DW_AT_decl_line(0x35)
    2277                            .dwattr $C$DW$T$129, DW_AT_decl_column(0x14)
    2278                    
    2279                    $C$DW$T$15      .dwtag  DW_TAG_base_type
    2280                            .dwattr $C$DW$T$15, DW_AT_encoding(DW_ATE_unsigned)
    2281                            .dwattr $C$DW$T$15, DW_AT_name("unsigned long long")
    2282                            .dwattr $C$DW$T$15, DW_AT_byte_size(0x08)
    2283                    
    2284                    $C$DW$T$130     .dwtag  DW_TAG_typedef
    2285                            .dwattr $C$DW$T$130, DW_AT_name("__uint64_t")
    2286                            .dwattr $C$DW$T$130, DW_AT_type(*$C$DW$T$15)
    2287                            .dwattr $C$DW$T$130, DW_AT_language(DW_LANG_C)
    2288                            .dwattr $C$DW$T$130, DW_AT_decl_file("C:/ti/ccs1230/ccs/tools/compiler/ti-cgt-arm_20.2.7.LTS/i
    2289                            .dwattr $C$DW$T$130, DW_AT_decl_line(0x59)
    2290                            .dwattr $C$DW$T$130, DW_AT_decl_column(0x1c)
    2291                    
    2292                    $C$DW$T$131     .dwtag  DW_TAG_typedef
    2293                            .dwattr $C$DW$T$131, DW_AT_name("__dev_t")
    2294                            .dwattr $C$DW$T$131, DW_AT_type(*$C$DW$T$130)
    2295                            .dwattr $C$DW$T$131, DW_AT_language(DW_LANG_C)
    2296                            .dwattr $C$DW$T$131, DW_AT_decl_file("C:/ti/ccs1230/ccs/tools/compiler/ti-cgt-arm_20.2.7.LTS/i
    2297                            .dwattr $C$DW$T$131, DW_AT_decl_line(0x7f)
    2298                            .dwattr $C$DW$T$131, DW_AT_decl_column(0x14)
    2299                    
    2300                    $C$DW$T$132     .dwtag  DW_TAG_typedef
    2301                            .dwattr $C$DW$T$132, DW_AT_name("__fsblkcnt_t")
    2302                            .dwattr $C$DW$T$132, DW_AT_type(*$C$DW$T$130)
    2303                            .dwattr $C$DW$T$132, DW_AT_language(DW_LANG_C)
    2304                            .dwattr $C$DW$T$132, DW_AT_decl_file("C:/ti/ccs1230/ccs/tools/compiler/ti-cgt-arm_20.2.7.LTS/i
    2305                            .dwattr $C$DW$T$132, DW_AT_decl_line(0x33)
    2306                            .dwattr $C$DW$T$132, DW_AT_decl_column(0x14)
    2307                    
    2308                    $C$DW$T$133     .dwtag  DW_TAG_typedef
TI ARM Assembler PC v20.2.7 Fri Feb 14 12:43:41 2025

Copyright (c) 1996-2018 Texas Instruments Incorporated
UART.asm                                                             PAGE   43

    2309                            .dwattr $C$DW$T$133, DW_AT_name("__fsfilcnt_t")
    2310                            .dwattr $C$DW$T$133, DW_AT_type(*$C$DW$T$130)
    2311                            .dwattr $C$DW$T$133, DW_AT_language(DW_LANG_C)
    2312                            .dwattr $C$DW$T$133, DW_AT_decl_file("C:/ti/ccs1230/ccs/tools/compiler/ti-cgt-arm_20.2.7.LTS/i
    2313                            .dwattr $C$DW$T$133, DW_AT_decl_line(0x34)
    2314                            .dwattr $C$DW$T$133, DW_AT_decl_column(0x14)
    2315                    
    2316                    $C$DW$T$134     .dwtag  DW_TAG_typedef
    2317                            .dwattr $C$DW$T$134, DW_AT_name("__ino_t")
    2318                            .dwattr $C$DW$T$134, DW_AT_type(*$C$DW$T$130)
    2319                            .dwattr $C$DW$T$134, DW_AT_language(DW_LANG_C)
    2320                            .dwattr $C$DW$T$134, DW_AT_decl_file("C:/ti/ccs1230/ccs/tools/compiler/ti-cgt-arm_20.2.7.LTS/i
    2321                            .dwattr $C$DW$T$134, DW_AT_decl_line(0x37)
    2322                            .dwattr $C$DW$T$134, DW_AT_decl_column(0x14)
    2323                    
    2324                    $C$DW$T$135     .dwtag  DW_TAG_typedef
    2325                            .dwattr $C$DW$T$135, DW_AT_name("__nlink_t")
    2326                            .dwattr $C$DW$T$135, DW_AT_type(*$C$DW$T$130)
    2327                            .dwattr $C$DW$T$135, DW_AT_language(DW_LANG_C)
    2328                            .dwattr $C$DW$T$135, DW_AT_decl_file("C:/ti/ccs1230/ccs/tools/compiler/ti-cgt-arm_20.2.7.LTS/i
    2329                            .dwattr $C$DW$T$135, DW_AT_decl_line(0x3d)
    2330                            .dwattr $C$DW$T$135, DW_AT_decl_column(0x14)
    2331                    
    2332                    $C$DW$T$136     .dwtag  DW_TAG_typedef
    2333                            .dwattr $C$DW$T$136, DW_AT_name("__uint_fast64_t")
    2334                            .dwattr $C$DW$T$136, DW_AT_type(*$C$DW$T$130)
    2335                            .dwattr $C$DW$T$136, DW_AT_language(DW_LANG_C)
    2336                            .dwattr $C$DW$T$136, DW_AT_decl_file("C:/ti/ccs1230/ccs/tools/compiler/ti-cgt-arm_20.2.7.LTS/i
    2337                            .dwattr $C$DW$T$136, DW_AT_decl_line(0x7e)
    2338                            .dwattr $C$DW$T$136, DW_AT_decl_column(0x14)
    2339                    
    2340                    $C$DW$T$137     .dwtag  DW_TAG_typedef
    2341                            .dwattr $C$DW$T$137, DW_AT_name("uint_fast64_t")
    2342                            .dwattr $C$DW$T$137, DW_AT_type(*$C$DW$T$136)
    2343                            .dwattr $C$DW$T$137, DW_AT_language(DW_LANG_C)
    2344                            .dwattr $C$DW$T$137, DW_AT_decl_file("C:/ti/ccs1230/ccs/tools/compiler/ti-cgt-arm_20.2.7.LTS/i
    2345                            .dwattr $C$DW$T$137, DW_AT_decl_line(0x3c)
    2346                            .dwattr $C$DW$T$137, DW_AT_decl_column(0x1a)
    2347                    
    2348                    $C$DW$T$138     .dwtag  DW_TAG_typedef
    2349                            .dwattr $C$DW$T$138, DW_AT_name("__uint_least64_t")
    2350                            .dwattr $C$DW$T$138, DW_AT_type(*$C$DW$T$130)
    2351                            .dwattr $C$DW$T$138, DW_AT_language(DW_LANG_C)
    2352                            .dwattr $C$DW$T$138, DW_AT_decl_file("C:/ti/ccs1230/ccs/tools/compiler/ti-cgt-arm_20.2.7.LTS/i
    2353                            .dwattr $C$DW$T$138, DW_AT_decl_line(0x82)
    2354                            .dwattr $C$DW$T$138, DW_AT_decl_column(0x14)
    2355                    
    2356                    $C$DW$T$139     .dwtag  DW_TAG_typedef
    2357                            .dwattr $C$DW$T$139, DW_AT_name("uint_least64_t")
    2358                            .dwattr $C$DW$T$139, DW_AT_type(*$C$DW$T$138)
    2359                            .dwattr $C$DW$T$139, DW_AT_language(DW_LANG_C)
    2360                            .dwattr $C$DW$T$139, DW_AT_decl_file("C:/ti/ccs1230/ccs/tools/compiler/ti-cgt-arm_20.2.7.LTS/i
    2361                            .dwattr $C$DW$T$139, DW_AT_decl_line(0x32)
    2362                            .dwattr $C$DW$T$139, DW_AT_decl_column(0x1a)
    2363                    
TI ARM Assembler PC v20.2.7 Fri Feb 14 12:43:41 2025

Copyright (c) 1996-2018 Texas Instruments Incorporated
UART.asm                                                             PAGE   44

    2364                    $C$DW$T$140     .dwtag  DW_TAG_typedef
    2365                            .dwattr $C$DW$T$140, DW_AT_name("__uintmax_t")
    2366                            .dwattr $C$DW$T$140, DW_AT_type(*$C$DW$T$130)
    2367                            .dwattr $C$DW$T$140, DW_AT_language(DW_LANG_C)
    2368                            .dwattr $C$DW$T$140, DW_AT_decl_file("C:/ti/ccs1230/ccs/tools/compiler/ti-cgt-arm_20.2.7.LTS/i
    2369                            .dwattr $C$DW$T$140, DW_AT_decl_line(0x79)
    2370                            .dwattr $C$DW$T$140, DW_AT_decl_column(0x14)
    2371                    
    2372                    $C$DW$T$141     .dwtag  DW_TAG_typedef
    2373                            .dwattr $C$DW$T$141, DW_AT_name("__rman_res_t")
    2374                            .dwattr $C$DW$T$141, DW_AT_type(*$C$DW$T$140)
    2375                            .dwattr $C$DW$T$141, DW_AT_language(DW_LANG_C)
    2376                            .dwattr $C$DW$T$141, DW_AT_decl_file("C:/ti/ccs1230/ccs/tools/compiler/ti-cgt-arm_20.2.7.LTS/i
    2377                            .dwattr $C$DW$T$141, DW_AT_decl_line(0x9a)
    2378                            .dwattr $C$DW$T$141, DW_AT_decl_column(0x19)
    2379                    
    2380                    $C$DW$T$142     .dwtag  DW_TAG_typedef
    2381                            .dwattr $C$DW$T$142, DW_AT_name("uintmax_t")
    2382                            .dwattr $C$DW$T$142, DW_AT_type(*$C$DW$T$140)
    2383                            .dwattr $C$DW$T$142, DW_AT_language(DW_LANG_C)
    2384                            .dwattr $C$DW$T$142, DW_AT_decl_file("C:/ti/ccs1230/ccs/tools/compiler/ti-cgt-arm_20.2.7.LTS/i
    2385                            .dwattr $C$DW$T$142, DW_AT_decl_line(0x5c)
    2386                            .dwattr $C$DW$T$142, DW_AT_decl_column(0x16)
    2387                    
    2388                    $C$DW$T$143     .dwtag  DW_TAG_typedef
    2389                            .dwattr $C$DW$T$143, DW_AT_name("uint64_t")
    2390                            .dwattr $C$DW$T$143, DW_AT_type(*$C$DW$T$130)
    2391                            .dwattr $C$DW$T$143, DW_AT_language(DW_LANG_C)
    2392                            .dwattr $C$DW$T$143, DW_AT_decl_file("C:/ti/ccs1230/ccs/tools/compiler/ti-cgt-arm_20.2.7.LTS/i
    2393                            .dwattr $C$DW$T$143, DW_AT_decl_line(0x4b)
    2394                            .dwattr $C$DW$T$143, DW_AT_decl_column(0x15)
    2395                    
    2396                    $C$DW$T$16      .dwtag  DW_TAG_base_type
    2397                            .dwattr $C$DW$T$16, DW_AT_encoding(DW_ATE_float)
    2398                            .dwattr $C$DW$T$16, DW_AT_name("float")
    2399                            .dwattr $C$DW$T$16, DW_AT_byte_size(0x04)
    2400                    
    2401                    $C$DW$T$144     .dwtag  DW_TAG_typedef
    2402                            .dwattr $C$DW$T$144, DW_AT_name("__float_t")
    2403                            .dwattr $C$DW$T$144, DW_AT_type(*$C$DW$T$16)
    2404                            .dwattr $C$DW$T$144, DW_AT_language(DW_LANG_C)
    2405                            .dwattr $C$DW$T$144, DW_AT_decl_file("C:/ti/ccs1230/ccs/tools/compiler/ti-cgt-arm_20.2.7.LTS/i
    2406                            .dwattr $C$DW$T$144, DW_AT_decl_line(0x61)
    2407                            .dwattr $C$DW$T$144, DW_AT_decl_column(0x10)
    2408                    
    2409                    $C$DW$T$17      .dwtag  DW_TAG_base_type
    2410                            .dwattr $C$DW$T$17, DW_AT_encoding(DW_ATE_float)
    2411                            .dwattr $C$DW$T$17, DW_AT_name("double")
    2412                            .dwattr $C$DW$T$17, DW_AT_byte_size(0x08)
    2413                    
    2414                    $C$DW$T$145     .dwtag  DW_TAG_typedef
    2415                            .dwattr $C$DW$T$145, DW_AT_name("__double_t")
    2416                            .dwattr $C$DW$T$145, DW_AT_type(*$C$DW$T$17)
    2417                            .dwattr $C$DW$T$145, DW_AT_language(DW_LANG_C)
    2418                            .dwattr $C$DW$T$145, DW_AT_decl_file("C:/ti/ccs1230/ccs/tools/compiler/ti-cgt-arm_20.2.7.LTS/i
TI ARM Assembler PC v20.2.7 Fri Feb 14 12:43:41 2025

Copyright (c) 1996-2018 Texas Instruments Incorporated
UART.asm                                                             PAGE   45

    2419                            .dwattr $C$DW$T$145, DW_AT_decl_line(0x60)
    2420                            .dwattr $C$DW$T$145, DW_AT_decl_column(0x11)
    2421                    
    2422                    $C$DW$T$18      .dwtag  DW_TAG_base_type
    2423                            .dwattr $C$DW$T$18, DW_AT_encoding(DW_ATE_float)
    2424                            .dwattr $C$DW$T$18, DW_AT_name("long double")
    2425                            .dwattr $C$DW$T$18, DW_AT_byte_size(0x08)
    2426                    
    2427                    $C$DW$T$27      .dwtag  DW_TAG_pointer_type
    2428                            .dwattr $C$DW$T$27, DW_AT_type(*$C$DW$T$6)
    2429                            .dwattr $C$DW$T$27, DW_AT_address_class(0x20)
    2430                    
    2431                    
    2432                    $C$DW$T$19      .dwtag  DW_TAG_structure_type
    2433                            .dwattr $C$DW$T$19, DW_AT_name("__mq")
    2434                            .dwattr $C$DW$T$19, DW_AT_declaration
    2435                            .dwattr $C$DW$T$19, DW_AT_decl_file("C:/ti/ccs1230/ccs/tools/compiler/ti-cgt-arm_20.2.7.LTS/in
    2436                            .dwattr $C$DW$T$19, DW_AT_decl_line(0x4c)
    2437                            .dwattr $C$DW$T$19, DW_AT_decl_column(0x10)
    2438                            .dwendtag $C$DW$T$19
    2439                    
    2440                    $C$DW$T$148     .dwtag  DW_TAG_pointer_type
    2441                            .dwattr $C$DW$T$148, DW_AT_type(*$C$DW$T$19)
    2442                            .dwattr $C$DW$T$148, DW_AT_address_class(0x20)
    2443                    
    2444                    $C$DW$T$149     .dwtag  DW_TAG_typedef
    2445                            .dwattr $C$DW$T$149, DW_AT_name("__mqd_t")
    2446                            .dwattr $C$DW$T$149, DW_AT_type(*$C$DW$T$148)
    2447                            .dwattr $C$DW$T$149, DW_AT_language(DW_LANG_C)
    2448                            .dwattr $C$DW$T$149, DW_AT_decl_file("C:/ti/ccs1230/ccs/tools/compiler/ti-cgt-arm_20.2.7.LTS/i
    2449                            .dwattr $C$DW$T$149, DW_AT_decl_line(0x4c)
    2450                            .dwattr $C$DW$T$149, DW_AT_decl_column(0x16)
    2451                    
    2452                    
    2453                    $C$DW$T$20      .dwtag  DW_TAG_structure_type
    2454                            .dwattr $C$DW$T$20, DW_AT_name("__timer")
    2455                            .dwattr $C$DW$T$20, DW_AT_declaration
    2456                            .dwattr $C$DW$T$20, DW_AT_decl_file("C:/ti/ccs1230/ccs/tools/compiler/ti-cgt-arm_20.2.7.LTS/in
    2457                            .dwattr $C$DW$T$20, DW_AT_decl_line(0x4b)
    2458                            .dwattr $C$DW$T$20, DW_AT_decl_column(0x10)
    2459                            .dwendtag $C$DW$T$20
    2460                    
    2461                    $C$DW$T$150     .dwtag  DW_TAG_pointer_type
    2462                            .dwattr $C$DW$T$150, DW_AT_type(*$C$DW$T$20)
    2463                            .dwattr $C$DW$T$150, DW_AT_address_class(0x20)
    2464                    
    2465                    $C$DW$T$151     .dwtag  DW_TAG_typedef
    2466                            .dwattr $C$DW$T$151, DW_AT_name("__timer_t")
    2467                            .dwattr $C$DW$T$151, DW_AT_type(*$C$DW$T$150)
    2468                            .dwattr $C$DW$T$151, DW_AT_language(DW_LANG_C)
    2469                            .dwattr $C$DW$T$151, DW_AT_decl_file("C:/ti/ccs1230/ccs/tools/compiler/ti-cgt-arm_20.2.7.LTS/i
    2470                            .dwattr $C$DW$T$151, DW_AT_decl_line(0x4b)
    2471                            .dwattr $C$DW$T$151, DW_AT_decl_column(0x19)
    2472                    
    2473                    
TI ARM Assembler PC v20.2.7 Fri Feb 14 12:43:41 2025

Copyright (c) 1996-2018 Texas Instruments Incorporated
UART.asm                                                             PAGE   46

    2474                    $C$DW$T$22      .dwtag  DW_TAG_structure_type
    2475                            .dwattr $C$DW$T$22, DW_AT_name("__va_list_t")
    2476                            .dwattr $C$DW$T$22, DW_AT_byte_size(0x04)
    2477                    $C$DW$60        .dwtag  DW_TAG_member
    2478                            .dwattr $C$DW$60, DW_AT_type(*$C$DW$T$3)
    2479                            .dwattr $C$DW$60, DW_AT_name("__ap")
    2480                            .dwattr $C$DW$60, DW_AT_TI_symbol_name("__ap")
    2481                            .dwattr $C$DW$60, DW_AT_data_member_location[DW_OP_plus_uconst 0x0]
    2482                            .dwattr $C$DW$60, DW_AT_accessibility(DW_ACCESS_public)
    2483                            .dwattr $C$DW$60, DW_AT_decl_file("C:/ti/ccs1230/ccs/tools/compiler/ti-cgt-arm_20.2.7.LTS/incl
    2484                            .dwattr $C$DW$60, DW_AT_decl_line(0xa4)
    2485                            .dwattr $C$DW$60, DW_AT_decl_column(0x0c)
    2486                    
    2487                            .dwattr $C$DW$T$22, DW_AT_decl_file("C:/ti/ccs1230/ccs/tools/compiler/ti-cgt-arm_20.2.7.LTS/in
    2488                            .dwattr $C$DW$T$22, DW_AT_decl_line(0xa3)
    2489                            .dwattr $C$DW$T$22, DW_AT_decl_column(0x10)
    2490                            .dwendtag $C$DW$T$22
    2491                    
    2492                    $C$DW$T$152     .dwtag  DW_TAG_typedef
    2493                            .dwattr $C$DW$T$152, DW_AT_name("__va_list")
    2494                            .dwattr $C$DW$T$152, DW_AT_type(*$C$DW$T$22)
    2495                            .dwattr $C$DW$T$152, DW_AT_language(DW_LANG_C)
    2496                            .dwattr $C$DW$T$152, DW_AT_decl_file("C:/ti/ccs1230/ccs/tools/compiler/ti-cgt-arm_20.2.7.LTS/i
    2497                            .dwattr $C$DW$T$152, DW_AT_decl_line(0xa5)
    2498                            .dwattr $C$DW$T$152, DW_AT_decl_column(0x03)
    2499                    
    2500                            .dwattr $C$DW$CU, DW_AT_language(DW_LANG_C)
    2501                    
    2502                    ;***************************************************************
    2503                    ;* DWARF CIE ENTRIES                                           *
    2504                    ;***************************************************************
    2505                    
    2506                    $C$DW$CIE       .dwcie 14
    2507                            .dwcfi  cfa_register, 13
    2508                            .dwcfi  cfa_offset, 0
    2509                            .dwcfi  same_value, 4
    2510                            .dwcfi  same_value, 5
    2511                            .dwcfi  same_value, 6
    2512                            .dwcfi  same_value, 7
    2513                            .dwcfi  same_value, 8
    2514                            .dwcfi  same_value, 9
    2515                            .dwcfi  same_value, 10
    2516                            .dwcfi  same_value, 11
    2517                            .dwcfi  same_value, 80
    2518                            .dwcfi  same_value, 81
    2519                            .dwcfi  same_value, 82
    2520                            .dwcfi  same_value, 83
    2521                            .dwcfi  same_value, 84
    2522                            .dwcfi  same_value, 85
    2523                            .dwcfi  same_value, 86
    2524                            .dwcfi  same_value, 87
    2525                            .dwcfi  same_value, 88
    2526                            .dwcfi  same_value, 89
    2527                            .dwcfi  same_value, 90
    2528                            .dwcfi  same_value, 91
TI ARM Assembler PC v20.2.7 Fri Feb 14 12:43:41 2025

Copyright (c) 1996-2018 Texas Instruments Incorporated
UART.asm                                                             PAGE   47

    2529                            .dwcfi  same_value, 92
    2530                            .dwcfi  same_value, 93
    2531                            .dwcfi  same_value, 94
    2532                            .dwcfi  same_value, 95
    2533                            .dwendentry
    2534                    
    2535                    ;***************************************************************
    2536                    ;* DWARF REGISTER MAP                                          *
    2537                    ;***************************************************************
    2538                    
    2539                    $C$DW$61        .dwtag  DW_TAG_TI_assign_register
    2540                            .dwattr $C$DW$61, DW_AT_name("A1")
    2541                            .dwattr $C$DW$61, DW_AT_location[DW_OP_reg0]
    2542                    
    2543                    $C$DW$62        .dwtag  DW_TAG_TI_assign_register
    2544                            .dwattr $C$DW$62, DW_AT_name("A2")
    2545                            .dwattr $C$DW$62, DW_AT_location[DW_OP_reg1]
    2546                    
    2547                    $C$DW$63        .dwtag  DW_TAG_TI_assign_register
    2548                            .dwattr $C$DW$63, DW_AT_name("A3")
    2549                            .dwattr $C$DW$63, DW_AT_location[DW_OP_reg2]
    2550                    
    2551                    $C$DW$64        .dwtag  DW_TAG_TI_assign_register
    2552                            .dwattr $C$DW$64, DW_AT_name("A4")
    2553                            .dwattr $C$DW$64, DW_AT_location[DW_OP_reg3]
    2554                    
    2555                    $C$DW$65        .dwtag  DW_TAG_TI_assign_register
    2556                            .dwattr $C$DW$65, DW_AT_name("V1")
    2557                            .dwattr $C$DW$65, DW_AT_location[DW_OP_reg4]
    2558                    
    2559                    $C$DW$66        .dwtag  DW_TAG_TI_assign_register
    2560                            .dwattr $C$DW$66, DW_AT_name("V2")
    2561                            .dwattr $C$DW$66, DW_AT_location[DW_OP_reg5]
    2562                    
    2563                    $C$DW$67        .dwtag  DW_TAG_TI_assign_register
    2564                            .dwattr $C$DW$67, DW_AT_name("V3")
    2565                            .dwattr $C$DW$67, DW_AT_location[DW_OP_reg6]
    2566                    
    2567                    $C$DW$68        .dwtag  DW_TAG_TI_assign_register
    2568                            .dwattr $C$DW$68, DW_AT_name("V4")
    2569                            .dwattr $C$DW$68, DW_AT_location[DW_OP_reg7]
    2570                    
    2571                    $C$DW$69        .dwtag  DW_TAG_TI_assign_register
    2572                            .dwattr $C$DW$69, DW_AT_name("V5")
    2573                            .dwattr $C$DW$69, DW_AT_location[DW_OP_reg8]
    2574                    
    2575                    $C$DW$70        .dwtag  DW_TAG_TI_assign_register
    2576                            .dwattr $C$DW$70, DW_AT_name("V6")
    2577                            .dwattr $C$DW$70, DW_AT_location[DW_OP_reg9]
    2578                    
    2579                    $C$DW$71        .dwtag  DW_TAG_TI_assign_register
    2580                            .dwattr $C$DW$71, DW_AT_name("V7")
    2581                            .dwattr $C$DW$71, DW_AT_location[DW_OP_reg10]
    2582                    
    2583                    $C$DW$72        .dwtag  DW_TAG_TI_assign_register
TI ARM Assembler PC v20.2.7 Fri Feb 14 12:43:41 2025

Copyright (c) 1996-2018 Texas Instruments Incorporated
UART.asm                                                             PAGE   48

    2584                            .dwattr $C$DW$72, DW_AT_name("V8")
    2585                            .dwattr $C$DW$72, DW_AT_location[DW_OP_reg11]
    2586                    
    2587                    $C$DW$73        .dwtag  DW_TAG_TI_assign_register
    2588                            .dwattr $C$DW$73, DW_AT_name("V9")
    2589                            .dwattr $C$DW$73, DW_AT_location[DW_OP_reg12]
    2590                    
    2591                    $C$DW$74        .dwtag  DW_TAG_TI_assign_register
    2592                            .dwattr $C$DW$74, DW_AT_name("SP")
    2593                            .dwattr $C$DW$74, DW_AT_location[DW_OP_reg13]
    2594                    
    2595                    $C$DW$75        .dwtag  DW_TAG_TI_assign_register
    2596                            .dwattr $C$DW$75, DW_AT_name("LR")
    2597                            .dwattr $C$DW$75, DW_AT_location[DW_OP_reg14]
    2598                    
    2599                    $C$DW$76        .dwtag  DW_TAG_TI_assign_register
    2600                            .dwattr $C$DW$76, DW_AT_name("PC")
    2601                            .dwattr $C$DW$76, DW_AT_location[DW_OP_reg15]
    2602                    
    2603                    $C$DW$77        .dwtag  DW_TAG_TI_assign_register
    2604                            .dwattr $C$DW$77, DW_AT_name("SR")
    2605                            .dwattr $C$DW$77, DW_AT_location[DW_OP_reg17]
    2606                    
    2607                    $C$DW$78        .dwtag  DW_TAG_TI_assign_register
    2608                            .dwattr $C$DW$78, DW_AT_name("AP")
    2609                            .dwattr $C$DW$78, DW_AT_location[DW_OP_reg7]
    2610                    
    2611                    $C$DW$79        .dwtag  DW_TAG_TI_assign_register
    2612                            .dwattr $C$DW$79, DW_AT_name("D0")
    2613                            .dwattr $C$DW$79, DW_AT_location[DW_OP_regx 0x40]
    2614                    
    2615                    $C$DW$80        .dwtag  DW_TAG_TI_assign_register
    2616                            .dwattr $C$DW$80, DW_AT_name("D0_hi")
    2617                            .dwattr $C$DW$80, DW_AT_location[DW_OP_regx 0x41]
    2618                    
    2619                    $C$DW$81        .dwtag  DW_TAG_TI_assign_register
    2620                            .dwattr $C$DW$81, DW_AT_name("D1")
    2621                            .dwattr $C$DW$81, DW_AT_location[DW_OP_regx 0x42]
    2622                    
    2623                    $C$DW$82        .dwtag  DW_TAG_TI_assign_register
    2624                            .dwattr $C$DW$82, DW_AT_name("D1_hi")
    2625                            .dwattr $C$DW$82, DW_AT_location[DW_OP_regx 0x43]
    2626                    
    2627                    $C$DW$83        .dwtag  DW_TAG_TI_assign_register
    2628                            .dwattr $C$DW$83, DW_AT_name("D2")
    2629                            .dwattr $C$DW$83, DW_AT_location[DW_OP_regx 0x44]
    2630                    
    2631                    $C$DW$84        .dwtag  DW_TAG_TI_assign_register
    2632                            .dwattr $C$DW$84, DW_AT_name("D2_hi")
    2633                            .dwattr $C$DW$84, DW_AT_location[DW_OP_regx 0x45]
    2634                    
    2635                    $C$DW$85        .dwtag  DW_TAG_TI_assign_register
    2636                            .dwattr $C$DW$85, DW_AT_name("D3")
    2637                            .dwattr $C$DW$85, DW_AT_location[DW_OP_regx 0x46]
    2638                    
TI ARM Assembler PC v20.2.7 Fri Feb 14 12:43:41 2025

Copyright (c) 1996-2018 Texas Instruments Incorporated
UART.asm                                                             PAGE   49

    2639                    $C$DW$86        .dwtag  DW_TAG_TI_assign_register
    2640                            .dwattr $C$DW$86, DW_AT_name("D3_hi")
    2641                            .dwattr $C$DW$86, DW_AT_location[DW_OP_regx 0x47]
    2642                    
    2643                    $C$DW$87        .dwtag  DW_TAG_TI_assign_register
    2644                            .dwattr $C$DW$87, DW_AT_name("D4")
    2645                            .dwattr $C$DW$87, DW_AT_location[DW_OP_regx 0x48]
    2646                    
    2647                    $C$DW$88        .dwtag  DW_TAG_TI_assign_register
    2648                            .dwattr $C$DW$88, DW_AT_name("D4_hi")
    2649                            .dwattr $C$DW$88, DW_AT_location[DW_OP_regx 0x49]
    2650                    
    2651                    $C$DW$89        .dwtag  DW_TAG_TI_assign_register
    2652                            .dwattr $C$DW$89, DW_AT_name("D5")
    2653                            .dwattr $C$DW$89, DW_AT_location[DW_OP_regx 0x4a]
    2654                    
    2655                    $C$DW$90        .dwtag  DW_TAG_TI_assign_register
    2656                            .dwattr $C$DW$90, DW_AT_name("D5_hi")
    2657                            .dwattr $C$DW$90, DW_AT_location[DW_OP_regx 0x4b]
    2658                    
    2659                    $C$DW$91        .dwtag  DW_TAG_TI_assign_register
    2660                            .dwattr $C$DW$91, DW_AT_name("D6")
    2661                            .dwattr $C$DW$91, DW_AT_location[DW_OP_regx 0x4c]
    2662                    
    2663                    $C$DW$92        .dwtag  DW_TAG_TI_assign_register
    2664                            .dwattr $C$DW$92, DW_AT_name("D6_hi")
    2665                            .dwattr $C$DW$92, DW_AT_location[DW_OP_regx 0x4d]
    2666                    
    2667                    $C$DW$93        .dwtag  DW_TAG_TI_assign_register
    2668                            .dwattr $C$DW$93, DW_AT_name("D7")
    2669                            .dwattr $C$DW$93, DW_AT_location[DW_OP_regx 0x4e]
    2670                    
    2671                    $C$DW$94        .dwtag  DW_TAG_TI_assign_register
    2672                            .dwattr $C$DW$94, DW_AT_name("D7_hi")
    2673                            .dwattr $C$DW$94, DW_AT_location[DW_OP_regx 0x4f]
    2674                    
    2675                    $C$DW$95        .dwtag  DW_TAG_TI_assign_register
    2676                            .dwattr $C$DW$95, DW_AT_name("D8")
    2677                            .dwattr $C$DW$95, DW_AT_location[DW_OP_regx 0x50]
    2678                    
    2679                    $C$DW$96        .dwtag  DW_TAG_TI_assign_register
    2680                            .dwattr $C$DW$96, DW_AT_name("D8_hi")
    2681                            .dwattr $C$DW$96, DW_AT_location[DW_OP_regx 0x51]
    2682                    
    2683                    $C$DW$97        .dwtag  DW_TAG_TI_assign_register
    2684                            .dwattr $C$DW$97, DW_AT_name("D9")
    2685                            .dwattr $C$DW$97, DW_AT_location[DW_OP_regx 0x52]
    2686                    
    2687                    $C$DW$98        .dwtag  DW_TAG_TI_assign_register
    2688                            .dwattr $C$DW$98, DW_AT_name("D9_hi")
    2689                            .dwattr $C$DW$98, DW_AT_location[DW_OP_regx 0x53]
    2690                    
    2691                    $C$DW$99        .dwtag  DW_TAG_TI_assign_register
    2692                            .dwattr $C$DW$99, DW_AT_name("D10")
    2693                            .dwattr $C$DW$99, DW_AT_location[DW_OP_regx 0x54]
TI ARM Assembler PC v20.2.7 Fri Feb 14 12:43:41 2025

Copyright (c) 1996-2018 Texas Instruments Incorporated
UART.asm                                                             PAGE   50

    2694                    
    2695                    $C$DW$100       .dwtag  DW_TAG_TI_assign_register
    2696                            .dwattr $C$DW$100, DW_AT_name("D10_hi")
    2697                            .dwattr $C$DW$100, DW_AT_location[DW_OP_regx 0x55]
    2698                    
    2699                    $C$DW$101       .dwtag  DW_TAG_TI_assign_register
    2700                            .dwattr $C$DW$101, DW_AT_name("D11")
    2701                            .dwattr $C$DW$101, DW_AT_location[DW_OP_regx 0x56]
    2702                    
    2703                    $C$DW$102       .dwtag  DW_TAG_TI_assign_register
    2704                            .dwattr $C$DW$102, DW_AT_name("D11_hi")
    2705                            .dwattr $C$DW$102, DW_AT_location[DW_OP_regx 0x57]
    2706                    
    2707                    $C$DW$103       .dwtag  DW_TAG_TI_assign_register
    2708                            .dwattr $C$DW$103, DW_AT_name("D12")
    2709                            .dwattr $C$DW$103, DW_AT_location[DW_OP_regx 0x58]
    2710                    
    2711                    $C$DW$104       .dwtag  DW_TAG_TI_assign_register
    2712                            .dwattr $C$DW$104, DW_AT_name("D12_hi")
    2713                            .dwattr $C$DW$104, DW_AT_location[DW_OP_regx 0x59]
    2714                    
    2715                    $C$DW$105       .dwtag  DW_TAG_TI_assign_register
    2716                            .dwattr $C$DW$105, DW_AT_name("D13")
    2717                            .dwattr $C$DW$105, DW_AT_location[DW_OP_regx 0x5a]
    2718                    
    2719                    $C$DW$106       .dwtag  DW_TAG_TI_assign_register
    2720                            .dwattr $C$DW$106, DW_AT_name("D13_hi")
    2721                            .dwattr $C$DW$106, DW_AT_location[DW_OP_regx 0x5b]
    2722                    
    2723                    $C$DW$107       .dwtag  DW_TAG_TI_assign_register
    2724                            .dwattr $C$DW$107, DW_AT_name("D14")
    2725                            .dwattr $C$DW$107, DW_AT_location[DW_OP_regx 0x5c]
    2726                    
    2727                    $C$DW$108       .dwtag  DW_TAG_TI_assign_register
    2728                            .dwattr $C$DW$108, DW_AT_name("D14_hi")
    2729                            .dwattr $C$DW$108, DW_AT_location[DW_OP_regx 0x5d]
    2730                    
    2731                    $C$DW$109       .dwtag  DW_TAG_TI_assign_register
    2732                            .dwattr $C$DW$109, DW_AT_name("D15")
    2733                            .dwattr $C$DW$109, DW_AT_location[DW_OP_regx 0x5e]
    2734                    
    2735                    $C$DW$110       .dwtag  DW_TAG_TI_assign_register
    2736                            .dwattr $C$DW$110, DW_AT_name("D15_hi")
    2737                            .dwattr $C$DW$110, DW_AT_location[DW_OP_regx 0x5f]
    2738                    
    2739                    $C$DW$111       .dwtag  DW_TAG_TI_assign_register
    2740                            .dwattr $C$DW$111, DW_AT_name("FPEXC")
    2741                            .dwattr $C$DW$111, DW_AT_location[DW_OP_reg18]
    2742                    
    2743                    $C$DW$112       .dwtag  DW_TAG_TI_assign_register
    2744                            .dwattr $C$DW$112, DW_AT_name("FPSCR")
    2745                            .dwattr $C$DW$112, DW_AT_location[DW_OP_reg19]
    2746                    
    2747                            .dwendtag $C$DW$CU
    2748                    

--------------------------
Thumb2 Statistics
--------------------------
Number of Thumb2 ins converted to Thumb = 0 (0%)
Number of Thumb ins in input = 232 (78%)
Number of Thumb2 ins encoded as Thumb2 = 62 (100%)
Number of Thumb2 ins converted to 2 OPND Thumb = 10

TI ARM Assembler PC v20.2.7 Fri Feb 14 12:43:41 2025

Copyright (c) 1996-2018 Texas Instruments Incorporated
UART.asm                                                             PAGE   51


No Assembly Errors, No Assembly Warnings
